0000000000039360 P __printf_chk
0000000000039370 P pthread_cond_signal
0000000000039380 P _Znam
0000000000039390 P _ZNSo3putEc
00000000000393a0 P _ZNKSt7__cxx1112basic_stringIcSt11char_traitsIcESaIcEE7compareERKS4_
00000000000393b0 P __errno_location
00000000000393c0 P BZ2_bzDecompress
00000000000393d0 P _ZNSt6chrono3_V212system_clock3nowEv
00000000000393e0 P _ZNSt8__detail15_List_node_base7_M_hookEPS0_
00000000000393f0 P syscall
0000000000039400 P deflateInit2_
0000000000039410 P isspace
0000000000039420 P LZ4_decompress_safe_continue
0000000000039430 P msync
0000000000039440 P readahead
0000000000039450 P _ZNSt7__cxx1112basic_stringIcSt11char_traitsIcESaIcEE6appendEPKcm
0000000000039460 P BZ2_bzCompressInit
0000000000039470 P strtoll
0000000000039480 P BZ2_bzCompressEnd
0000000000039490 P _ZSt29_Rb_tree_insert_and_rebalancebPSt18_Rb_tree_node_baseS0_RS_
00000000000394a0 P ceil
00000000000394b0 P clearerr
00000000000394c0 P _ZSt11_Hash_bytesPKvmm
00000000000394d0 P expl
00000000000394e0 P ZSTD_versionNumber
00000000000394f0 P _ZNSolsEPSt15basic_streambufIcSt11char_traitsIcEE
0000000000039500 P sin
0000000000039510 P _ZN6snappy21GetUncompressedLengthEPKcmPm
0000000000039520 P strstr
0000000000039530 P _ZNSt13basic_filebufIcSt11char_traitsIcEE5closeEv
0000000000039540 P _ZNSt7__cxx1119basic_ostringstreamIcSt11char_traitsIcESaIcEED1Ev
0000000000039550 P _ZNSt14basic_ifstreamIcSt11char_traitsIcEED1Ev
0000000000039560 P strerror_r
0000000000039570 P pthread_mutex_trylock
0000000000039580 P __vfprintf_chk
0000000000039590 P setpriority
00000000000395a0 P rand
00000000000395b0 P _ZSt9terminatev
00000000000395c0 P _ZNKSt7__cxx1112basic_stringIcSt11char_traitsIcESaIcEE7compareEPKc
00000000000395d0 P pwrite
00000000000395e0 P link
00000000000395f0 P _ZNSt8ios_baseC2Ev
0000000000039600 P nanosleep
0000000000039610 P _ZNSt7__cxx1112basic_stringIcSt11char_traitsIcESaIcEE6resizeEmc
0000000000039620 P popen
0000000000039630 P _ZNSt7__cxx1112basic_stringIcSt11char_traitsIcESaIcEE9_M_appendEPKcm
0000000000039640 P _ZSt19__throw_regex_errorNSt15regex_constants10error_typeE
0000000000039650 P LZ4_compress_fast_continue
0000000000039660 P log
0000000000039670 P _ZNSt8ios_baseD2Ev
0000000000039680 P pthread_setname_np
0000000000039690 P fstatfs
00000000000396a0 P pthread_cond_broadcast
00000000000396b0 P write
00000000000396c0 P _ZSt17__throw_bad_allocv
00000000000396d0 P strchr
00000000000396e0 P _ZSt25__throw_bad_function_callv
00000000000396f0 P _ZNSt13runtime_errorC1EPKc
0000000000039700 P __cxa_begin_catch
0000000000039710 P _ZN6google21ParseCommandLineFlagsEPiPPPcb
0000000000039720 P rmdir
0000000000039730 P _ZSt9use_facetISt5ctypeIcEERKT_RKSt6locale
0000000000039740 P strlen
0000000000039750 P pthread_mutexattr_destroy
0000000000039760 P memcmp
0000000000039770 P _ZNSt6thread6_StateD2Ev
0000000000039780 P mkdir
0000000000039790 P _ZNSt7__cxx1119basic_istringstreamIcSt11char_traitsIcESaIcEED1Ev
00000000000397a0 P deflate
00000000000397b0 P unlink
00000000000397c0 P deflateSetDictionary
00000000000397d0 P fdatasync
00000000000397e0 P __cxa_allocate_exception
00000000000397f0 P _ZN6google14FlagRegistererC1IlEEPKcS3_S3_PT_S5_
0000000000039800 P pthread_join
0000000000039810 P _ZNSt18condition_variable10notify_oneEv
0000000000039820 P posix_memalign
0000000000039830 P _ZNSt8__detail15_List_node_base11_M_transferEPS0_S1_
0000000000039840 P getcwd
0000000000039850 P llround
0000000000039860 P strncpy
0000000000039870 P _ZNKSt6locale2id5_M_idEv
0000000000039880 P localtime_r
0000000000039890 P _ZSt20__throw_length_errorPKc
00000000000398a0 P _ZNSt7__cxx1112basic_stringIcSt11char_traitsIcESaIcEE9_M_assignERKS4_
00000000000398b0 P memset
00000000000398c0 P abort
00000000000398d0 P dlerror
00000000000398e0 P munmap
00000000000398f0 P statfs
0000000000039900 P fcntl
0000000000039910 P geteuid
0000000000039920 P deflateEnd
0000000000039930 P _ZSt28_Rb_tree_rebalance_for_erasePSt18_Rb_tree_node_baseRS_
0000000000039940 P pthread_key_create
0000000000039950 P _ZSt24__throw_invalid_argumentPKc
0000000000039960 P __snprintf_chk
0000000000039970 P ZSTD_freeCCtx
0000000000039980 P _ZSt18_Rb_tree_decrementPKSt18_Rb_tree_node_base
0000000000039990 P rename
00000000000399a0 P _ZNSt6localeC1ERKS_
00000000000399b0 P __cxa_guard_abort
00000000000399c0 P statvfs
00000000000399d0 P __cxa_guard_release
00000000000399e0 P sysconf
00000000000399f0 P _ZSt20__throw_system_errori
0000000000039a00 P _ZNSo9_M_insertImEERSoT_
0000000000039a10 P _ZNSo5flushEv
0000000000039a20 P _ZSt18_Rb_tree_incrementPSt18_Rb_tree_node_base
0000000000039a30 P _ZNKSt8__detail20_Prime_rehash_policy11_M_next_bktEm
0000000000039a40 P _ZSt19__throw_logic_errorPKc
0000000000039a50 P sscanf
0000000000039a60 P _ZNSt7__cxx1112basic_stringIcSt11char_traitsIcESaIcEE4swapERS4_
0000000000039a70 P __cxa_free_exception
0000000000039a80 P nextafter
0000000000039a90 P _ZN6snappy19MaxCompressedLengthEm
0000000000039aa0 P open
0000000000039ab0 P posix_fallocate
0000000000039ac0 P posix_fadvise
0000000000039ad0 P dlclose
0000000000039ae0 P pthread_rwlock_destroy
0000000000039af0 P _ZNSt7__cxx1118basic_stringstreamIcSt11char_traitsIcESaIcEED1Ev
0000000000039b00 P pthread_mutex_unlock
0000000000039b10 P _ZNSt7__cxx1118basic_stringstreamIcSt11char_traitsIcESaIcEEC1ESt13_Ios_Openmode
0000000000039b20 P _ZNSo9_M_insertIPKvEERSoT_
0000000000039b30 P strtod
0000000000039b40 P pthread_rwlock_wrlock
0000000000039b50 P fallocate
0000000000039b60 P sqrt
0000000000039b70 P ZDICT_isError
0000000000039b80 P inflate
0000000000039b90 P _ZN6google14FlagRegistererC1IiEEPKcS3_S3_PT_S5_
0000000000039ba0 P strftime
0000000000039bb0 P __vsnprintf_chk
0000000000039bc0 P memcpy
0000000000039bd0 P LZ4_freeStream
0000000000039be0 P _ZNSt7__cxx1119basic_ostringstreamIcSt11char_traitsIcESaIcEEC1ESt13_Ios_Openmode
0000000000039bf0 P _ZNSt7__cxx1112basic_stringIcSt11char_traitsIcESaIcEE9push_backEc
0000000000039c00 P fsync
0000000000039c10 P inflateInit2_
0000000000039c20 P __cxa_atexit
0000000000039c30 P pthread_self
0000000000039c40 P _ZNSt13basic_filebufIcSt11char_traitsIcEE4openEPKcSt13_Ios_Openmode
0000000000039c50 P _ZSt9use_facetINSt7__cxx117collateIcEEERKT_RKSt6locale
0000000000039c60 P pow
0000000000039c70 P _ZNSt6thread15_M_start_threadESt10unique_ptrINS_6_StateESt14default_deleteIS1_EEPFvvE
0000000000039c80 P BZ2_bzDecompressEnd
0000000000039c90 P _ZN6google21RegisterFlagValidatorEPKmPFbPKcmE
0000000000039ca0 P time
0000000000039cb0 P BZ2_bzDecompressInit
0000000000039cc0 P _ZN6google14FlagRegistererC1ImEEPKcS3_S3_PT_S5_
0000000000039cd0 P _ZNSt13random_device7_M_finiEv
0000000000039ce0 P _ZdlPv
0000000000039cf0 P _ZNSo9_M_insertIlEERSoT_
0000000000039d00 P LZ4_compress_HC_continue
0000000000039d10 P _ZStlsISt11char_traitsIcEERSt13basic_ostreamIcT_ES5_PKc
0000000000039d20 P fclose
0000000000039d30 P _Znwm
0000000000039d40 P ZSTD_freeCDict
0000000000039d50 P __xstat
0000000000039d60 P raise
0000000000039d70 P _ZNSi10_M_extractIlEERSiRT_
0000000000039d80 P _ZNSt13basic_filebufIcSt11char_traitsIcEEC1Ev
0000000000039d90 P _ZNKSt7__cxx1112basic_stringIcSt11char_traitsIcESaIcEE6substrEmm
0000000000039da0 P _ZSt18_Rb_tree_decrementPSt18_Rb_tree_node_base
0000000000039db0 P inflateEnd
0000000000039dc0 P fileno
0000000000039dd0 P fdopen
0000000000039de0 P __fxstat
0000000000039df0 P readlink
0000000000039e00 P BZ2_bzCompress
0000000000039e10 P strcasecmp
0000000000039e20 P _ZN6google14FlagRegistererC1IjEEPKcS3_S3_PT_S5_
0000000000039e30 P _ZNSt6localeaSERKS_
0000000000039e40 P fseek
0000000000039e50 P memchr
0000000000039e60 P __stack_chk_fail
0000000000039e70 P ZSTD_freeDCtx
0000000000039e80 P _ZN6google21RegisterFlagValidatorEPKiPFbPKciE
0000000000039e90 P _ZNSt7__cxx1112basic_stringIcSt11char_traitsIcESaIcEE7replaceEmmPKcm
0000000000039ea0 P _ZSt16__ostream_insertIcSt11char_traitsIcEERSt13basic_ostreamIT_T0_ES6_PKS3_l
0000000000039eb0 P malloc_usable_size
0000000000039ec0 P _ZNKSt5ctypeIcE13_M_widen_initEv
0000000000039ed0 P sync_file_range
0000000000039ee0 P _ZSt18_Rb_tree_incrementPKSt18_Rb_tree_node_base
0000000000039ef0 P _ZN6snappy13RawUncompressEPKcmPc
0000000000039f00 P _ZNSt7__cxx1112basic_stringIcSt11char_traitsIcESaIcEE12_M_constructEmc
0000000000039f10 P pthread_mutex_destroy
0000000000039f20 P ctime_r
0000000000039f30 P fflush
0000000000039f40 P fopen
0000000000039f50 P _ZNSt7__cxx1112basic_stringIcSt11char_traitsIcESaIcEE8_M_eraseEmm
0000000000039f60 P signal
0000000000039f70 P free
0000000000039f80 P pthread_cond_init
0000000000039f90 P exit
0000000000039fa0 P getenv
0000000000039fb0 P LZ4_freeStreamHC
0000000000039fc0 P _ZNSt7__cxx1112basic_stringIcSt11char_traitsIcESaIcEEaSEOS4_
0000000000039fd0 P ZSTD_compress_usingDict
0000000000039fe0 P LZ4_resetStreamHC
0000000000039ff0 P pread
000000000003a000 P _ZSt16__throw_bad_castv
000000000003a010 P ZSTD_createDCtx
000000000003a020 P _ZdaPv
000000000003a030 P _ZNKSt7__cxx1112basic_stringIcSt11char_traitsIcESaIcEE7compareEmmRKS4_
000000000003a040 P _ZNSt7__cxx1115basic_stringbufIcSt11char_traitsIcESaIcEE7_M_syncEPcmm
000000000003a050 P _ZNKSt7__cxx1112basic_stringIcSt11char_traitsIcESaIcEE4findEcm
000000000003a060 P _ZdlPvSt11align_val_t
000000000003a070 P LZ4_createStreamDecode
000000000003a080 P pthread_rwlock_rdlock
000000000003a090 P _ZNKSt8__detail20_Prime_rehash_policy14_M_need_rehashEmmm
000000000003a0a0 P exp
000000000003a0b0 P _ZNSt6chrono3_V212steady_clock3nowEv
000000000003a0c0 P malloc
000000000003a0d0 P _ZNKSt7__cxx1112basic_stringIcSt11char_traitsIcESaIcEE7compareEmmPKc
000000000003a0e0 P clock_gettime
000000000003a0f0 P LZ4_createStreamHC
000000000003a100 P _ZN6snappy11RawCompressEPKcmPcPm
000000000003a110 P _ZNSt9basic_iosIcSt11char_traitsIcEE4initEPSt15basic_streambufIcS1_E
000000000003a120 P mlock
000000000003a130 P fread_unlocked
000000000003a140 P LZ4_createStream
000000000003a150 P sched_getcpu
000000000003a160 P ZSTD_decompress_usingDict
000000000003a170 P _ZNSt6thread20hardware_concurrencyEv
000000000003a180 P ftruncate
000000000003a190 P pthread_mutexattr_init
000000000003a1a0 P _ZNKSt7__cxx1112basic_stringIcSt11char_traitsIcESaIcEE5rfindEPKcmm
000000000003a1b0 P _ZNSt13random_device9_M_getvalEv
000000000003a1c0 P strcmp
000000000003a1d0 P _ZNSt18condition_variableC1Ev
000000000003a1e0 P getrlimit
000000000003a1f0 P ioctl
000000000003a200 P _ZNSt6localeD1Ev
000000000003a210 P usleep
000000000003a220 P pclose
000000000003a230 P kill
000000000003a240 P __cxa_throw_bad_array_new_length
000000000003a250 P _ZSt20__throw_out_of_rangePKc
000000000003a260 P tolower
000000000003a270 P __cxa_rethrow
000000000003a280 P sched_yield
000000000003a290 P getpid
000000000003a2a0 P dlopen
000000000003a2b0 P pthread_mutex_lock
000000000003a2c0 P backtrace
000000000003a2d0 P _ZN6google14FlagRegistererC1IdEEPKcS3_S3_PT_S5_
000000000003a2e0 P _ZN6google14FlagRegistererC1IbEEPKcS3_S3_PT_S5_
000000000003a2f0 P _ZN6google21RegisterFlagValidatorEPKdPFbPKcdE
000000000003a300 P backtrace_symbols
000000000003a310 P pthread_mutex_init
000000000003a320 P gethostname
000000000003a330 P opendir
000000000003a340 P LZ4_loadDict
000000000003a350 P pthread_cond_timedwait
000000000003a360 P _ZSt24__throw_out_of_range_fmtPKcz
000000000003a370 P _ZNKSt7__cxx1112basic_stringIcSt11char_traitsIcESaIcEE13find_first_ofEPKcmm
000000000003a380 P log2
000000000003a390 P _ZNSt12out_of_rangeC1ERKNSt7__cxx1112basic_stringIcSt11char_traitsIcESaIcEEE
000000000003a3a0 P pthread_cond_wait
000000000003a3b0 P readdir
000000000003a3c0 P LZ4_setStreamDecode
000000000003a3d0 P _ZNSt8ios_base4InitC1Ev
000000000003a3e0 P _ZNSt7__cxx1112basic_stringIcSt11char_traitsIcESaIcEE10_M_replaceEmmPKcm
000000000003a3f0 P feof
000000000003a400 P ZSTD_compress_usingCDict
000000000003a410 P _ZNSt13basic_filebufIcSt11char_traitsIcEED1Ev
000000000003a420 P _ZNSt7__cxx1112basic_stringIcSt11char_traitsIcESaIcEE7reserveEm
000000000003a430 P fgets
000000000003a440 P _ZNKSt7__cxx1115basic_stringbufIcSt11char_traitsIcESaIcEE3strEv
000000000003a450 P ZSTD_compressBound
000000000003a460 P _ZNSt7__cxx1118basic_stringstreamIcSt11char_traitsIcESaIcEEC1ERKNS_12basic_stringIcS2_S3_EESt13_Ios_Openmode
000000000003a470 P _ZNSt18condition_variable4waitERSt11unique_lockISt5mutexE
000000000003a480 P snprintf
000000000003a490 P closedir
000000000003a4a0 P _ZNSo9_M_insertIdEERSoT_
000000000003a4b0 P gettimeofday
000000000003a4c0 P _ZNSt13runtime_errorC1ERKNSt7__cxx1112basic_stringIcSt11char_traitsIcESaIcEEE
000000000003a4d0 P _ZNKSt7__cxx1112basic_stringIcSt11char_traitsIcESaIcEE16find_last_not_ofEPKcmm
000000000003a4e0 P __realpath_chk
000000000003a4f0 P memmove
000000000003a500 P _ZNSt8__detail15_List_node_base9_M_unhookEv
000000000003a510 P LZ4_freeStreamDecode
000000000003a520 P pthread_rwlock_unlock
000000000003a530 P sched_setscheduler
000000000003a540 P __cxa_end_catch
000000000003a550 P pthread_rwlock_init
000000000003a560 P __fprintf_chk
000000000003a570 P _ZNSo9_M_insertIbEERSoT_
000000000003a580 P pthread_once
000000000003a590 P ZSTD_createCCtx
000000000003a5a0 P _ZN6google15SetUsageMessageERKNSt7__cxx1112basic_stringIcSt11char_traitsIcESaIcEEE
000000000003a5b0 P access
000000000003a5c0 P __memcpy_chk
000000000003a5d0 P ZSTD_createCDict
000000000003a5e0 P floor
000000000003a5f0 P _ZNSt13random_device7_M_initERKNSt7__cxx1112basic_stringIcSt11char_traitsIcESaIcEEE
000000000003a600 P _ZNSt9basic_iosIcSt11char_traitsIcEE5clearESt12_Ios_Iostate
000000000003a610 P _ZNSt18condition_variable10notify_allEv
000000000003a620 P _ZNSt6thread4joinEv
000000000003a630 P __cxa_throw
000000000003a640 P _ZNSolsEi
000000000003a650 P _ZNSt16invalid_argumentC1ERKNSt7__cxx1112basic_stringIcSt11char_traitsIcESaIcEEE
000000000003a660 P _ZNKSt7__cxx1112basic_stringIcSt11char_traitsIcESaIcEE4findEPKcmm
000000000003a670 P _ZN6google14FlagRegistererC1INSt7__cxx1112basic_stringIcSt11char_traitsIcESaIcEEEEEPKcS9_S9_PT_SB_
000000000003a680 P __cxa_thread_atexit
000000000003a690 P _ZNSt6thread6detachEv
000000000003a6a0 P inflateSetDictionary
000000000003a6b0 P _Unwind_Resume
000000000003a6c0 P strsignal
000000000003a6d0 P mmap
000000000003a6e0 P LZ4_loadDictHC
000000000003a6f0 P _ZNSt7__cxx1112basic_stringIcSt11char_traitsIcESaIcEE9_M_createERmm
000000000003a700 P getpagesize
000000000003a710 P _ZNSt8__detail15_List_node_base4swapERS0_S1_
000000000003a720 P _ZNSt7__cxx1112basic_stringIcSt11char_traitsIcESaIcEE9_M_mutateEmmPKcm
000000000003a730 P pthread_mutexattr_settype
000000000003a740 P __cxa_guard_acquire
000000000003a750 P _ZNSt18condition_variableD1Ev
000000000003a760 P pthread_setspecific
000000000003a770 P ZDICT_trainFromBuffer
000000000003a780 P dlsym
000000000003a790 P _ZSt7getlineIcSt11char_traitsIcESaIcEERSt13basic_istreamIT_T0_ES7_RNSt7__cxx1112basic_stringIS4_S5_T1_EES4_
000000000003a7a0 P _ZNSt12__basic_fileIcED1Ev
000000000003a7b0 P _ZNSt7__cxx1112basic_stringIcSt11char_traitsIcESaIcEE14_M_replace_auxEmmmc
000000000003a7c0 P ferror
000000000003a7d0 P _ZNSt13runtime_errorC2EPKc
000000000003a7e0 P _ZNSt7__cxx1112basic_stringIcSt11char_traitsIcESaIcEE6appendEPKc
000000000003a7f0 P _ZNSt7__cxx1112basic_stringIcSt11char_traitsIcESaIcEE6assignEPKc
000000000003a800 P pthread_cond_destroy
000000000003a810 P fwrite
000000000003a820 P close
000000000003a830 P LZ4_compressBound
000000000003a840 P _ZNKSt7__cxx1112basic_stringIcSt11char_traitsIcESaIcEE5rfindEcm
000000000003a850 P __getdelim
000000000003a860 P _ZNSt6localeC1Ev
000000000003a870 P _ZNKSt7__cxx1112basic_stringIcSt11char_traitsIcESaIcEE12find_last_ofEPKcmm
000000000003a880 P __dynsym_end
000000000003a8a0 t _ZNKSt14default_deleteIN7rocksdb8IteratorEEclEPS1_.isra.182.part.183
000000000003a8a6 t _ZNKSt14default_deleteIA_N7rocksdb4port7RWMutexEEclIS2_EENSt9enable_ifIXsrSt14is_convertibleIPA_T_PS3_E5valueEvE4typeEPS8_.isra.241
000000000003a914 t _ZNKSt14default_deleteIN7rocksdb10CompactionEEclEPS1_.isra.167.part.168
000000000003a930 t _ZN7rocksdb13PerfStepTimer4StopEv.part.22
000000000003a982 t _ZNKSt14default_deleteIN7rocksdb11VersionEditEEclEPS1_.isra.304.part.305
000000000003ab06 t _ZN7rocksdb13PerfStepTimer4StopEv.part.20
000000000003ab58 t _ZNKSt14default_deleteIN7rocksdb32FragmentedRangeTombstoneIteratorEEclEPS1_.isra.64.part.65
000000000003ab6c t _ZN7rocksdb13PerfStepTimer4StopEv.part.26
000000000003abc4 t _ZNKSt14default_deleteIN7rocksdb7LogFileEEclEPS1_.isra.43.part.44
000000000003abca t _ZNKSt14default_deleteIN7rocksdb10WriteBatch14ProtectionInfoEEclEPS2_.isra.184.part.185
000000000003ac04 t _ZNKSt14default_deleteIN7rocksdb10SavePointsEEclEPS1_.isra.207.part.208
000000000003ac44 t _ZN7rocksdb13PerfStepTimer4StopEv.part.21
000000000003ac96 t _ZNKSt14default_deleteIN7rocksdb28FSWritableFileTracingWrapperEEclEPS1_.isra.35.part.36
000000000003ac9c t _ZNKSt14default_deleteIN7rocksdb21FileChecksumGeneratorEEclEPS1_.isra.41.part.42
000000000003aca2 t _ZNKSt14default_deleteIN7rocksdb18WritableFileWriterEEclEPS1_.isra.76.part.77
000000000003aeee t _ZN7rocksdb13PerfStepTimer4StopEv.part.19
000000000003af40 t _ZN7rocksdb13PerfStepTimer4StopEv.part.9
000000000003af92 t _ZNKSt14default_deleteIN7rocksdb5BlockEEclEPS1_.isra.145.part.146
000000000003afae t _ZNKSt14default_deleteIN7rocksdb17UncompressionDictEEclEPS1_.isra.263.part.264
000000000003afe8 t _ZN7rocksdb13PerfStepTimer4StopEv.part.17
000000000003b03a t _ZN7rocksdb13PerfStepTimer4StopEv.part.12
000000000003b08c t _ZNKSt14default_deleteIN7rocksdb10BinaryHeapIPNS0_19IteratorWrapperBaseINS0_5SliceEEENS0_21MaxIteratorComparatorEEEEclEPS7_.isra.74.part.75
000000000003b0c8 t _ZNKSt14default_deleteIN7rocksdb20InternalIteratorBaseINS0_5SliceEEEEclEPS3_.isra.53.part.54
000000000003b0ce t _ZNKSt14default_deleteIN7rocksdb22RandomAccessFileReaderEEclEPS1_.isra.56.part.57
000000000003b27a t _ZNKSt14default_deleteIN7rocksdb28FSWritableFileTracingWrapperEEclEPS1_.isra.62.part.63
000000000003b280 t _ZNKSt14default_deleteIN7rocksdb20InternalIteratorBaseINS0_5SliceEEEEclEPS3_.isra.237.part.238
000000000003b286 t _ZN7rocksdb13PerfStepTimer4StopEv.part.28
000000000003b2d8 t _ZN7rocksdb13PerfStepTimer4StopEv.part.20
000000000003b32a t _ZNKSt14default_deleteIN7rocksdb13DataBlockIterEEclEPS1_.isra.299.part.300
000000000003b3d6 t _ZNKSt14default_deleteIN7rocksdb17UncompressionDictEEclEPS1_.isra.239.part.240
000000000003b410 t _ZN7rocksdb13PerfStepTimer4StopEv.part.12
000000000003b462 t _ZNKSt14default_deleteIN7rocksdb16CompactionFilterEEclEPS1_.isra.64.part.65
000000000003b470 T main
000000000003b480 t _Z41__static_initialization_and_destruction_0ii.constprop.1159
00000000000410d0 t _GLOBAL__sub_I__ZN3fLS16FLAGS_benchmarksB5cxx11E
00000000000410e0 t _ZNSt7__cxx1112basic_stringIcSt11char_traitsIcESaIcEEC2EPKcRKS3_.isra.196
0000000000041120 t _GLOBAL__sub_I__ZN7rocksdb4test21kDefaultFormatVersionE
00000000000412d0 t _Z41__static_initialization_and_destruction_0ii.constprop.130
0000000000041dc0 t _GLOBAL__sub_I__ZN7rocksdb14SecondaryCache16CreateFromStringERKNS_13ConfigOptionsERKNSt7__cxx1112basic_stringIcSt11char_traitsIcESaIcEEEPSt10shared_ptrIS0_E
0000000000041dd0 t _ZNSt7__cxx1112basic_stringIcSt11char_traitsIcESaIcEEC2EPKcRKS3_.isra.95
0000000000041e10 t _GLOBAL__sub_I__ZN7rocksdb23CancelAllBackgroundWorkEPNS_2DBEb
0000000000041ee0 t _GLOBAL__sub_I__ZN7rocksdb24kDefaultColumnFamilyNameB5cxx11E
0000000000042610 t _GLOBAL__sub_I__ZN7rocksdb6DBImpl23EnoughRoomForCompactionEPNS_16ColumnFamilyDataERKSt6vectorINS_20CompactionInputFilesESaIS4_EEPbPNS_9LogBufferE
0000000000042c20 t _ZNSt7__cxx1112basic_stringIcSt11char_traitsIcESaIcEE12_M_constructIPKcEEvT_S8_St20forward_iterator_tag.isra.191
0000000000042cf0 t _ZNSt7__cxx1112basic_stringIcSt11char_traitsIcESaIcEEC2EPKcRKS3_.isra.193
0000000000042d20 t _GLOBAL__sub_I__ZN7rocksdb6DBImpl19SuggestCompactRangeEPNS_18ColumnFamilyHandleEPKNS_5SliceES5_
0000000000042df0 t _ZNSt7__cxx1112basic_stringIcSt11char_traitsIcESaIcEE12_M_constructIPKcEEvT_S8_St20forward_iterator_tag.isra.357
0000000000042ec0 t _ZNSt7__cxx1112basic_stringIcSt11char_traitsIcESaIcEEC2EPKcRKS3_.isra.359
0000000000042ef0 t _GLOBAL__sub_I__ZN7rocksdb6DBImpl18MinLogNumberToKeepEv
0000000000042fc0 t _GLOBAL__sub_I__ZN7rocksdb15SanitizeOptionsERKNSt7__cxx1112basic_stringIcSt11char_traitsIcESaIcEEERKNS_7OptionsEb
0000000000043090 t _ZNSt7__cxx1112basic_stringIcSt11char_traitsIcESaIcEE12_M_constructIPKcEEvT_S8_St20forward_iterator_tag.isra.190
0000000000043160 t _ZNSt7__cxx1112basic_stringIcSt11char_traitsIcESaIcEEC2EPKcRKS3_.isra.192
0000000000043190 t _GLOBAL__sub_I__ZN7rocksdb14DBImplReadOnlyC2ERKNS_9DBOptionsERKNSt7__cxx1112basic_stringIcSt11char_traitsIcESaIcEEE
0000000000043260 t _ZNSt7__cxx1112basic_stringIcSt11char_traitsIcESaIcEEC2EPKcRKS3_.isra.407
0000000000043290 t _GLOBAL__sub_I__ZN7rocksdb15DBImplSecondaryC2ERKNS_9DBOptionsERKNSt7__cxx1112basic_stringIcSt11char_traitsIcESaIcEEES9_
0000000000043360 t _ZNSt7__cxx1112basic_stringIcSt11char_traitsIcESaIcEEC2EPKcRKS3_.isra.232
0000000000043410 t _GLOBAL__sub_I__ZN7rocksdb6DBImpl3PutERKNS_12WriteOptionsEPNS_18ColumnFamilyHandleERKNS_5SliceES8_
00000000000434e0 t _ZNSt7__cxx1112basic_stringIcSt11char_traitsIcESaIcEE12_M_constructIPKcEEvT_S8_St20forward_iterator_tag.isra.36
00000000000435b0 t _ZNSt7__cxx1112basic_stringIcSt11char_traitsIcESaIcEEC2EPKcRKS3_.isra.38
00000000000435e0 t _GLOBAL__sub_I__ZN7rocksdb17DumpDBFileSummaryERKNS_18ImmutableDBOptionsERKNSt7__cxx1112basic_stringIcSt11char_traitsIcESaIcEEESA_
0000000000043680 t _ZNSt7__cxx1112basic_stringIcSt11char_traitsIcESaIcEEC2EPKcRKS3_.isra.158
00000000000436c0 t _GLOBAL__sub_I__ZN7rocksdb6DBIterC2EPNS_3EnvERKNS_11ReadOptionsERKNS_16ImmutableOptionsERKNS_16MutableCFOptionsEPKNS_10ComparatorEPNS_20InternalIteratorBaseINS_5SliceEEEPKNS_7VersionEmbmPNS_12ReadCallbackEPNS_6DBImplEPNS_16ColumnFamilyDataEb
00000000000437c0 t _GLOBAL__sub_I__ZN7rocksdb17kValueTypeForSeekE
0000000000043800 t _ZNSt7__cxx1112basic_stringIcSt11char_traitsIcESaIcEEC2EPKcRKS3_.isra.78
00000000000438b0 t _GLOBAL__sub_I__ZN7rocksdb16ErrorSeverityMapE
0000000000043d10 t _ZNSt7__cxx1112basic_stringIcSt11char_traitsIcESaIcEEC2EPKcRKS3_.isra.92
0000000000043d50 t _GLOBAL__sub_I__ZN7rocksdb13EventListener16CreateFromStringERKNS_13ConfigOptionsERKNSt7__cxx1112basic_stringIcSt11char_traitsIcESaIcEEEPSt10shared_ptrIS0_E
0000000000043e20 t _ZNSt7__cxx1112basic_stringIcSt11char_traitsIcESaIcEEC2EPKcRKS3_.isra.221
0000000000043e60 t _GLOBAL__sub_I__ZN7rocksdb27ExternalSstFileIngestionJob7PrepareERKSt6vectorINSt7__cxx1112basic_stringIcSt11char_traitsIcESaIcEEESaIS7_EESB_SB_mPNS_12SuperVersionE
0000000000043f30 t _ZNSt7__cxx1112basic_stringIcSt11char_traitsIcESaIcEEC2EPKcRKS3_.isra.239
0000000000043f70 t _GLOBAL__sub_I__ZN7rocksdb20GetFlushReasonStringENS_11FlushReasonE
0000000000044580 t _ZNSt7__cxx1112basic_stringIcSt11char_traitsIcESaIcEEC2EPKcRKS3_.isra.22
0000000000044630 t _GLOBAL__sub_I__ZN7rocksdb14FlushScheduler12ScheduleWorkEPNS_16ColumnFamilyDataE
0000000000044700 t _ZNSt7__cxx1112basic_stringIcSt11char_traitsIcESaIcEEC2EPKcRKS3_.isra.255
0000000000044740 t _GLOBAL__sub_I__ZN7rocksdb15ForwardIteratorC2EPNS_6DBImplERKNS_11ReadOptionsEPNS_16ColumnFamilyDataEPNS_12SuperVersionEb
0000000000044810 t _ZNSt7__cxx1112basic_stringIcSt11char_traitsIcESaIcEEC2EPKcRKS3_.isra.148
0000000000044840 t _GLOBAL__sub_I__ZN7rocksdb21ImportColumnFamilyJob7PrepareEmPNS_12SuperVersionE
0000000000044910 t _Z41__static_initialization_and_destruction_0ii.constprop.463
00000000000493b0 t _GLOBAL__sub_I__ZN7rocksdb13InternalStats22compaction_level_statsE
00000000000493c0 t _GLOBAL__sub_I__ZN7rocksdb3log6WriterC2EOSt10unique_ptrINS_18WritableFileWriterESt14default_deleteIS3_EEmbb
0000000000049400 t _GLOBAL__sub_I__ZN7rocksdb24ImmutableMemTableOptionsC2ERKNS_16ImmutableOptionsERKNS_16MutableCFOptionsE
0000000000049440 t _ZNSt7__cxx1112basic_stringIcSt11char_traitsIcESaIcEEC2EPKcRKS3_.isra.216
00000000000494f0 t _GLOBAL__sub_I__ZN7rocksdb19MemTableListVersion11AddMemTableEPNS_8MemTableE
0000000000049b00 t _GLOBAL__sub_I__ZN7rocksdb11MergeHelperC2EPNS_3EnvEPKNS_10ComparatorEPKNS_13MergeOperatorEPKNS_16CompactionFilterEPNS_6LoggerEbmPKNS_15SnapshotCheckerEiPNS_10StatisticsEPKSt6atomicIbE
0000000000049b40 t _ZNSt7__cxx1112basic_stringIcSt11char_traitsIcESaIcEEC2EPKcRKS3_.isra.97
0000000000049b70 t _GLOBAL__sub_I__ZN7rocksdb21PeriodicWorkSchedulerC2ERKSt10shared_ptrINS_11SystemClockEE
0000000000049c40 t _GLOBAL__sub_I__ZN7rocksdb25TruncatedRangeDelIteratorC2ESt10unique_ptrINS_32FragmentedRangeTombstoneIteratorESt14default_deleteIS2_EEPKNS_21InternalKeyComparatorEPKNS_11InternalKeyESB_
0000000000049c80 t _GLOBAL__sub_I__ZN7rocksdb28FragmentedRangeTombstoneListC2ESt10unique_ptrINS_20InternalIteratorBaseINS_5SliceEEESt14default_deleteIS4_EERKNS_21InternalKeyComparatorEbRKSt6vectorImSaImEE
0000000000049cc0 t _ZNSt7__cxx1112basic_stringIcSt11char_traitsIcESaIcEEC2EPKcRKS3_.isra.120
0000000000049d00 t _GLOBAL__sub_I__ZN7rocksdb10TableCacheC2ERKNS_16ImmutableOptionsEPKNS_11FileOptionsEPNS_5CacheEPNS_16BlockCacheTracerERKSt10shared_ptrINS_8IOTracerEERKNSt7__cxx1112basic_stringIcSt11char_traitsIcESaIcEEE
0000000000049de0 t _ZNSt7__cxx1112basic_stringIcSt11char_traitsIcESaIcEEC2EPKcRKS3_.isra.38
0000000000049e90 t _GLOBAL__sub_I__ZN7rocksdb20TrimHistoryScheduler12ScheduleWorkEPNS_16ColumnFamilyDataE
0000000000049f60 t _ZNSt7__cxx1112basic_stringIcSt11char_traitsIcESaIcEEC2EPKcRKS3_.isra.111
0000000000049fa0 t _GLOBAL__sub_I__ZN7rocksdb23PackFileNumberAndPathIdEmm
000000000004a070 t _GLOBAL__sub_I__ZN7rocksdb18VersionStorageInfoD2Ev
000000000004a150 t _ZNSt7__cxx1112basic_stringIcSt11char_traitsIcESaIcEEC2EPKcRKS3_.isra.108
000000000004a180 t _GLOBAL__sub_I__ZN7rocksdb10WalManager10DeleteFileERKNSt7__cxx1112basic_stringIcSt11char_traitsIcESaIcEEEm
000000000004a250 t _ZNSt7__cxx1112basic_stringIcSt11char_traitsIcESaIcEEC2EPKcRKS3_.isra.167
000000000004a280 t _GLOBAL__sub_I__ZN7rocksdb10WriteBatchC2Emm
000000000004a390 t _ZNSt7__cxx1112basic_stringIcSt11char_traitsIcESaIcEEC2EPKcRKS3_.isra.39
000000000004a440 t _GLOBAL__sub_I__ZN7rocksdb11WriteThreadC2ERKNS_18ImmutableDBOptionsE
000000000004a590 t _GLOBAL__sub_I__ZN7rocksdb3EnvC2Ev
000000000004a5d0 t _GLOBAL__sub_I__ZN7rocksdb7HdfsEnv17NewSequentialFileERKNSt7__cxx1112basic_stringIcSt11char_traitsIcESaIcEEEPSt10unique_ptrINS_14SequentialFileESt14default_deleteISA_EERKNS_10EnvOptionsE
000000000004a600 t _ZNSt7__cxx1112basic_stringIcSt11char_traitsIcESaIcEEC2EPKcRKS3_.isra.123
000000000004a640 t _GLOBAL__sub_I__ZN7rocksdb3Env16GenerateUniqueIdB5cxx11Ev
000000000004abc0 t _GLOBAL__sub_I__ZN7rocksdb10FileSystem7DefaultEv
000000000004b350 t _ZNSt7__cxx1112basic_stringIcSt11char_traitsIcESaIcEEC2EPKcRKS3_.isra.88
000000000004b390 t _GLOBAL__sub_I__ZN7rocksdb15DeleteSchedulerC2EPNS_11SystemClockEPNS_10FileSystemElPNS_6LoggerEPNS_18SstFileManagerImplEdm
000000000004b490 t _ZNSt7__cxx1112basic_stringIcSt11char_traitsIcESaIcEEC2EPKcRKS3_.isra.89
000000000004b4c0 t _GLOBAL__sub_I__ZN7rocksdb8CopyFileEPNS_10FileSystemERKNSt7__cxx1112basic_stringIcSt11char_traitsIcESaIcEEES9_mbRKSt10shared_ptrINS_8IOTracerEE
000000000004b590 t _ZNSt7__cxx1112basic_stringIcSt11char_traitsIcESaIcEEC2EPKcRKS3_.isra.56
000000000004b5c0 t _GLOBAL__sub_I_countlevel
000000000004b730 t _ZNSt7__cxx1112basic_stringIcSt11char_traitsIcESaIcEE12_M_constructIPKcEEvT_S8_St20forward_iterator_tag.isra.108
000000000004b800 t _ZNSt7__cxx1112basic_stringIcSt11char_traitsIcESaIcEEC2EPKcRKS3_.isra.110
000000000004b830 t _GLOBAL__sub_I__ZN7rocksdb18SstFileManagerImplC2ERKSt10shared_ptrINS_11SystemClockEERKS1_INS_10FileSystemEERKS1_INS_6LoggerEEldm
000000000004b900 t _GLOBAL__sub_I__ZN7rocksdb18WritableFileWriter6CreateERKSt10shared_ptrINS_10FileSystemEERKNSt7__cxx1112basic_stringIcSt11char_traitsIcESaIcEEERKNS_11FileOptionsEPSt10unique_ptrIS0_St14default_deleteIS0_EEPNS_14IODebugContextE
000000000004b940 t _ZNSt7__cxx1112basic_stringIcSt11char_traitsIcESaIcEEC2EPKcRKS3_.isra.70
000000000004b970 t _GLOBAL__sub_I__ZN7rocksdb14AutoRollLoggerC2ERKSt10shared_ptrINS_10FileSystemEERKS1_INS_11SystemClockEERKNSt7__cxx1112basic_stringIcSt11char_traitsIcESaIcEEESH_mmmNS_12InfoLogLevelE
000000000004ba10 t _GLOBAL__sub_I__ZN7rocksdb22HashLinkListRepFactory17CreateMemTableRepERKNS_11MemTableRep13KeyComparatorEPNS_9AllocatorEPKNS_14SliceTransformEPNS_6LoggerE
000000000004ba50 t _GLOBAL__sub_I__ZN7rocksdb22HashSkipListRepFactory17CreateMemTableRepERKNS_11MemTableRep13KeyComparatorEPNS_9AllocatorEPKNS_14SliceTransformEPNS_6LoggerE
000000000004ba90 t _GLOBAL__sub_I__ZN7rocksdb15SkipListFactory17CreateMemTableRepERKNS_11MemTableRep13KeyComparatorEPNS_9AllocatorEPKNS_14SliceTransformEPNS_6LoggerE
000000000004bad0 t _GLOBAL__sub_I__ZN7rocksdb16VectorRepFactory17CreateMemTableRepERKNS_11MemTableRep13KeyComparatorEPNS_9AllocatorEPKNS_14SliceTransformEPNS_6LoggerE
000000000004bb10 t _ZNSt7__cxx1112basic_stringIcSt11char_traitsIcESaIcEEC2EPKcRKS3_.isra.71
000000000004bbc0 t _GLOBAL__sub_I__ZN7rocksdb18WriteBufferManagerC2EmSt10shared_ptrINS_5CacheEEb
000000000004bc90 t _GLOBAL__sub_I__ZN7rocksdb21HistogramBucketMapperC2Ev
000000000004bcc0 t _ZNSt7__cxx1112basic_stringIcSt11char_traitsIcESaIcEEC2EPKcRKS3_.isra.26
000000000004bd70 t _GLOBAL__sub_I__ZN7rocksdb28InMemoryStatsHistoryIteratorD2Ev
000000000004be40 t _ZNSt7__cxx1112basic_stringIcSt11char_traitsIcESaIcEEC2EPKcRKS3_.isra.21
000000000004bef0 t _GLOBAL__sub_I__ZN7rocksdb17InstrumentedMutex4LockEv
000000000004c440 t _ZNSt7__cxx1112basic_stringIcSt11char_traitsIcESaIcEEC2EPKcRKS3_.isra.52
000000000004c470 t _GLOBAL__sub_I__ZN7rocksdb23kFormatVersionKeyStringB5cxx11E
000000000004c590 t _ZNSt7__cxx1112basic_stringIcSt11char_traitsIcESaIcEEC2EPKcRKS3_.isra.65
000000000004c5d0 t _Z41__static_initialization_and_destruction_0ii.constprop.126
000000000004e010 t _GLOBAL__sub_I__ZN7rocksdb14TickersNameMapB5cxx11E
000000000004e020 t _ZNSt7__cxx1112basic_stringIcSt11char_traitsIcESaIcEEC2EPKcRKS3_.isra.33
000000000004e050 t _GLOBAL__sub_I__ZN7rocksdb12ThreadStatus17GetThreadTypeNameB5cxx11ENS0_10ThreadTypeE
000000000004e5a0 t _ZNSt7__cxx1112basic_stringIcSt11char_traitsIcESaIcEEC2EPKcRKS3_.isra.86
000000000004e5d0 t _GLOBAL__sub_I__ZN7rocksdb19ThreadStatusUpdater19thread_status_data_E
000000000004eb20 t _ZNSt7__cxx1112basic_stringIcSt11char_traitsIcESaIcEEC2EPKcRKS3_.isra.17
000000000004ebd0 t _GLOBAL__sub_I__ZN7rocksdb16ThreadStatusUtil27thread_updater_local_cache_E
000000000004f120 t _Z41__static_initialization_and_destruction_0ii.constprop.409
0000000000053030 t _GLOBAL__sub_I__ZN7rocksdb13OptionsHelper14kCFOptionsNameB5cxx11E
0000000000053040 t _Z41__static_initialization_and_destruction_0ii.constprop.348
0000000000056c90 t _GLOBAL__sub_I__ZN7rocksdb13OptionsHelper14kDBOptionsNameB5cxx11E
0000000000056ca0 t _GLOBAL__sub_I__ZN7rocksdb27AdvancedColumnFamilyOptionsC2Ev
0000000000056ce0 t _Z41__static_initialization_and_destruction_0ii.constprop.587
0000000000057650 t _GLOBAL__sub_I__ZN7rocksdb13ConfigOptionsC2Ev
0000000000057660 t _GLOBAL__sub_I__ZN7rocksdb21PersistRocksDBOptionsERKNS_9DBOptionsERKSt6vectorINSt7__cxx1112basic_stringIcSt11char_traitsIcESaIcEEESaIS9_EERKS3_INS_19ColumnFamilyOptionsESaISE_EERKS9_PNS_10FileSystemE
00000000000577c0 t _GLOBAL__sub_I__ZN7rocksdb23kDefaultToAdaptiveMutexE
00000000000577f0 t _ZNSt7__cxx1112basic_stringIcSt11char_traitsIcESaIcEEC2EPKcRKS3_.isra.239
0000000000057830 t _Z41__static_initialization_and_destruction_0ii.constprop.497
000000000005a310 t _GLOBAL__sub_I__ZN7rocksdb17TailPrefetchStats19RecordEffectiveSizeEm
000000000005a320 t _GLOBAL__sub_I__ZN7rocksdb15BlockBasedTableD2Ev
000000000005a3f0 t _GLOBAL__sub_I__ZN7rocksdb17BloomFilterPolicy14kAllFixedImplsE
000000000005a4d0 t _GLOBAL__sub_I__ZNK7rocksdb29FlushBlockBySizePolicyFactory19NewFlushBlockPolicyERKNS_22BlockBasedTableOptionsERKNS_12BlockBuilderE
000000000005a510 t _ZNSt7__cxx1112basic_stringIcSt11char_traitsIcESaIcEEC2EPKcRKS3_.isra.47
000000000005a5c0 t _GLOBAL__sub_I__ZN7rocksdb22FullFilterBlockBuilderC2EPKNS_14SliceTransformEbPNS_17FilterBitsBuilderE
000000000005a690 t _ZNSt7__cxx1112basic_stringIcSt11char_traitsIcESaIcEEC2EPKcRKS3_.isra.48
000000000005a740 t _GLOBAL__sub_I__ZN7rocksdb15HashIndexReader6CreateEPKNS_15BlockBasedTableERKNS_11ReadOptionsEPNS_18FilePrefetchBufferEPNS_20InternalIteratorBaseINS_5SliceEEEbbbPNS_23BlockCacheLookupContextEPSt10unique_ptrINS1_11IndexReaderESt14default_deleteISG_EE
000000000005a810 t _ZNSt7__cxx1112basic_stringIcSt11char_traitsIcESaIcEEC2EPKcRKS3_.isra.33
000000000005a8c0 t _GLOBAL__sub_I__ZN7rocksdb15BlockBasedTable17IndexReaderCommon14ReadIndexBlockEPKS0_PNS_18FilePrefetchBufferERKNS_11ReadOptionsEbPNS_10GetContextEPNS_23BlockCacheLookupContextEPNS_13CachableEntryINS_5BlockEEE
000000000005a990 t _GLOBAL__sub_I__ZN7rocksdb21ParsedFullFilterBlockC2EPKNS_12FilterPolicyEONS_13BlockContentsE
000000000005a9d0 t _ZNSt7__cxx1112basic_stringIcSt11char_traitsIcESaIcEEC2EPKcRKS3_.isra.119
000000000005aa00 t _GLOBAL__sub_I__ZN7rocksdb29PartitionedFilterBlockBuilderC2EPKNS_14SliceTransformEbPNS_17FilterBitsBuilderEibPNS_23PartitionedIndexBuilderEj
000000000005aad0 t _ZNSt7__cxx1112basic_stringIcSt11char_traitsIcESaIcEEC2EPKcRKS3_.isra.80
000000000005aba0 t _GLOBAL__sub_I__ZN7rocksdb20PartitionIndexReader6CreateEPKNS_15BlockBasedTableERKNS_11ReadOptionsEPNS_18FilePrefetchBufferEbbbPNS_23BlockCacheLookupContextEPSt10unique_ptrINS1_11IndexReaderESt14default_deleteISC_EE
000000000005ac70 t _ZNSt7__cxx1112basic_stringIcSt11char_traitsIcESaIcEEC2EPKcRKS3_.isra.33
000000000005ad20 t _GLOBAL__sub_I__ZN7rocksdb23UncompressionDictReader6CreateEPKNS_15BlockBasedTableERKNS_11ReadOptionsEPNS_18FilePrefetchBufferEbbbPNS_23BlockCacheLookupContextEPSt10unique_ptrIS0_St14default_deleteIS0_EE
000000000005adf0 t _ZNSt7__cxx1112basic_stringIcSt11char_traitsIcESaIcEE12_M_constructIPKcEEvT_S8_St20forward_iterator_tag.isra.51
000000000005aea0 t _ZNSt7__cxx1112basic_stringIcSt11char_traitsIcESaIcEEC2EPKcRKS3_.isra.53
000000000005aed0 t _GLOBAL__sub_I__ZN7rocksdb12BlockFetcher17ReadBlockContentsEv
000000000005afa0 t _Z41__static_initialization_and_destruction_0ii.constprop.145
000000000005b9b0 t _GLOBAL__sub_I__ZNK7rocksdb18CuckooTableFactory14NewTableReaderERKNS_11ReadOptionsERKNS_18TableReaderOptionsEOSt10unique_ptrINS_22RandomAccessFileReaderESt14default_deleteIS8_EEmPS7_INS_11TableReaderES9_ISD_EEb
000000000005b9c0 t _GLOBAL__sub_I__ZN7rocksdb17CuckooTableReaderC2ERKNS_16ImmutableOptionsEOSt10unique_ptrINS_22RandomAccessFileReaderESt14default_deleteIS5_EEmPKNS_10ComparatorEPFmRKNS_5SliceEjmE
000000000005ba00 t _ZNSt7__cxx1112basic_stringIcSt11char_traitsIcESaIcEEC2EPKcRKS3_.isra.55
000000000005ba30 t _GLOBAL__sub_I__ZN7rocksdb20kHostnameForDbHostIdE
000000000005bb20 t _GLOBAL__sub_I__ZN7rocksdb10GetContextC2EPKNS_10ComparatorEPKNS_13MergeOperatorEPNS_6LoggerEPNS_10StatisticsENS0_8GetStateERKNS_5SliceEPNS_13PinnableSliceEPNSt7__cxx1112basic_stringIcSt11char_traitsIcESaIcEEEPbPNS_12MergeContextEbPmPNS_11SystemClockESR_PNS_22PinnedIteratorsManagerEPNS_12ReadCallbackESO_mPNS_11BlobFetcherE
000000000005bb60 t _GLOBAL__sub_I__ZN7rocksdb9CleanableC2Ev
000000000005bba0 t _GLOBAL__sub_I__ZN7rocksdb15MergingIterator25AddToMinHeapOrCheckStatusEPNS_19IteratorWrapperBaseINS_5SliceEEE
000000000005bbe0 t _GLOBAL__sub_I__ZN7rocksdb16MetaIndexBuilderC2Ev
000000000005bc20 t _ZNSt7__cxx1112basic_stringIcSt11char_traitsIcESaIcEEC2EPKcRKS3_.isra.32
000000000005bcd0 t _GLOBAL__sub_I__ZN7rocksdb21PersistentCacheHelper13InsertRawPageERKNS_22PersistentCacheOptionsERKNS_11BlockHandleEPKcm
000000000005bda0 t _GLOBAL__sub_I__ZN7rocksdb22kPlainTableMagicNumberE
000000000005bde0 t _ZNSt7__cxx1112basic_stringIcSt11char_traitsIcESaIcEEC2EPKcRKS3_.isra.74
000000000005be20 t _Z41__static_initialization_and_destruction_0ii.constprop.148
000000000005cc30 t _GLOBAL__sub_I__ZN7rocksdb17PlainTableFactoryC2ERKNS_17PlainTableOptionsE
000000000005cc40 t _GLOBAL__sub_I__ZN7rocksdb15PlainTableIndex15InitFromRawDataENS_5SliceE
000000000005cd30 t _GLOBAL__sub_I__ZN7rocksdb20PlainTableKeyEncoder9AppendKeyERKNS_5SliceEPNS_18WritableFileWriterEPmPcS6_
000000000005cd70 t _GLOBAL__sub_I__ZN7rocksdb16PlainTableReaderC2ERKNS_16ImmutableOptionsEOSt10unique_ptrINS_22RandomAccessFileReaderESt14default_deleteIS5_EERKNS_10EnvOptionsERKNS_21InternalKeyComparatorENS_12EncodingTypeEmPKNS_15TablePropertiesEPKNS_14SliceTransformE
000000000005cdb0 t _ZNSt7__cxx1112basic_stringIcSt11char_traitsIcESaIcEEC2EPKcRKS3_.isra.149
000000000005cdf0 t _GLOBAL__sub_I__ZN7rocksdb28ExternalSstFilePropertyNames8kVersionB5cxx11E
000000000005cf10 t _GLOBAL__sub_I__ZN7rocksdb12TableFactory16CreateFromStringERKNS_13ConfigOptionsERKNSt7__cxx1112basic_stringIcSt11char_traitsIcESaIcEEEPSt10shared_ptrIS0_E
000000000005cf50 t _ZNSt7__cxx1112basic_stringIcSt11char_traitsIcESaIcEEC2EPKcRKS3_.isra.49
000000000005cf80 t _GLOBAL__sub_I__ZN7rocksdb31TablePropertiesCollectorFactory7Context20kUnknownColumnFamilyE
000000000005d610 t _GLOBAL__sub_I__ZN7rocksdb19NewTwoLevelIteratorEPNS_21TwoLevelIteratorStateEPNS_20InternalIteratorBaseINS_10IndexValueEEE
000000000005d650 t _GLOBAL__sub_I__ZN7rocksdb25RandomTransactionInserterC2EPNS_8Random64ERKNS_12WriteOptionsERKNS_11ReadOptionsEmtmm
000000000005d690 t _ZNSt7__cxx1112basic_stringIcSt11char_traitsIcESaIcEEC2EPKcRKS3_.isra.106
000000000005d6c0 t _GLOBAL__sub_I__ZN7rocksdb11kTraceMagicB5cxx11E
000000000005d7c0 t _ZNSt7__cxx1112basic_stringIcSt11char_traitsIcESaIcEEC2EPKcRKS3_.isra.62
000000000005d7f0 t _GLOBAL__sub_I__ZN7rocksdb15kMicrosInSecondE
000000000005d8f0 t _ZNSt7__cxx1112basic_stringIcSt11char_traitsIcESaIcEEC2EPKcRKS3_.isra.40
000000000005d9a0 t _GLOBAL__sub_I__ZN7rocksdb13IOTraceWriterC2EPNS_11SystemClockERKNS_12TraceOptionsEOSt10unique_ptrINS_11TraceWriterESt14default_deleteIS7_EE
000000000005da70 t _ZNSt7__cxx1112basic_stringIcSt11char_traitsIcESaIcEEC2EPKcRKS3_.isra.40
000000000005dab0 t _GLOBAL__sub_I__ZN7rocksdb23GetRocksBuildPropertiesB5cxx11Ev
000000000005db50 t _GLOBAL__sub_I__ZN7rocksdb6crc32c20IsFastCrc32SupportedB5cxx11Ev
000000000005db90 t _GLOBAL__sub_I__ZN7rocksdb12DynamicBloomC2EPNS_9AllocatorEjjmPNS_6LoggerE
000000000005dbd0 t _GLOBAL__sub_I__ZN7rocksdb14kNullptrStringB5cxx11E
000000000005dc20 t _ZNSt7__cxx1112basic_stringIcSt11char_traitsIcESaIcEEC2EPKcRKS3_.isra.82
000000000005dc50 t _GLOBAL__sub_I__ZN7rocksdb14ThreadPoolImpl11PthreadCallEPKci
000000000005e1a0 t _ZNSt7__cxx1112basic_stringIcSt11char_traitsIcESaIcEE12_M_constructIPKcEEvT_S8_St20forward_iterator_tag.isra.144
000000000005e270 t _ZNSt7__cxx1112basic_stringIcSt11char_traitsIcESaIcEEC2EPKcRKS3_.isra.146
000000000005e2a0 t _GLOBAL__sub_I__ZN7rocksdb7blob_db6BlobDB4OpenERKNS_7OptionsERKNS0_13BlobDBOptionsERKNSt7__cxx1112basic_stringIcSt11char_traitsIcESaIcEEEPPS1_
000000000005e370 t _ZNSt7__cxx1112basic_stringIcSt11char_traitsIcESaIcEEC2EPKcRKS3_.isra.467
000000000005e3b0 t _GLOBAL__sub_I__ZNK7rocksdb7blob_db18BlobFileComparatorclERKSt10shared_ptrINS0_8BlobFileEES6_
000000000005e480 t _ZNSt7__cxx1112basic_stringIcSt11char_traitsIcESaIcEEC2EPKcRKS3_.isra.79
000000000005e4b0 t _GLOBAL__sub_I__ZN7rocksdb7blob_db10BlobDBImpl20DisableFileDeletionsEv
000000000005e580 t _ZNSt7__cxx1112basic_stringIcSt11char_traitsIcESaIcEEC2EPKcRKS3_.isra.82
000000000005e5b0 t _GLOBAL__sub_I__ZN7rocksdb7blob_db8BlobFileC2EPKNS0_10BlobDBImplERKNSt7__cxx1112basic_stringIcSt11char_traitsIcESaIcEEEmPNS_6LoggerE
000000000005e680 t _Z41__static_initialization_and_destruction_0ii.constprop.117
000000000005e970 t _GLOBAL__sub_I__ZN7rocksdb20StringAppendOperatorC2Ec
000000000005e980 t _Z41__static_initialization_and_destruction_0ii.constprop.119
000000000005ec70 t _GLOBAL__sub_I__ZN7rocksdb24StringAppendTESTOperatorC2Ec
000000000005ec80 t _ZNSt7__cxx1112basic_stringIcSt11char_traitsIcESaIcEEC2EPKcRKS3_.isra.124
000000000005ecb0 t _GLOBAL__sub_I__ZN7rocksdb19LoadOptionsFromFileERKNSt7__cxx1112basic_stringIcSt11char_traitsIcESaIcEEEPNS_3EnvEPNS_9DBOptionsEPSt6vectorINS_22ColumnFamilyDescriptorESaISD_EEbPSt10shared_ptrINS_5CacheEE
000000000005ee60 t _GLOBAL__sub_I__ZN7rocksdb11NewSimCacheESt10shared_ptrINS_5CacheEEmi
000000000005eea0 t _GLOBAL__sub_I__ZN7rocksdb15FileTraceReader11kBufferSizeE
000000000005eee0 t _ZNSt7__cxx1112basic_stringIcSt11char_traitsIcESaIcEE12_M_constructIPKcEEvT_S8_St20forward_iterator_tag.isra.159
000000000005efb0 t _ZNSt7__cxx1112basic_stringIcSt11char_traitsIcESaIcEEC2EPKcRKS3_.isra.161
000000000005efe0 t _GLOBAL__sub_I__ZN7rocksdb27OptimisticTransactionDBImpl16BeginTransactionERKNS_12WriteOptionsERKNS_28OptimisticTransactionOptionsEPNS_11TransactionE
000000000005f0b0 t _ZNSt7__cxx1112basic_stringIcSt11char_traitsIcESaIcEEC2EPKcRKS3_.isra.261
000000000005f0e0 t _GLOBAL__sub_I__ZN7rocksdb24PessimisticTransactionDBC2EPNS_2DBERKNS_20TransactionDBOptionsE
000000000005f1b0 t _ZNSt7__cxx1112basic_stringIcSt11char_traitsIcESaIcEEC2EPKcRKS3_.isra.51
000000000005f260 t _GLOBAL__sub_I__ZN7rocksdb28WritePreparedSnapshotCheckerC2EPNS_18WritePreparedTxnDBE
000000000005f360 t _ZNSt7__cxx1112basic_stringIcSt11char_traitsIcESaIcEEC2EPKcRKS3_.isra.299
000000000005f390 t _GLOBAL__sub_I__ZN7rocksdb18WritePreparedTxnDB10InitializeERKSt6vectorImSaImEERKS1_IPNS_18ColumnFamilyHandleESaIS7_EE
000000000005f460 t _ZNSt7__cxx1112basic_stringIcSt11char_traitsIcESaIcEE12_M_constructIPKcEEvT_S8_St20forward_iterator_tag.isra.190
000000000005f530 t _ZNSt7__cxx1112basic_stringIcSt11char_traitsIcESaIcEEC2EPKcRKS3_.isra.192
000000000005f560 t _GLOBAL__sub_I__ZN7rocksdb20WriteUnpreparedTxnDB28RollbackRecoveredTransactionEPKNS_6DBImpl20RecoveredTransactionE
000000000005f630 t _ZNSt7__cxx1112basic_stringIcSt11char_traitsIcESaIcEE12_M_constructIPKcEEvT_S8_St20forward_iterator_tag.isra.95
000000000005f6e0 t _ZNSt7__cxx1112basic_stringIcSt11char_traitsIcESaIcEEC2EPKcRKS3_.isra.97
000000000005f710 t _GLOBAL__sub_I__ZN7rocksdb19WriteBatchWithIndex3Rep19UpdateExistingEntryEPNS_18ColumnFamilyHandleERKNS_5SliceENS_9WriteTypeE
000000000005f7e0 t _ZNSt7__cxx1112basic_stringIcSt11char_traitsIcESaIcEEC2EPKcRKS3_.isra.82
000000000005f810 t _GLOBAL__sub_I__ZN7rocksdb17BaseDeltaIteratorC2EPNS_18ColumnFamilyHandleEPNS_8IteratorEPNS_16WBWIIteratorImplEPKNS_10ComparatorEPKNS_11ReadOptionsE
000000000005f8e0 t _ZNSt7__cxx1112basic_stringIcSt11char_traitsIcESaIcEEC2EPKcRKS3_.isra.65
000000000005f990 t _GLOBAL__sub_I__ZN7rocksdb23CacheReservationManagerC2ESt10shared_ptrINS_5CacheEEb
000000000005fa60 t _ZNSt7__cxx1112basic_stringIcSt11char_traitsIcESaIcEEC2EPKcRKS3_.isra.124
000000000005fa90 t _GLOBAL__sub_I__ZN7rocksdb18ArenaWrappedDBIter11GetPropertyENSt7__cxx1112basic_stringIcSt11char_traitsIcESaIcEEEPS6_
000000000005fb60 t _ZNSt7__cxx1112basic_stringIcSt11char_traitsIcESaIcEEC2EPKcRKS3_.isra.24
000000000005fc10 t _GLOBAL__sub_I__ZN7rocksdb11BlobFetcher9FetchBlobERKNS_5SliceES3_PNS_13PinnableSliceE
000000000005fce0 t _GLOBAL__sub_I__ZN7rocksdb13BlobFileCacheC2EPNS_5CacheEPKNS_16ImmutableOptionsEPKNS_11FileOptionsEjPNS_13HistogramImplERKSt10shared_ptrINS_8IOTracerEE
000000000005fd20 t _ZNSt7__cxx1112basic_stringIcSt11char_traitsIcESaIcEEC2EPKcRKS3_.isra.88
000000000005fd50 t _GLOBAL__sub_I__ZN7rocksdb14BlobFileReader6CreateERKNS_16ImmutableOptionsERKNS_11FileOptionsEjPNS_13HistogramImplEmRKSt10shared_ptrINS_8IOTracerEEPSt10unique_ptrIS0_St14default_deleteIS0_EE
000000000005fe20 t _GLOBAL__sub_I__ZN7rocksdb13BlobLogWriterC2EOSt10unique_ptrINS_18WritableFileWriterESt14default_deleteIS2_EEPNS_11SystemClockEPNS_10StatisticsEmbbm
000000000005fe60 t _ZNSt7__cxx1112basic_stringIcSt11char_traitsIcESaIcEEC2EPKcRKS3_.isra.185
000000000005fe90 t _GLOBAL__sub_I__ZN7rocksdb15NewTableBuilderERKNS_19TableBuilderOptionsEPNS_18WritableFileWriterE
00000000000604a0 t _GLOBAL__sub_I__ZN7rocksdb22ColumnFamilyHandleImplC2EPNS_16ColumnFamilyDataEPNS_6DBImplEPNS_17InstrumentedMutexE
0000000000060ab0 t _ZNSt7__cxx1112basic_stringIcSt11char_traitsIcESaIcEEC2EPKcRKS3_.isra.226
0000000000060af0 t _GLOBAL__sub_I__ZN7rocksdb17sstableKeyCompareEPKNS_10ComparatorERKNS_11InternalKeyES5_
0000000000060bd0 t _ZNSt7__cxx1112basic_stringIcSt11char_traitsIcESaIcEEC2EPKcRKS3_.isra.150
0000000000060c10 t _GLOBAL__sub_I__ZN7rocksdb18CompactionIteratorC2EPNS_20InternalIteratorBaseINS_5SliceEEEPKNS_10ComparatorEPNS_11MergeHelperEmPSt6vectorImSaImEEmPKNS_15SnapshotCheckerEPNS_3EnvEbbPNS_28CompactionRangeDelAggregatorEPNS_15BlobFileBuilderEbPKNS_10CompactionEPKNS_16CompactionFilterEPKSt6atomicIbEmPKST_IiESW_St10shared_ptrINS_6LoggerEEPKNSt7__cxx1112basic_stringIcSt11char_traitsIcESaIcEEE
0000000000060ce0 t _Z41__static_initialization_and_destruction_0ii.constprop.1070
0000000000063ef0 t _GLOBAL__sub_I__ZN7rocksdb25GetCompactionReasonStringENS_16CompactionReasonE
0000000000063f00 t _ZNSt7__cxx1112basic_stringIcSt11char_traitsIcESaIcEEC2EPKcRKS3_.isra.177
0000000000063f30 t _GLOBAL__sub_I__ZN7rocksdb21FindIntraL0CompactionERKSt6vectorIPNS_12FileMetaDataESaIS2_EEmmmPNS_20CompactionInputFilesEm
0000000000064000 t _ZNSt7__cxx1112basic_stringIcSt11char_traitsIcESaIcEEC2EPKcRKS3_.isra.111
00000000000640b0 t _GLOBAL__sub_I__ZNK7rocksdb20FIFOCompactionPicker15NeedsCompactionEPKNS_18VersionStorageInfoE
0000000000064180 t _ZNSt7__cxx1112basic_stringIcSt11char_traitsIcESaIcEEC2EPKcRKS3_.isra.89
0000000000064230 t _GLOBAL__sub_I__ZNK7rocksdb21LevelCompactionPicker15NeedsCompactionEPKNS_18VersionStorageInfoE
0000000000064300 t _ZNSt7__cxx1112basic_stringIcSt11char_traitsIcESaIcEE12_M_constructIPKcEEvT_S8_St20forward_iterator_tag.isra.150
00000000000643b0 t _ZNSt7__cxx1112basic_stringIcSt11char_traitsIcESaIcEEC2EPKcRKS3_.isra.152
00000000000643e0 t _GLOBAL__sub_I__ZNK7rocksdb25UniversalCompactionPicker15NeedsCompactionEPKNS_18VersionStorageInfoE
00000000000644b0 t _ZNSt7__cxx1112basic_stringIcSt11char_traitsIcESaIcEEC2EPKcRKS3_.isra.61
0000000000064560 t _GLOBAL__sub_I__ZN7rocksdb6DBImpl12GetLiveFilesERSt6vectorINSt7__cxx1112basic_stringIcSt11char_traitsIcESaIcEEESaIS7_EEPmb
0000000000064630 t _ZNSt7__cxx1112basic_stringIcSt11char_traitsIcESaIcEE12_M_constructIPKcEEvT_S8_St20forward_iterator_tag.isra.167
0000000000064700 t _ZNSt7__cxx1112basic_stringIcSt11char_traitsIcESaIcEEC2EPKcRKS3_.isra.169
0000000000064730 t _GLOBAL__sub_I__ZN7rocksdb15CompactedDBImplC2ERKNS_9DBOptionsERKNSt7__cxx1112basic_stringIcSt11char_traitsIcESaIcEEE
0000000000064800 t _GLOBAL__sub_I__ZN7rocksdb11FileIndexerC2EPKNS_10ComparatorE
0000000000064840 t _GLOBAL__sub_I__ZN7rocksdb15OutputValidator3AddERKNS_5SliceES3_
0000000000064880 t _GLOBAL__sub_I__ZN7rocksdb31UserKeyTablePropertiesCollector11InternalAddERKNS_5SliceES3_m
00000000000648c0 t _ZNSt7__cxx1112basic_stringIcSt11char_traitsIcESaIcEEC2EPKcRKS3_.isra.77
00000000000648f0 t _GLOBAL__sub_I__ZN7rocksdb26TransactionLogIteratorImplC2ERKNSt7__cxx1112basic_stringIcSt11char_traitsIcESaIcEEEPKNS_18ImmutableDBOptionsERKNS_22TransactionLogIterator11ReadOptionsERKNS_10EnvOptionsEmSt10unique_ptrISt6vectorISJ_INS_7LogFileESt14default_deleteISL_EESaISO_EESM_ISQ_EEPKNS_10VersionSetEbRKSt10shared_ptrINS_8IOTracerEE
00000000000649c0 t _ZNSt7__cxx1112basic_stringIcSt11char_traitsIcESaIcEEC2EPKcRKS3_.isra.283
00000000000649f0 t _GLOBAL__sub_I__ZN7rocksdb18NewestFirstBySeqNoEPNS_12FileMetaDataES1_
0000000000064ac0 t _ZNSt7__cxx1112basic_stringIcSt11char_traitsIcESaIcEEC2EPKcRKS3_.isra.298
0000000000064af0 t _GLOBAL__sub_I__ZN7rocksdb22VersionEditHandlerBase7IterateERNS_3log6ReaderEPNS_6StatusE
0000000000064bc0 t _ZNSt7__cxx1112basic_stringIcSt11char_traitsIcESaIcEEC2EPKcRKS3_.isra.107
0000000000064bf0 t _GLOBAL__sub_I__ZN7rocksdb22RandomAccessFileReader6CreateERKSt10shared_ptrINS_10FileSystemEERKNSt7__cxx1112basic_stringIcSt11char_traitsIcESaIcEEERKNS_11FileOptionsEPSt10unique_ptrIS0_St14default_deleteIS0_EEPNS_14IODebugContextE
0000000000064cc0 t _ZNSt7__cxx1112basic_stringIcSt11char_traitsIcESaIcEEC2EPKcRKS3_.isra.38
0000000000064d70 t _GLOBAL__sub_I__ZN7rocksdb23BinarySearchIndexReader6CreateEPKNS_15BlockBasedTableERKNS_11ReadOptionsEPNS_18FilePrefetchBufferEbbbPNS_23BlockCacheLookupContextEPSt10unique_ptrINS1_11IndexReaderESt14default_deleteISC_EE
0000000000064e40 t _GLOBAL__sub_I__ZN7rocksdb13DataBlockIter8NextImplEv
0000000000064e80 t _ZNSt7__cxx1112basic_stringIcSt11char_traitsIcESaIcEEC2EPKcRKS3_.isra.76
0000000000064eb0 t _GLOBAL__sub_I__ZN7rocksdb28BlockBasedFilterBlockBuilderC2EPKNS_14SliceTransformERKNS_22BlockBasedTableOptionsE
0000000000064f80 t _GLOBAL__sub_I__ZN7rocksdb13CompressBlockERKNS_5SliceERKNS_15CompressionInfoEPNS_15CompressionTypeEjbPNSt7__cxx1112basic_stringIcSt11char_traitsIcESaIcEEESE_SE_
00000000000650d0 t _ZNSt7__cxx1112basic_stringIcSt11char_traitsIcESaIcEEC2EPKcRKS3_.isra.84
0000000000065180 t _GLOBAL__sub_I__ZN7rocksdb23BlockBasedTableIterator4SeekERKNS_5SliceE
0000000000065250 t _GLOBAL__sub_I__ZN7rocksdb12BlockBuilderC2EibbNS_22BlockBasedTableOptions18DataBlockIndexTypeEd
0000000000065290 t _ZNSt7__cxx1112basic_stringIcSt11char_traitsIcESaIcEEC2EPKcRKS3_.isra.36
0000000000065340 t _GLOBAL__sub_I__ZN7rocksdb15BlockPrefetcher16PrefetchIfNeededEPKNS_15BlockBasedTable3RepERKNS_11BlockHandleEmb
0000000000065410 t _ZNSt7__cxx1112basic_stringIcSt11char_traitsIcESaIcEEC2EPKcRKS3_.isra.46
00000000000654c0 t _GLOBAL__sub_I_filter_block_reader_common.cc
0000000000065590 t _GLOBAL__sub_I__ZN7rocksdb12IndexBuilder18CreateIndexBuilderENS_22BlockBasedTableOptions9IndexTypeEPKNS_21InternalKeyComparatorEPKNS_25InternalKeySliceTransformEbRKS1_
00000000000655d0 t _ZNSt7__cxx1112basic_stringIcSt11char_traitsIcESaIcEEC2EPKcRKS3_.isra.66
0000000000065680 t _GLOBAL__sub_I__ZN7rocksdb24PartitionedIndexIterator4SeekERKNS_5SliceE
0000000000065750 t _ZNSt7__cxx1112basic_stringIcSt11char_traitsIcESaIcEEC2EPKcRKS3_.isra.133
0000000000065780 t _GLOBAL__sub_I__ZN7rocksdb24CuckooTablePropertyNames9kEmptyKeyB5cxx11E
0000000000065950 t _GLOBAL__sub_I__ZN7rocksdb17PlainTableBloomV1C2Ej
00000000000659f0 t _ZNSt7__cxx1112basic_stringIcSt11char_traitsIcESaIcEEC2EPKcRKS3_.isra.112
0000000000065a30 t _GLOBAL__sub_I__ZN7rocksdb7blob_db29BlobIndexCompactionFilterBaseD2Ev
0000000000065b00 t _GLOBAL__sub_I__ZN7rocksdb14NewLockManagerEPNS_24PessimisticTransactionDBERKNS_20TransactionDBOptionsE
0000000000065b40 t _ZNSt7__cxx1112basic_stringIcSt11char_traitsIcESaIcEE12_M_constructIPKcEEvT_S8_St20forward_iterator_tag.isra.267
0000000000065c10 t _ZNSt7__cxx1112basic_stringIcSt11char_traitsIcESaIcEEC2EPKcRKS3_.isra.269
0000000000065c40 t _GLOBAL__sub_I__ZN7rocksdb16PointLockManagerC2EPNS_24PessimisticTransactionDBERKNS_20TransactionDBOptionsE
0000000000065d10 t _ZNSt7__cxx1112basic_stringIcSt11char_traitsIcESaIcEE12_M_constructIPKcEEvT_S8_St20forward_iterator_tag.isra.86
0000000000065de0 t _ZNSt7__cxx1112basic_stringIcSt11char_traitsIcESaIcEEC2EPKcRKS3_.isra.88
0000000000065e10 t _GLOBAL__sub_I__ZN7rocksdb21OptimisticTransactionC2EPNS_23OptimisticTransactionDBERKNS_12WriteOptionsERKNS_28OptimisticTransactionOptionsE
0000000000065ee0 t _ZNSt7__cxx1112basic_stringIcSt11char_traitsIcESaIcEEC2EPKcRKS3_.isra.104
0000000000065f10 t _GLOBAL__sub_I__ZN7rocksdb22PessimisticTransaction15txn_id_counter_E
0000000000065fe0 t _ZNSt7__cxx1112basic_stringIcSt11char_traitsIcESaIcEE12_M_constructIPKcEEvT_S8_St20forward_iterator_tag.isra.96
00000000000660b0 t _ZNSt7__cxx1112basic_stringIcSt11char_traitsIcESaIcEEC2EPKcRKS3_.isra.98
00000000000660e0 t _GLOBAL__sub_I__ZN7rocksdb19TransactionBaseImplC2EPNS_2DBERKNS_12WriteOptionsERKNS_18LockTrackerFactoryE
00000000000661b0 t _ZNSt7__cxx1112basic_stringIcSt11char_traitsIcESaIcEE12_M_constructIPKcEEvT_S8_St20forward_iterator_tag.isra.32
0000000000066260 t _ZNSt7__cxx1112basic_stringIcSt11char_traitsIcESaIcEEC2EPKcRKS3_.isra.34
0000000000066290 t _GLOBAL__sub_I__ZN7rocksdb15TransactionUtil20CheckKeyForConflictsEPNS_6DBImplEPNS_18ColumnFamilyHandleERKNSt7__cxx1112basic_stringIcSt11char_traitsIcESaIcEEEmbPNS_12ReadCallbackEm
0000000000066360 t _ZNSt7__cxx1112basic_stringIcSt11char_traitsIcESaIcEEC2EPKcRKS3_.isra.149
0000000000066390 t _GLOBAL__sub_I__ZN7rocksdb16WritePreparedTxnC2EPNS_18WritePreparedTxnDBERKNS_12WriteOptionsERKNS_18TransactionOptionsE
0000000000066460 t _ZNSt7__cxx1112basic_stringIcSt11char_traitsIcESaIcEEC2EPKcRKS3_.isra.228
0000000000066490 t _GLOBAL__sub_I__ZN7rocksdb30WriteUnpreparedTxnReadCallback18IsVisibleFullCheckEm
0000000000066560 t _ZNSt7__cxx1112basic_stringIcSt11char_traitsIcESaIcEEC2EPKcRKS3_.isra.109
0000000000066590 t _GLOBAL__sub_I__ZN7rocksdb15BlobFileBuilderC2EPNS_10VersionSetEPNS_10FileSystemEPKNS_16ImmutableOptionsEPKNS_16MutableCFOptionsEPKNS_11FileOptionsEijRKNSt7__cxx1112basic_stringIcSt11char_traitsIcESaIcEEENS_3Env10IOPriorityENSM_17WriteLifeTimeHintERKSt10shared_ptrINS_8IOTracerEEPNS_26BlobFileCompletionCallbackEPSt6vectorISJ_SaISJ_EEPSW_INS_16BlobFileAdditionESaIS10_EE
0000000000066660 t _GLOBAL__sub_I__ZN7rocksdb16BlobGarbageMeter13ProcessInFlowERKNS_5SliceES3_
00000000000666a0 T _start
00000000000667b0 t _ZL15ValidateKeySizePKci
00000000000667c0 t _ZZN7rocksdb12_GLOBAL__N_115ReportFileOpEnv17NewSequentialFileERKNSt7__cxx1112basic_stringIcSt11char_traitsIcESaIcEEEPSt10unique_ptrINS_14SequentialFileESt14default_deleteISB_EERKNS_10EnvOptionsEEN12CountingFile4SkipEm
0000000000066810 t _ZZN7rocksdb12_GLOBAL__N_115ReportFileOpEnv15NewWritableFileERKNSt7__cxx1112basic_stringIcSt11char_traitsIcESaIcEEEPSt10unique_ptrINS_12WritableFileESt14default_deleteISB_EERKNS_10EnvOptionsEEN12CountingFile8TruncateEm
0000000000066860 t _ZN7rocksdb12_GLOBAL__N_115ReportFileOpEnv17NewSequentialFileERKNSt7__cxx1112basic_stringIcSt11char_traitsIcESaIcEEEPSt10unique_ptrINS_14SequentialFileESt14default_deleteISB_EERKNS_10EnvOptionsE
0000000000066910 t _ZN7rocksdb12_GLOBAL__N_115ReportFileOpEnv19NewRandomAccessFileERKNSt7__cxx1112basic_stringIcSt11char_traitsIcESaIcEEEPSt10unique_ptrINS_16RandomAccessFileESt14default_deleteISB_EERKNS_10EnvOptionsE
00000000000669c0 t _ZN7rocksdb12_GLOBAL__N_115ReportFileOpEnv15NewWritableFileERKNSt7__cxx1112basic_stringIcSt11char_traitsIcESaIcEEEPSt10unique_ptrINS_12WritableFileESt14default_deleteISB_EERKNS_10EnvOptionsE
0000000000066a90 t _ZN7rocksdb12_GLOBAL__N_115ReportFileOpEnvD2Ev
0000000000066aa0 t _ZN7rocksdb12_GLOBAL__N_115ReportFileOpEnvD0Ev
0000000000066ad0 t _ZZN7rocksdb12_GLOBAL__N_115ReportFileOpEnv17NewSequentialFileERKNSt7__cxx1112basic_stringIcSt11char_traitsIcESaIcEEEPSt10unique_ptrINS_14SequentialFileESt14default_deleteISB_EERKNS_10EnvOptionsEEN12CountingFile4ReadEmPNS_5SliceEPc
0000000000066b40 t _ZZN7rocksdb12_GLOBAL__N_115ReportFileOpEnv19NewRandomAccessFileERKNSt7__cxx1112basic_stringIcSt11char_traitsIcESaIcEEEPSt10unique_ptrINS_16RandomAccessFileESt14default_deleteISB_EERKNS_10EnvOptionsEENK12CountingFile4ReadEmmPNS_5SliceEPc
0000000000066bb0 t _ZZN7rocksdb12_GLOBAL__N_115ReportFileOpEnv15NewWritableFileERKNSt7__cxx1112basic_stringIcSt11char_traitsIcESaIcEEEPSt10unique_ptrINS_12WritableFileESt14default_deleteISB_EERKNS_10EnvOptionsEEN12CountingFile6AppendERKNS_5SliceE
0000000000066c20 t _ZN7rocksdb12_GLOBAL__N_115ReportFileOpEnv5resetEv
0000000000066c70 t _ZL19ValidateUint32RangePKcm
0000000000066cb0 t _ZL25ValidateCacheNumshardbitsPKci
0000000000066cf0 t _ZL20ValidateInt32PercentPKci
0000000000066d30 t _ZL30ValidateTableCacheNumshardbitsPKci
0000000000066d70 t _ZL17ValidateRateLimitPKcd
0000000000066db0 t _ZL18ValidatePrefixSizePKci
0000000000066df0 t _ZL23StringToCompressionTypePKc
0000000000066f00 t _ZN7rocksdb12_GLOBAL__N_115ReportFileOpEnv10RenameFileERKNSt7__cxx1112basic_stringIcSt11char_traitsIcESaIcEEES9_
0000000000066f60 t _ZN7rocksdb12_GLOBAL__N_115ReportFileOpEnv10DeleteFileERKNSt7__cxx1112basic_stringIcSt11char_traitsIcESaIcEEE
0000000000066fc0 t _ZNKSt14default_deleteISt6threadEclEPS0_.isra.158
0000000000066fe0 t _ZZN7rocksdb12_GLOBAL__N_115ReportFileOpEnv17NewSequentialFileERKNSt7__cxx1112basic_stringIcSt11char_traitsIcESaIcEEEPSt10unique_ptrINS_14SequentialFileESt14default_deleteISB_EERKNS_10EnvOptionsEEN12CountingFileD2Ev
0000000000067020 t _ZZN7rocksdb12_GLOBAL__N_115ReportFileOpEnv19NewRandomAccessFileERKNSt7__cxx1112basic_stringIcSt11char_traitsIcESaIcEEEPSt10unique_ptrINS_16RandomAccessFileESt14default_deleteISB_EERKNS_10EnvOptionsEEN12CountingFileD2Ev
0000000000067060 t _ZZN7rocksdb12_GLOBAL__N_115ReportFileOpEnv15NewWritableFileERKNSt7__cxx1112basic_stringIcSt11char_traitsIcESaIcEEEPSt10unique_ptrINS_12WritableFileESt14default_deleteISB_EERKNS_10EnvOptionsEEN12CountingFile5FsyncEv
00000000000670c0 t _ZZN7rocksdb12_GLOBAL__N_115ReportFileOpEnv15NewWritableFileERKNSt7__cxx1112basic_stringIcSt11char_traitsIcESaIcEEEPSt10unique_ptrINS_12WritableFileESt14default_deleteISB_EERKNS_10EnvOptionsEEN12CountingFile4SyncEv
0000000000067120 t _ZZN7rocksdb12_GLOBAL__N_115ReportFileOpEnv15NewWritableFileERKNSt7__cxx1112basic_stringIcSt11char_traitsIcESaIcEEEPSt10unique_ptrINS_12WritableFileESt14default_deleteISB_EERKNS_10EnvOptionsEEN12CountingFile5FlushEv
0000000000067180 t _ZZN7rocksdb12_GLOBAL__N_115ReportFileOpEnv15NewWritableFileERKNSt7__cxx1112basic_stringIcSt11char_traitsIcESaIcEEEPSt10unique_ptrINS_12WritableFileESt14default_deleteISB_EERKNS_10EnvOptionsEEN12CountingFile5CloseEv
00000000000671e0 t _ZN7rocksdb9Benchmark11AllocateKeyEPSt10unique_ptrIA_KcSt14default_deleteIS3_EE.isra.388
0000000000067220 t _ZNSt8__detail16_Hashtable_allocISaINS_10_Hash_nodeISt4pairIKNSt7__cxx1112basic_stringIcSt11char_traitsIcESaIcEEES8_ELb1EEEEE19_M_allocate_bucketsEm.isra.888
0000000000067270 t _ZNSt7__cxx1112basic_stringIcSt11char_traitsIcESaIcEE12_M_constructIPKcEEvT_S8_St20forward_iterator_tag.isra.629
0000000000067340 t _ZNSt7__cxx1112basic_stringIcSt11char_traitsIcESaIcEEC2EPKcRKS3_.isra.631
0000000000067390 t _ZZN7rocksdb12_GLOBAL__N_115ReportFileOpEnv19NewRandomAccessFileERKNSt7__cxx1112basic_stringIcSt11char_traitsIcESaIcEEEPSt10unique_ptrINS_16RandomAccessFileESt14default_deleteISB_EERKNS_10EnvOptionsEEN12CountingFileD0Ev
00000000000673d0 t _ZZN7rocksdb12_GLOBAL__N_115ReportFileOpEnv17NewSequentialFileERKNSt7__cxx1112basic_stringIcSt11char_traitsIcESaIcEEEPSt10unique_ptrINS_14SequentialFileESt14default_deleteISB_EERKNS_10EnvOptionsEEN12CountingFileD0Ev
0000000000067410 t _ZZN7rocksdb12_GLOBAL__N_115ReportFileOpEnv15NewWritableFileERKNSt7__cxx1112basic_stringIcSt11char_traitsIcESaIcEEEPSt10unique_ptrINS_12WritableFileESt14default_deleteISB_EERKNS_10EnvOptionsEEN12CountingFileD0Ev
0000000000067450 t _ZZN7rocksdb12_GLOBAL__N_115ReportFileOpEnv15NewWritableFileERKNSt7__cxx1112basic_stringIcSt11char_traitsIcESaIcEEEPSt10unique_ptrINS_12WritableFileESt14default_deleteISB_EERKNS_10EnvOptionsEEN12CountingFileD2Ev
0000000000067490 t _ZZN7rocksdb12_GLOBAL__N_115ReportFileOpEnv15NewWritableFileERKNSt7__cxx1112basic_stringIcSt11char_traitsIcESaIcEEEPSt10unique_ptrINS_12WritableFileESt14default_deleteISB_EERKNS_10EnvOptionsEEN12CountingFile6AppendERKNS_5SliceERKNS_20DataVerificationInfoE
0000000000067500 t _ZN7rocksdbL15AppendWithSpaceEPNSt7__cxx1112basic_stringIcSt11char_traitsIcESaIcEEENS_5SliceE
00000000000675d0 t _ZL16ColumnFamilyNamem
00000000000676b0 t _ZNSt8__detail16_Hashtable_allocISaINS_10_Hash_nodeISt4pairIKN7rocksdb13OperationTypeESt10shared_ptrINS3_13HistogramImplEEELb0EEEEE18_M_deallocate_nodeEPSA_.isra.744
0000000000067730 T _ZN7rocksdb13db_bench_toolEiPPc
00000000000684e0 w _ZNK7rocksdb12Customizable5InnerEv
00000000000684f0 w _ZNK7rocksdb12Customizable8NickNameEv
0000000000068500 w _ZN7rocksdb13EventListener16OnFlushCompletedEPNS_2DBERKNS_12FlushJobInfoE
0000000000068510 w _ZN7rocksdb13EventListener12OnFlushBeginEPNS_2DBERKNS_12FlushJobInfoE
0000000000068520 w _ZN7rocksdb13EventListener18OnTableFileDeletedERKNS_21TableFileDeletionInfoE
0000000000068530 w _ZN7rocksdb13EventListener17OnCompactionBeginEPNS_2DBERKNS_17CompactionJobInfoE
0000000000068540 w _ZN7rocksdb13EventListener21OnCompactionCompletedEPNS_2DBERKNS_17CompactionJobInfoE
0000000000068550 w _ZN7rocksdb13EventListener18OnTableFileCreatedERKNS_21TableFileCreationInfoE
0000000000068560 w _ZN7rocksdb13EventListener26OnTableFileCreationStartedERKNS_26TableFileCreationBriefInfoE
0000000000068570 w _ZN7rocksdb13EventListener16OnMemTableSealedERKNS_12MemTableInfoE
0000000000068580 w _ZN7rocksdb13EventListener35OnColumnFamilyHandleDeletionStartedEPNS_18ColumnFamilyHandleE
0000000000068590 w _ZN7rocksdb13EventListener22OnExternalFileIngestedEPNS_2DBERKNS_25ExternalFileIngestionInfoE
00000000000685a0 w _ZN7rocksdb13EventListener17OnBackgroundErrorENS_21BackgroundErrorReasonEPNS_6StatusE
00000000000685b0 w _ZN7rocksdb13EventListener24OnStallConditionsChangedERKNS_14WriteStallInfoE
00000000000685c0 w _ZN7rocksdb13EventListener16OnFileReadFinishERKNS_17FileOperationInfoE
00000000000685d0 w _ZN7rocksdb13EventListener17OnFileWriteFinishERKNS_17FileOperationInfoE
00000000000685e0 w _ZN7rocksdb13EventListener17OnFileFlushFinishERKNS_17FileOperationInfoE
00000000000685f0 w _ZN7rocksdb13EventListener16OnFileSyncFinishERKNS_17FileOperationInfoE
0000000000068600 w _ZN7rocksdb13EventListener21OnFileRangeSyncFinishERKNS_17FileOperationInfoE
0000000000068610 w _ZN7rocksdb13EventListener20OnFileTruncateFinishERKNS_17FileOperationInfoE
0000000000068620 w _ZN7rocksdb13EventListener17OnFileCloseFinishERKNS_17FileOperationInfoE
0000000000068630 w _ZN7rocksdb13EventListener24ShouldBeNotifiedOnFileIOEv
0000000000068640 w _ZNK7rocksdb14SequentialFile13use_direct_ioEv
0000000000068650 w _ZNK7rocksdb14SequentialFile26GetRequiredBufferAlignmentEv
0000000000068660 w _ZN7rocksdb16RandomAccessFile8PrefetchEmm
0000000000068680 w _ZNK7rocksdb16RandomAccessFile11GetUniqueIdEPcm
0000000000068690 w _ZN7rocksdb16RandomAccessFile4HintENS0_13AccessPatternE
00000000000686a0 w _ZNK7rocksdb16RandomAccessFile13use_direct_ioEv
00000000000686b0 w _ZNK7rocksdb16RandomAccessFile26GetRequiredBufferAlignmentEv
00000000000686c0 w _ZNK7rocksdb12WritableFile16IsSyncThreadSafeEv
00000000000686d0 w _ZNK7rocksdb12WritableFile13use_direct_ioEv
00000000000686e0 w _ZNK7rocksdb12WritableFile26GetRequiredBufferAlignmentEv
00000000000686f0 w _ZN7rocksdb12WritableFile13SetIOPriorityENS_3Env10IOPriorityE
0000000000068700 w _ZN7rocksdb12WritableFile13GetIOPriorityEv
0000000000068710 w _ZN7rocksdb12WritableFile20SetWriteLifeTimeHintENS_3Env17WriteLifeTimeHintE
0000000000068720 w _ZN7rocksdb12WritableFile20GetWriteLifeTimeHintEv
0000000000068730 w _ZN7rocksdb12WritableFile11GetFileSizeEv
0000000000068740 w _ZN7rocksdb12WritableFile25SetPreallocationBlockSizeEm
0000000000068750 w _ZN7rocksdb12WritableFile22GetPreallocationStatusEPmS1_
0000000000068760 w _ZNK7rocksdb12WritableFile11GetUniqueIdEPcm
0000000000068770 w _ZN7rocksdb12WritableFile9RangeSyncEmm
00000000000687d0 w _ZN7rocksdb12WritableFile8AllocateEmm
00000000000687f0 w _ZN7rocksdb6Logger9LogHeaderEPKcP13__va_list_tag
0000000000068810 w _ZNK7rocksdb6Logger14GetLogFileSizeEv
0000000000068820 w _ZN7rocksdb6Logger5FlushEv
0000000000068830 w _ZNK7rocksdb6Logger15GetInfoLogLevelEv
0000000000068840 w _ZN7rocksdb6Logger15SetInfoLogLevelENS_12InfoLogLevelE
0000000000068850 w _ZN7rocksdb10EnvWrapper15RegisterDbPathsERKSt6vectorINSt7__cxx1112basic_stringIcSt11char_traitsIcESaIcEEESaIS7_EE
00000000000688a0 w _ZN7rocksdb10EnvWrapper17UnregisterDbPathsERKSt6vectorINSt7__cxx1112basic_stringIcSt11char_traitsIcESaIcEEESaIS7_EE
00000000000688f0 w _ZN7rocksdb10EnvWrapper18ReopenWritableFileERKNSt7__cxx1112basic_stringIcSt11char_traitsIcESaIcEEEPSt10unique_ptrINS_12WritableFileESt14default_deleteISA_EERKNS_10EnvOptionsE
0000000000068940 w _ZN7rocksdb10EnvWrapper17ReuseWritableFileERKNSt7__cxx1112basic_stringIcSt11char_traitsIcESaIcEEES8_PSt10unique_ptrINS_12WritableFileESt14default_deleteISA_EERKNS_10EnvOptionsE
0000000000068990 w _ZN7rocksdb10EnvWrapper15NewRandomRWFileERKNSt7__cxx1112basic_stringIcSt11char_traitsIcESaIcEEEPSt10unique_ptrINS_12RandomRWFileESt14default_deleteISA_EERKNS_10EnvOptionsE
00000000000689e0 w _ZN7rocksdb10EnvWrapper25NewMemoryMappedFileBufferERKNSt7__cxx1112basic_stringIcSt11char_traitsIcESaIcEEEPSt10unique_ptrINS_22MemoryMappedFileBufferESt14default_deleteISA_EE
0000000000068a30 w _ZN7rocksdb10EnvWrapper12NewDirectoryERKNSt7__cxx1112basic_stringIcSt11char_traitsIcESaIcEEEPSt10unique_ptrINS_9DirectoryESt14default_deleteISA_EE
0000000000068a80 w _ZN7rocksdb10EnvWrapper10FileExistsERKNSt7__cxx1112basic_stringIcSt11char_traitsIcESaIcEEE
0000000000068ad0 w _ZN7rocksdb10EnvWrapper11GetChildrenERKNSt7__cxx1112basic_stringIcSt11char_traitsIcESaIcEEEPSt6vectorIS6_SaIS6_EE
0000000000068b20 w _ZN7rocksdb10EnvWrapper25GetChildrenFileAttributesERKNSt7__cxx1112basic_stringIcSt11char_traitsIcESaIcEEEPSt6vectorINS_3Env14FileAttributesESaISB_EE
0000000000068b70 w _ZN7rocksdb10EnvWrapper8TruncateERKNSt7__cxx1112basic_stringIcSt11char_traitsIcESaIcEEEm
0000000000068bc0 w _ZN7rocksdb10EnvWrapper9CreateDirERKNSt7__cxx1112basic_stringIcSt11char_traitsIcESaIcEEE
0000000000068c10 w _ZN7rocksdb10EnvWrapper18CreateDirIfMissingERKNSt7__cxx1112basic_stringIcSt11char_traitsIcESaIcEEE
0000000000068c60 w _ZN7rocksdb10EnvWrapper9DeleteDirERKNSt7__cxx1112basic_stringIcSt11char_traitsIcESaIcEEE
0000000000068cb0 w _ZN7rocksdb10EnvWrapper11GetFileSizeERKNSt7__cxx1112basic_stringIcSt11char_traitsIcESaIcEEEPm
0000000000068d00 w _ZN7rocksdb10EnvWrapper23GetFileModificationTimeERKNSt7__cxx1112basic_stringIcSt11char_traitsIcESaIcEEEPm
0000000000068d50 w _ZN7rocksdb10EnvWrapper8LinkFileERKNSt7__cxx1112basic_stringIcSt11char_traitsIcESaIcEEES8_
0000000000068da0 w _ZN7rocksdb10EnvWrapper12NumFileLinksERKNSt7__cxx1112basic_stringIcSt11char_traitsIcESaIcEEEPm
0000000000068df0 w _ZN7rocksdb10EnvWrapper12AreFilesSameERKNSt7__cxx1112basic_stringIcSt11char_traitsIcESaIcEEES8_Pb
0000000000068e40 w _ZN7rocksdb10EnvWrapper8LockFileERKNSt7__cxx1112basic_stringIcSt11char_traitsIcESaIcEEEPPNS_8FileLockE
0000000000068e90 w _ZN7rocksdb10EnvWrapper10UnlockFileEPNS_8FileLockE
0000000000068ee0 w _ZN7rocksdb10EnvWrapper11IsDirectoryERKNSt7__cxx1112basic_stringIcSt11char_traitsIcESaIcEEEPb
0000000000068f30 w _ZN7rocksdb10EnvWrapper11LoadLibraryERKNSt7__cxx1112basic_stringIcSt11char_traitsIcESaIcEEES8_PSt10shared_ptrINS_14DynamicLibraryEE
0000000000068f80 w _ZN7rocksdb10EnvWrapper8ScheduleEPFvPvES1_NS_3Env8PriorityES1_S3_
0000000000068f90 w _ZN7rocksdb10EnvWrapper10UnScheduleEPvNS_3Env8PriorityE
0000000000068fa0 w _ZN7rocksdb10EnvWrapper11StartThreadEPFvPvES1_
0000000000068fb0 w _ZN7rocksdb10EnvWrapper11WaitForJoinEv
0000000000068fc0 w _ZNK7rocksdb10EnvWrapper21GetThreadPoolQueueLenENS_3Env8PriorityE
0000000000068fd0 w _ZN7rocksdb10EnvWrapper16GetTestDirectoryEPNSt7__cxx1112basic_stringIcSt11char_traitsIcESaIcEEE
0000000000069020 w _ZN7rocksdb10EnvWrapper9NewLoggerERKNSt7__cxx1112basic_stringIcSt11char_traitsIcESaIcEEEPSt10shared_ptrINS_6LoggerEE
0000000000069070 w _ZN7rocksdb10EnvWrapper9NowMicrosEv
0000000000069080 w _ZN7rocksdb10EnvWrapper8NowNanosEv
0000000000069090 w _ZN7rocksdb10EnvWrapper11NowCPUNanosEv
00000000000690a0 w _ZN7rocksdb10EnvWrapper20SleepForMicrosecondsEi
00000000000690b0 w _ZN7rocksdb10EnvWrapper11GetHostNameEPcm
0000000000069100 w _ZN7rocksdb10EnvWrapper14GetCurrentTimeEPl
0000000000069150 w _ZN7rocksdb10EnvWrapper15GetAbsolutePathERKNSt7__cxx1112basic_stringIcSt11char_traitsIcESaIcEEEPS6_
00000000000691a0 w _ZN7rocksdb10EnvWrapper20SetBackgroundThreadsEiNS_3Env8PriorityE
00000000000691b0 w _ZN7rocksdb10EnvWrapper20GetBackgroundThreadsENS_3Env8PriorityE
00000000000691c0 w _ZN7rocksdb10EnvWrapper22SetAllowNonOwnerAccessEb
0000000000069210 w _ZN7rocksdb10EnvWrapper28IncBackgroundThreadsIfNeededEiNS_3Env8PriorityE
0000000000069220 w _ZN7rocksdb10EnvWrapper25LowerThreadPoolIOPriorityENS_3Env8PriorityE
0000000000069230 w _ZN7rocksdb10EnvWrapper26LowerThreadPoolCPUPriorityENS_3Env8PriorityE
0000000000069240 w _ZN7rocksdb10EnvWrapper26LowerThreadPoolCPUPriorityENS_3Env8PriorityENS_11CpuPriorityE
0000000000069290 w _ZN7rocksdb10EnvWrapper12TimeToStringB5cxx11Em
00000000000692e0 w _ZN7rocksdb10EnvWrapper13GetThreadListEPSt6vectorINS_12ThreadStatusESaIS2_EE
0000000000069330 w _ZNK7rocksdb10EnvWrapper22GetThreadStatusUpdaterEv
0000000000069340 w _ZNK7rocksdb10EnvWrapper11GetThreadIDEv
0000000000069350 w _ZN7rocksdb10EnvWrapper16GenerateUniqueIdB5cxx11Ev
00000000000693a0 w _ZNK7rocksdb10EnvWrapper18OptimizeForLogReadERKNS_10EnvOptionsE
00000000000693f0 w _ZNK7rocksdb10EnvWrapper23OptimizeForManifestReadERKNS_10EnvOptionsE
0000000000069440 w _ZNK7rocksdb10EnvWrapper19OptimizeForLogWriteERKNS_10EnvOptionsERKNS_9DBOptionsE
0000000000069490 w _ZNK7rocksdb10EnvWrapper24OptimizeForManifestWriteERKNS_10EnvOptionsE
00000000000694e0 w _ZNK7rocksdb10EnvWrapper31OptimizeForCompactionTableWriteERKNS_10EnvOptionsERKNS_18ImmutableDBOptionsE
0000000000069530 w _ZNK7rocksdb10EnvWrapper30OptimizeForCompactionTableReadERKNS_10EnvOptionsERKNS_18ImmutableDBOptionsE
0000000000069580 w _ZNK7rocksdb10EnvWrapper23OptimizeForBlobFileReadERKNS_10EnvOptionsERKNS_18ImmutableDBOptionsE
00000000000695d0 w _ZN7rocksdb10EnvWrapper12GetFreeSpaceERKNSt7__cxx1112basic_stringIcSt11char_traitsIcESaIcEEEPm
0000000000069620 w _ZNK7rocksdb10EnvWrapper18SanitizeEnvOptionsEPNS_10EnvOptionsE
0000000000069630 w _ZN7rocksdb5Cache10DisownDataEv
0000000000069640 w _ZN7rocksdb2DB3PutERKNS_12WriteOptionsERKNS_5SliceES6_
00000000000696c0 w _ZN7rocksdb2DB6DeleteERKNS_12WriteOptionsERKNS_5SliceE
0000000000069740 w _ZN7rocksdb2DB12SingleDeleteERKNS_12WriteOptionsERKNS_5SliceE
00000000000697c0 w _ZN7rocksdb2DB5MergeERKNS_12WriteOptionsERKNS_5SliceES6_
0000000000069850 w _ZN7rocksdb2DB11NewIteratorERKNS_11ReadOptionsE
0000000000069890 w _ZN7rocksdb2DB11GetPropertyERKNS_5SliceEPNSt7__cxx1112basic_stringIcSt11char_traitsIcESaIcEEE
00000000000698d0 w _ZN7rocksdb2DB14GetIntPropertyERKNS_5SliceEPm
0000000000069910 w _ZN7rocksdb2DB19GetApproximateSizesEPNS_18ColumnFamilyHandleEPKNS_5RangeEiPmh
0000000000069990 w _ZN7rocksdb2DB12CompactRangeERKNS_19CompactRangeOptionsEPKNS_5SliceES6_
0000000000069a20 w _ZN7rocksdb2DB10SetOptionsERKSt13unordered_mapINSt7__cxx1112basic_stringIcSt11char_traitsIcESaIcEEES7_St4hashIS7_ESt8equal_toIS7_ESaISt4pairIKS7_S7_EEE
0000000000069a90 w _ZN7rocksdb2DB12CompactFilesERKNS_17CompactionOptionsERKSt6vectorINSt7__cxx1112basic_stringIcSt11char_traitsIcESaIcEEESaISA_EEiiPSC_PNS_17CompactionJobInfoE
0000000000069b40 w _ZNK7rocksdb2DB10GetOptionsEv
0000000000069bb0 w _ZN7rocksdb2DB5FlushERKNS_12FlushOptionsE
0000000000069c20 w _ZN7rocksdb13HistogramImplD2Ev
0000000000069c30 w _ZN7rocksdb18SystemClockWrapper9NowMicrosEv
0000000000069c40 w _ZNKSt5ctypeIcE8do_widenEc
0000000000069c50 w _ZNK7rocksdb16CompactionFilter18FilterMergeOperandEiRKNS_5SliceES3_
0000000000069c60 w _ZNK7rocksdb16CompactionFilter17PrepareBlobOutputERKNS_5SliceES3_PNSt7__cxx1112basic_stringIcSt11char_traitsIcESaIcEEE
0000000000069c70 w _ZNK7rocksdb16CompactionFilter15IgnoreSnapshotsEv
0000000000069c80 w _ZNK7rocksdb16CompactionFilter39IsStackedBlobDbInternalCompactionFilterEv
0000000000069c90 w _ZNK7rocksdb16CompactionFilter15FilterBlobByKeyEiRKNS_5SliceEPNSt7__cxx1112basic_stringIcSt11char_traitsIcESaIcEEESA_
0000000000069ca0 w _ZN7rocksdb11StackableDB9GetBaseDBEv
0000000000069cb0 w _ZN7rocksdb16BaseDistribution12NeedTruncateEv
0000000000069cc0 w _ZN7rocksdb17FixedDistribution3GetEv
0000000000069cd0 w _ZN7rocksdb17FixedDistribution12NeedTruncateEv
0000000000069ce0 w _ZN7rocksdb19UniformDistribution12NeedTruncateEv
0000000000069cf0 w _ZNK7rocksdb9Benchmark20ErrorHandlerListener4NameEv
0000000000069d00 w _ZN7rocksdb9Benchmark20ErrorHandlerListener20OnErrorRecoveryBeginENS_21BackgroundErrorReasonENS_6StatusEPb
0000000000069d20 w _ZNK7rocksdb9Benchmark17ExpiredTimeFilter4NameEv
0000000000069d30 w _ZNK7rocksdb9Benchmark10KeepFilter6FilterEiRKNS_5SliceES4_PNSt7__cxx1112basic_stringIcSt11char_traitsIcESaIcEEEPb
0000000000069d40 w _ZNK7rocksdb9Benchmark10KeepFilter4NameEv
0000000000069d50 w _ZNSt15_Sp_counted_ptrIPN7rocksdb10StatisticsELN9__gnu_cxx12_Lock_policyE2EED2Ev
0000000000069d60 w _ZNSt15_Sp_counted_ptrIPKN7rocksdb12FilterPolicyELN9__gnu_cxx12_Lock_policyE2EED1Ev
0000000000069d70 w _ZNSt15_Sp_counted_ptrIPN7rocksdb12TableFactoryELN9__gnu_cxx12_Lock_policyE2EED2Ev
0000000000069d80 w _ZNSt15_Sp_counted_ptrIPN7rocksdb16VectorRepFactoryELN9__gnu_cxx12_Lock_policyE2EED2Ev
0000000000069d90 w _ZNSt15_Sp_counted_ptrIPN7rocksdb18MemTableRepFactoryELN9__gnu_cxx12_Lock_policyE2EED1Ev
0000000000069da0 w _ZNSt15_Sp_counted_ptrIPN7rocksdb12StderrLoggerELN9__gnu_cxx12_Lock_policyE2EED2Ev
0000000000069db0 w _ZNSt15_Sp_counted_ptrIPKN7rocksdb14SliceTransformELN9__gnu_cxx12_Lock_policyE2EED2Ev
0000000000069dc0 w _ZNSt15_Sp_counted_ptrIPN7rocksdb18WriteBufferManagerELN9__gnu_cxx12_Lock_policyE2EED1Ev
0000000000069dd0 w _ZNSt15_Sp_counted_ptrIPN7rocksdb11RateLimiterELN9__gnu_cxx12_Lock_policyE2EED2Ev
0000000000069de0 w _ZNSt15_Sp_counted_ptrIPN7rocksdb17TimestampEmulatorELN9__gnu_cxx12_Lock_policyE2EED2Ev
0000000000069df0 w _ZNSt15_Sp_counted_ptrIPN7rocksdb9Benchmark20ErrorHandlerListenerELN9__gnu_cxx12_Lock_policyE2EED1Ev
0000000000069e00 w _ZNSt15_Sp_counted_ptrIPN7rocksdb15SkipListFactoryELN9__gnu_cxx12_Lock_policyE2EED2Ev
0000000000069e10 w _ZN7rocksdb17FixedDistributionD1Ev
0000000000069e20 w _ZNSt19_Sp_counted_deleterIPN7rocksdb25SimulatedHybridFileSystemENSt12__shared_ptrIS1_LN9__gnu_cxx12_Lock_policyE2EE8_DeleterISaIS1_EEES8_LS5_2EED1Ev
0000000000069e30 w _ZNSt19_Sp_counted_deleterIPN7rocksdb25SimulatedHybridFileSystemENSt12__shared_ptrIS1_LN9__gnu_cxx12_Lock_policyE2EE8_DeleterISaIS1_EEES8_LS5_2EE14_M_get_deleterERKSt9type_info
0000000000069e40 w _ZNSt15_Sp_counted_ptrIPN7rocksdb10StatisticsELN9__gnu_cxx12_Lock_policyE2EE10_M_disposeEv
0000000000069e60 w _ZNSt15_Sp_counted_ptrIPN7rocksdb10StatisticsELN9__gnu_cxx12_Lock_policyE2EE14_M_get_deleterERKSt9type_info
0000000000069e70 w _ZNSt19_Sp_counted_deleterIPN7rocksdb14BlockCacheTierENSt12__shared_ptrIS1_LN9__gnu_cxx12_Lock_policyE2EE8_DeleterISaIS1_EEES8_LS5_2EED2Ev
0000000000069e80 w _ZNSt19_Sp_counted_deleterIPN7rocksdb14BlockCacheTierENSt12__shared_ptrIS1_LN9__gnu_cxx12_Lock_policyE2EE8_DeleterISaIS1_EEES8_LS5_2EE14_M_get_deleterERKSt9type_info
0000000000069e90 w _ZNSt19_Sp_counted_deleterIPN7rocksdb13HistogramImplENSt12__shared_ptrIS1_LN9__gnu_cxx12_Lock_policyE2EE8_DeleterISaIS1_EEES8_LS5_2EED2Ev
0000000000069ea0 w _ZNSt19_Sp_counted_deleterIPN7rocksdb13HistogramImplENSt12__shared_ptrIS1_LN9__gnu_cxx12_Lock_policyE2EE8_DeleterISaIS1_EEES8_LS5_2EE14_M_get_deleterERKSt9type_info
0000000000069eb0 w _ZNSt15_Sp_counted_ptrIPKN7rocksdb12FilterPolicyELN9__gnu_cxx12_Lock_policyE2EE10_M_disposeEv
0000000000069ed0 w _ZNSt15_Sp_counted_ptrIPKN7rocksdb12FilterPolicyELN9__gnu_cxx12_Lock_policyE2EE14_M_get_deleterERKSt9type_info
0000000000069ee0 w _ZNSt15_Sp_counted_ptrIPN7rocksdb12TableFactoryELN9__gnu_cxx12_Lock_policyE2EE10_M_disposeEv
0000000000069f00 w _ZNSt15_Sp_counted_ptrIPN7rocksdb12TableFactoryELN9__gnu_cxx12_Lock_policyE2EE14_M_get_deleterERKSt9type_info
0000000000069f10 w _ZNSt15_Sp_counted_ptrIPN7rocksdb16VectorRepFactoryELN9__gnu_cxx12_Lock_policyE2EE10_M_disposeEv
0000000000069f30 w _ZNSt15_Sp_counted_ptrIPN7rocksdb16VectorRepFactoryELN9__gnu_cxx12_Lock_policyE2EE14_M_get_deleterERKSt9type_info
0000000000069f40 w _ZNSt15_Sp_counted_ptrIPN7rocksdb18MemTableRepFactoryELN9__gnu_cxx12_Lock_policyE2EE10_M_disposeEv
0000000000069f60 w _ZNSt15_Sp_counted_ptrIPN7rocksdb18MemTableRepFactoryELN9__gnu_cxx12_Lock_policyE2EE14_M_get_deleterERKSt9type_info
0000000000069f70 w _ZNSt15_Sp_counted_ptrIPN7rocksdb12StderrLoggerELN9__gnu_cxx12_Lock_policyE2EE10_M_disposeEv
0000000000069f90 w _ZNSt15_Sp_counted_ptrIPN7rocksdb12StderrLoggerELN9__gnu_cxx12_Lock_policyE2EE14_M_get_deleterERKSt9type_info
0000000000069fa0 w _ZNSt15_Sp_counted_ptrIPKN7rocksdb14SliceTransformELN9__gnu_cxx12_Lock_policyE2EE10_M_disposeEv
0000000000069fc0 w _ZNSt15_Sp_counted_ptrIPKN7rocksdb14SliceTransformELN9__gnu_cxx12_Lock_policyE2EE14_M_get_deleterERKSt9type_info
0000000000069fd0 w _ZNSt15_Sp_counted_ptrIPN7rocksdb18WriteBufferManagerELN9__gnu_cxx12_Lock_policyE2EE14_M_get_deleterERKSt9type_info
0000000000069fe0 w _ZNSt15_Sp_counted_ptrIPN7rocksdb11RateLimiterELN9__gnu_cxx12_Lock_policyE2EE10_M_disposeEv
000000000006a000 w _ZNSt15_Sp_counted_ptrIPN7rocksdb11RateLimiterELN9__gnu_cxx12_Lock_policyE2EE14_M_get_deleterERKSt9type_info
000000000006a010 w _ZNSt15_Sp_counted_ptrIPN7rocksdb17TimestampEmulatorELN9__gnu_cxx12_Lock_policyE2EE14_M_get_deleterERKSt9type_info
000000000006a020 w _ZNSt15_Sp_counted_ptrIPN7rocksdb9Benchmark20ErrorHandlerListenerELN9__gnu_cxx12_Lock_policyE2EE14_M_get_deleterERKSt9type_info
000000000006a030 w _ZNSt15_Sp_counted_ptrIPN7rocksdb15SkipListFactoryELN9__gnu_cxx12_Lock_policyE2EE10_M_disposeEv
000000000006a050 w _ZNSt15_Sp_counted_ptrIPN7rocksdb15SkipListFactoryELN9__gnu_cxx12_Lock_policyE2EE14_M_get_deleterERKSt9type_info
000000000006a060 w _ZNSt19_Sp_counted_deleterIPN7rocksdb3EnvESt14default_deleteIS1_ESaIvELN9__gnu_cxx12_Lock_policyE2EED1Ev
000000000006a070 w _ZNSt19_Sp_counted_deleterIPN7rocksdb3EnvESt14default_deleteIS1_ESaIvELN9__gnu_cxx12_Lock_policyE2EE14_M_get_deleterERKSt9type_info
000000000006a080 w _ZNSt15_Sp_counted_ptrIPN7rocksdb17TimestampEmulatorELN9__gnu_cxx12_Lock_policyE2EE10_M_disposeEv
000000000006a090 w _ZN7rocksdb17FixedDistributionD0Ev
000000000006a0a0 w _ZNSt15_Sp_counted_ptrIPN7rocksdb10StatisticsELN9__gnu_cxx12_Lock_policyE2EED0Ev
000000000006a0b0 w _ZNSt15_Sp_counted_ptrIPN7rocksdb10StatisticsELN9__gnu_cxx12_Lock_policyE2EE10_M_destroyEv
000000000006a0c0 w _ZNSt15_Sp_counted_ptrIPKN7rocksdb12FilterPolicyELN9__gnu_cxx12_Lock_policyE2EED0Ev
000000000006a0d0 w _ZNSt15_Sp_counted_ptrIPKN7rocksdb12FilterPolicyELN9__gnu_cxx12_Lock_policyE2EE10_M_destroyEv
000000000006a0e0 w _ZNSt15_Sp_counted_ptrIPN7rocksdb12TableFactoryELN9__gnu_cxx12_Lock_policyE2EED0Ev
000000000006a0f0 w _ZNSt15_Sp_counted_ptrIPN7rocksdb12TableFactoryELN9__gnu_cxx12_Lock_policyE2EE10_M_destroyEv
000000000006a100 w _ZNSt15_Sp_counted_ptrIPN7rocksdb16VectorRepFactoryELN9__gnu_cxx12_Lock_policyE2EED0Ev
000000000006a110 w _ZNSt15_Sp_counted_ptrIPN7rocksdb16VectorRepFactoryELN9__gnu_cxx12_Lock_policyE2EE10_M_destroyEv
000000000006a120 w _ZNSt15_Sp_counted_ptrIPN7rocksdb18MemTableRepFactoryELN9__gnu_cxx12_Lock_policyE2EED0Ev
000000000006a130 w _ZNSt15_Sp_counted_ptrIPN7rocksdb18MemTableRepFactoryELN9__gnu_cxx12_Lock_policyE2EE10_M_destroyEv
000000000006a140 w _ZNSt15_Sp_counted_ptrIPN7rocksdb12StderrLoggerELN9__gnu_cxx12_Lock_policyE2EED0Ev
000000000006a150 w _ZNSt15_Sp_counted_ptrIPN7rocksdb12StderrLoggerELN9__gnu_cxx12_Lock_policyE2EE10_M_destroyEv
000000000006a160 w _ZNSt15_Sp_counted_ptrIPKN7rocksdb14SliceTransformELN9__gnu_cxx12_Lock_policyE2EED0Ev
000000000006a170 w _ZNSt15_Sp_counted_ptrIPKN7rocksdb14SliceTransformELN9__gnu_cxx12_Lock_policyE2EE10_M_destroyEv
000000000006a180 w _ZNSt15_Sp_counted_ptrIPN7rocksdb18WriteBufferManagerELN9__gnu_cxx12_Lock_policyE2EED0Ev
000000000006a190 w _ZNSt15_Sp_counted_ptrIPN7rocksdb18WriteBufferManagerELN9__gnu_cxx12_Lock_policyE2EE10_M_destroyEv
000000000006a1a0 w _ZNSt15_Sp_counted_ptrIPN7rocksdb11RateLimiterELN9__gnu_cxx12_Lock_policyE2EED0Ev
000000000006a1b0 w _ZNSt15_Sp_counted_ptrIPN7rocksdb11RateLimiterELN9__gnu_cxx12_Lock_policyE2EE10_M_destroyEv
000000000006a1c0 w _ZNSt15_Sp_counted_ptrIPN7rocksdb17TimestampEmulatorELN9__gnu_cxx12_Lock_policyE2EED0Ev
000000000006a1d0 w _ZNSt15_Sp_counted_ptrIPN7rocksdb17TimestampEmulatorELN9__gnu_cxx12_Lock_policyE2EE10_M_destroyEv
000000000006a1e0 w _ZNSt15_Sp_counted_ptrIPN7rocksdb9Benchmark20ErrorHandlerListenerELN9__gnu_cxx12_Lock_policyE2EED0Ev
000000000006a1f0 w _ZNSt15_Sp_counted_ptrIPN7rocksdb9Benchmark20ErrorHandlerListenerELN9__gnu_cxx12_Lock_policyE2EE10_M_destroyEv
000000000006a200 w _ZNSt15_Sp_counted_ptrIPN7rocksdb15SkipListFactoryELN9__gnu_cxx12_Lock_policyE2EED0Ev
000000000006a210 w _ZNSt15_Sp_counted_ptrIPN7rocksdb15SkipListFactoryELN9__gnu_cxx12_Lock_policyE2EE10_M_destroyEv
000000000006a220 w _ZNSt19_Sp_counted_deleterIPN7rocksdb3EnvESt14default_deleteIS1_ESaIvELN9__gnu_cxx12_Lock_policyE2EED0Ev
000000000006a230 w _ZNSt6vectorIiSaIiEED2Ev
000000000006a250 w _ZN3fLS20StringFlagDestructorD2Ev
000000000006a2a0 w _ZNSt6vectorIN7rocksdb5SliceESaIS1_EED2Ev
000000000006a2c0 w _ZNSt19_Sp_counted_deleterIPN7rocksdb13HistogramImplENSt12__shared_ptrIS1_LN9__gnu_cxx12_Lock_policyE2EE8_DeleterISaIS1_EEES8_LS5_2EED0Ev
000000000006a2d0 w _ZNSt19_Sp_counted_deleterIPN7rocksdb14BlockCacheTierENSt12__shared_ptrIS1_LN9__gnu_cxx12_Lock_policyE2EE8_DeleterISaIS1_EEES8_LS5_2EED0Ev
000000000006a2e0 w _ZNSt19_Sp_counted_deleterIPN7rocksdb25SimulatedHybridFileSystemENSt12__shared_ptrIS1_LN9__gnu_cxx12_Lock_policyE2EE8_DeleterISaIS1_EEES8_LS5_2EED0Ev
000000000006a2f0 w _ZNSt19_Sp_counted_deleterIPN7rocksdb25SimulatedHybridFileSystemENSt12__shared_ptrIS1_LN9__gnu_cxx12_Lock_policyE2EE8_DeleterISaIS1_EEES8_LS5_2EE10_M_disposeEv
000000000006a320 w _ZNSt19_Sp_counted_deleterIPN7rocksdb25SimulatedHybridFileSystemENSt12__shared_ptrIS1_LN9__gnu_cxx12_Lock_policyE2EE8_DeleterISaIS1_EEES8_LS5_2EE10_M_destroyEv
000000000006a330 w _ZNSt19_Sp_counted_deleterIPN7rocksdb14BlockCacheTierENSt12__shared_ptrIS1_LN9__gnu_cxx12_Lock_policyE2EE8_DeleterISaIS1_EEES8_LS5_2EE10_M_disposeEv
000000000006a360 w _ZNSt19_Sp_counted_deleterIPN7rocksdb14BlockCacheTierENSt12__shared_ptrIS1_LN9__gnu_cxx12_Lock_policyE2EE8_DeleterISaIS1_EEES8_LS5_2EE10_M_destroyEv
000000000006a370 w _ZNSt19_Sp_counted_deleterIPN7rocksdb13HistogramImplENSt12__shared_ptrIS1_LN9__gnu_cxx12_Lock_policyE2EE8_DeleterISaIS1_EEES8_LS5_2EE10_M_destroyEv
000000000006a380 w _ZNSt19_Sp_counted_deleterIPN7rocksdb3EnvESt14default_deleteIS1_ESaIvELN9__gnu_cxx12_Lock_policyE2EE10_M_destroyEv
000000000006a390 w _ZN7rocksdb12WritableFile12PrepareWriteEmm
000000000006a430 w _ZN7rocksdb16CacheWriteBufferD1Ev
000000000006a460 w _ZN7rocksdb16CacheWriteBufferD0Ev
000000000006a4a0 w _ZN7rocksdb7LRUListINS_14BlockCacheFileEED2Ev
000000000006a4e0 w _ZN7rocksdb12BoundedQueueINS_14ThreadedWriter2IOEED1Ev
000000000006a550 w _ZN7rocksdb12BoundedQueueINS_14BlockCacheTier8InsertOpEED2Ev
000000000006a5d0 w _ZN7rocksdb12StderrLoggerD1Ev
000000000006a5e0 w _ZN7rocksdb12StderrLoggerD0Ev
000000000006a610 w _ZNSt15_Sp_counted_ptrIPN7rocksdb18WriteBufferManagerELN9__gnu_cxx12_Lock_policyE2EE10_M_disposeEv
000000000006a650 w _ZN7rocksdb9Benchmark20ErrorHandlerListener24OnErrorRecoveryCompletedENS_6StatusE
000000000006a6a0 w _ZN7rocksdb12WritableFile15InvalidateCacheEmm
000000000006a720 w _ZN7rocksdb12WritableFile16PositionedAppendERKNS_5SliceEmRKNS_20DataVerificationInfoE
000000000006a7a0 w _ZN7rocksdb12WritableFile16PositionedAppendERKNS_5SliceEm
000000000006a820 w _ZN7rocksdb16RandomAccessFile15InvalidateCacheEmm
000000000006a8a0 w _ZN7rocksdb14SequentialFile14PositionedReadEmmPNS_5SliceEPc
000000000006a920 w _ZN7rocksdb14SequentialFile15InvalidateCacheEmm
000000000006a9a0 w _ZNK7rocksdb9Benchmark17ExpiredTimeFilter6FilterEiRKNS_5SliceES4_PNSt7__cxx1112basic_stringIcSt11char_traitsIcESaIcEEEPb
000000000006a9e0 w _ZN7rocksdb19UniformDistributionD2Ev
000000000006aa00 w _ZN7rocksdb19UniformDistributionD0Ev
000000000006aa30 w _ZN7rocksdb18NormalDistributionD2Ev
000000000006aa50 w _ZN7rocksdb18NormalDistributionD0Ev
000000000006aa80 w _ZN7rocksdb15CompressionDictD1Ev
000000000006aac0 w _ZNSt6thread11_State_implINS_8_InvokerISt5tupleIJZN7rocksdb9Benchmark6OpenDbENS3_7OptionsERKNSt7__cxx1112basic_stringIcSt11char_traitsIcESaIcEEEPNS3_20DBWithColumnFamiliesEEUliSF_E_iSF_EEEEED2Ev
000000000006aad0 w _ZNSt6thread11_State_implINS_8_InvokerISt5tupleIJZN7rocksdb9Benchmark6OpenDbENS3_7OptionsERKNSt7__cxx1112basic_stringIcSt11char_traitsIcESaIcEEEPNS3_20DBWithColumnFamiliesEEUliSF_E_iSF_EEEEED0Ev
000000000006ab00 w _ZNSt6thread11_State_implINS_8_InvokerISt5tupleIJZN7rocksdb13ReporterAgentC4EPNS3_3EnvERKNSt7__cxx1112basic_stringIcSt11char_traitsIcESaIcEEEmEUlvE_EEEEED2Ev
000000000006ab10 w _ZNSt6thread11_State_implINS_8_InvokerISt5tupleIJZN7rocksdb13ReporterAgentC4EPNS3_3EnvERKNSt7__cxx1112basic_stringIcSt11char_traitsIcESaIcEEEmEUlvE_EEEEED0Ev
000000000006ab40 w _ZN7rocksdb12StderrLogger4LogvEPKcP13__va_list_tag
000000000006ab80 w _ZN7rocksdb9Benchmark23RandomTransactionVerifyEv
000000000006ac70 w _ZNSt6thread11_State_implINS_8_InvokerISt5tupleIJZN7rocksdb9Benchmark6OpenDbENS3_7OptionsERKNSt7__cxx1112basic_stringIcSt11char_traitsIcESaIcEEEPNS3_20DBWithColumnFamiliesEEUliSF_E_iSF_EEEEE6_M_runEv
000000000006adb0 w _ZNK7rocksdb16CompactionFilter8FilterV2EiRKNS_5SliceENS0_9ValueTypeES3_PNSt7__cxx1112basic_stringIcSt11char_traitsIcESaIcEEESB_
000000000006ae40 w _ZNK7rocksdb12Customizable12IsInstanceOfERKNSt7__cxx1112basic_stringIcSt11char_traitsIcESaIcEEE
000000000006aec0 t _ZNKSt10_HashtableIN7rocksdb13OperationTypeESt4pairIKS1_St10shared_ptrINS0_13HistogramImplEEESaIS7_ENSt8__detail10_Select1stESt8equal_toIS1_ESt4hashIhENS9_18_Mod_range_hashingENS9_20_Default_ranged_hashENS9_20_Prime_rehash_policyENS9_17_Hashtable_traitsILb0ELb0ELb1EEEE12_M_find_nodeEmRS3_m.isra.929
000000000006af20 w _ZNSt19_Sp_counted_deleterIPN7rocksdb13HistogramImplENSt12__shared_ptrIS1_LN9__gnu_cxx12_Lock_policyE2EE8_DeleterISaIS1_EEES8_LS5_2EE10_M_disposeEv
000000000006af70 w _ZNSt19_Sp_counted_deleterIPN7rocksdb3EnvESt14default_deleteIS1_ESaIvELN9__gnu_cxx12_Lock_policyE2EE10_M_disposeEv
000000000006af90 w _ZN7rocksdb25CacheWriteBufferAllocatorD1Ev
000000000006b0c0 w _ZN7rocksdb7LRUListINS_14BlockCacheFileEED0Ev
000000000006b100 w _ZN7rocksdb2DB8MultiGetERKNS_11ReadOptionsERKSt6vectorINS_5SliceESaIS5_EEPS4_INSt7__cxx1112basic_stringIcSt11char_traitsIcESaIcEEESaISF_EE
000000000006b240 w _ZN7rocksdb2DB19GetApproximateSizesEPKNS_5RangeEiPmh
000000000006b330 w _ZN7rocksdb12BoundedQueueINS_14BlockCacheTier8InsertOpEED0Ev
000000000006b3c0 w _ZN7rocksdb12BoundedQueueINS_14ThreadedWriter2IOEED0Ev
000000000006b440 w _ZN7rocksdb9HashTableIPNS_9BlockInfoENS_22BlockCacheTierMetadata4HashENS3_5EqualEED0Ev
000000000006b560 w _ZN7rocksdb9HashTableIPNS_14BlockCacheFileENS_22BlockCacheTierMetadata18BlockCacheFileHashENS3_19BlockCacheFileEqualEED0Ev
000000000006b680 w _ZN7rocksdb18EvictableHashTableINS_14BlockCacheFileENS_22BlockCacheTierMetadata18BlockCacheFileHashENS2_19BlockCacheFileEqualEED1Ev
000000000006b840 w _ZN7rocksdb18SystemClockWrapper14GetCurrentTimeEPl
000000000006b930 w _ZN7rocksdb9HashTableIPNS_9BlockInfoENS_22BlockCacheTierMetadata4HashENS3_5EqualEED2Ev
000000000006ba50 w _ZN7rocksdb9HashTableIPNS_14BlockCacheFileENS_22BlockCacheTierMetadata18BlockCacheFileHashENS3_19BlockCacheFileEqualEED2Ev
000000000006bb70 w _ZN7rocksdb18EvictableHashTableINS_14BlockCacheFileENS_22BlockCacheTierMetadata18BlockCacheFileHashENS2_19BlockCacheFileEqualEED0Ev
000000000006bd30 w _ZN7rocksdb16RandomAccessFile9MultiReadEPNS_11ReadRequestEm
000000000006be10 w _ZNK7rocksdb12Configurable19GetPrintableOptionsB5cxx11Ev
000000000006be40 w _ZN7rocksdb9Benchmark10KeepFilterD1Ev
000000000006bf10 w _ZN7rocksdb9Benchmark20ErrorHandlerListenerD0Ev
000000000006bfd0 w _ZN7rocksdb9Benchmark10KeepFilterD0Ev
000000000006c070 w _ZN7rocksdb9Benchmark20ErrorHandlerListenerD1Ev
000000000006c140 w _ZNK7rocksdb12Customizable5GetIdB5cxx11Ev
000000000006c190 w _ZN7rocksdb17UncompressionDictD2Ev
000000000006c1f0 w _ZNSt15_Sp_counted_ptrIPN7rocksdb9Benchmark20ErrorHandlerListenerELN9__gnu_cxx12_Lock_policyE2EE10_M_disposeEv
000000000006c2f0 w _ZN7rocksdb25CacheWriteBufferAllocatorD0Ev
000000000006c420 w _ZN7rocksdb9Benchmark17ExpiredTimeFilterD0Ev
000000000006c550 w _ZNSt10shared_ptrIN7rocksdb14SecondaryCacheEED1Ev
000000000006c5e0 w _ZNSt10shared_ptrIN7rocksdb3EnvEED1Ev
000000000006c670 w _ZNSt10shared_ptrIN7rocksdb10StatisticsEED1Ev
000000000006c700 w _ZN7rocksdb9Benchmark17ExpiredTimeFilterD2Ev
000000000006c840 w _ZN7rocksdb6StatusaSEOS0_
000000000006c8a0 w _ZN7rocksdb15SstFileMetaDataD2Ev
000000000006c940 w _ZN7rocksdb19ColumnFamilyOptionsC2EOS0_
000000000006cff0 w _ZN7rocksdb13PinnableSliceD1Ev
000000000006d020 w _ZN7rocksdb2DB3GetERKNS_11ReadOptionsEPNS_18ColumnFamilyHandleERKNS_5SliceEPNSt7__cxx1112basic_stringIcSt11char_traitsIcESaIcEEE
000000000006d170 w _ZN7rocksdb2DB3GetERKNS_11ReadOptionsEPNS_18ColumnFamilyHandleERKNS_5SliceEPNSt7__cxx1112basic_stringIcSt11char_traitsIcESaIcEEESF_
000000000006d2d0 w _ZN7rocksdb2DB3GetERKNS_11ReadOptionsERKNS_5SliceEPNSt7__cxx1112basic_stringIcSt11char_traitsIcESaIcEEESD_
000000000006d490 w _ZN7rocksdb2DB3GetERKNS_11ReadOptionsERKNS_5SliceEPNSt7__cxx1112basic_stringIcSt11char_traitsIcESaIcEEE
000000000006d640 w _ZN7rocksdb13HistogramImplD0Ev
000000000006d650 w _ZN7rocksdb22BlockBasedTableOptionsC1Ev
000000000006d770 w _ZNK7rocksdb13CustomDeleterclEPc
000000000006d7a0 w _ZN7rocksdb12CompressDataERKNS_5SliceERKNS_15CompressionInfoEjPNSt7__cxx1112basic_stringIcSt11char_traitsIcESaIcEEE
000000000006dec0 w _ZN7rocksdb15RandomGeneratorC2Ev
000000000006e2b0 w _ZN7rocksdb20DBWithColumnFamilies6GetCfhEl
000000000006e340 w _ZN7rocksdb20DBWithColumnFamilies11CreateNewCfENS_19ColumnFamilyOptionsEl
000000000006e550 w _ZN7rocksdb17TimestampEmulator8AllocateEPc
000000000006e570 w _ZN7rocksdb8Duration4DoneEl
000000000006e610 w _ZN7rocksdb9Benchmark16PrintEnvironmentEv
000000000006eb20 w _ZN7rocksdb9Benchmark11PrintHeaderEv
000000000006f3e0 w _ZN7rocksdb20DBWithColumnFamiliesD2Ev
000000000006f430 w _ZN7rocksdb9Benchmark9DeleteDBsEv
000000000006f530 w _ZN7rocksdb9Benchmark18GenerateKeyFromIntEmlPNS_5SliceE
000000000006f680 w _ZN7rocksdb9Benchmark14VerifyDBFromDBERNSt7__cxx1112basic_stringIcSt11char_traitsIcESaIcEEE
000000000006fb90 w _ZN7rocksdb9Benchmark9ErrorExitEv
000000000006fbb0 w _ZN7rocksdb15RandomGeneratorD2Ev
000000000006fbf0 w _ZN7rocksdb20ColumnFamilyMetaDataD1Ev
000000000006fe60 w _ZNSt4pairIKNSt7__cxx1112basic_stringIcSt11char_traitsIcESaIcEEES5_ED1Ev
000000000006fea0 w _ZN7rocksdb9Benchmark7GetManyEPNS_2DBERKNS_11ReadOptionsERKNS_5SliceEPNSt7__cxx1112basic_stringIcSt11char_traitsIcESaIcEEE
00000000000707e0 w _ZN7rocksdb9Benchmark10CompactAllEv
00000000000709f0 w _ZN7rocksdb9Benchmark5FlushEv
0000000000070bb0 w _ZN7rocksdb9Benchmark10ResetStatsEv
0000000000070ca0 w _ZN7rocksdb9Benchmark21PrintStatsHistoryImplEPNS_2DBEb
0000000000070ef0 w _ZN7rocksdb9Benchmark10PrintStatsEPNS_2DBEPKcb
0000000000071060 w _ZN7rocksdb9Benchmark10PrintStatsEPKc
0000000000071230 w _ZN7rocksdb9Benchmark10PrintStatsEPNS_2DBERKSt6vectorINSt7__cxx1112basic_stringIcSt11char_traitsIcESaIcEEESaIS9_EEb
00000000000713d0 w _ZN7rocksdb9Benchmark10PrintStatsERKSt6vectorINSt7__cxx1112basic_stringIcSt11char_traitsIcESaIcEEESaIS7_EE
00000000000715d0 w _ZN7rocksdb9Benchmark6ReplayEPNS_11ThreadStateEPNS_20DBWithColumnFamiliesE
0000000000071a50 w _ZN7rocksdb9Benchmark6ReplayEPNS_11ThreadStateE
0000000000071a70 w _ZN9__gnu_cxx6__stoaIlicJiEEET0_PFT_PKT1_PPS3_DpT2_EPKcS5_PmS9_
0000000000071b40 w _ZN9__gnu_cxx12__to_xstringINSt7__cxx1112basic_stringIcSt11char_traitsIcESaIcEEEcEET_PFiPT0_mPKS8_P13__va_list_tagEmSB_z
0000000000071c40 w _ZN7rocksdb9Benchmark18GetPathForMultipleENSt7__cxx1112basic_stringIcSt11char_traitsIcESaIcEEEm
0000000000071dc0 w _ZStplIcSt11char_traitsIcESaIcEENSt7__cxx1112basic_stringIT_T0_T1_EEOS8_S9_
0000000000071e80 w _ZN7rocksdb13ReporterAgent14SleepAndReportEv
0000000000072500 w _ZNSt6thread11_State_implINS_8_InvokerISt5tupleIJZN7rocksdb13ReporterAgentC4EPNS3_3EnvERKNSt7__cxx1112basic_stringIcSt11char_traitsIcESaIcEEEmEUlvE_EEEEE6_M_runEv
0000000000072510 w _ZStplIcSt11char_traitsIcESaIcEENSt7__cxx1112basic_stringIT_T0_T1_EEPKS5_OS8_
00000000000725a0 w _ZNSt6vectorIN7rocksdb12Configurable17RegisteredOptionsESaIS2_EED2Ev
0000000000072660 w _ZNSt6vectorINSt7__cxx1112basic_stringIcSt11char_traitsIcESaIcEEESaIS5_EED1Ev
00000000000726d0 w _ZN7rocksdb9Benchmark23WaitForCompactionHelperERNS_20DBWithColumnFamiliesE
0000000000072ac0 w _ZN7rocksdb9Benchmark17WaitForCompactionEv
0000000000072ba0 w _ZNSt6vectorISt10shared_ptrIN7rocksdb13EventListenerEESaIS3_EED1Ev
0000000000072c80 w _ZNSt6vectorIN7rocksdb15SstFileMetaDataESaIS1_EED2Ev
0000000000072da0 w _ZNSt6vectorIN7rocksdb6StatusESaIS1_EED2Ev
0000000000072e10 w _ZNSt6vectorINSt7__cxx1112basic_stringIcSt11char_traitsIcESaIcEEESaIS5_EEC1ESt16initializer_listIS5_ERKS6_
0000000000072f30 w _ZNSt23mersenne_twister_engineImLm32ELm624ELm397ELm31ELm2567483615ELm11ELm4294967295ELm7ELm2636928640ELm15ELm4022730752ELm18ELm1812433253EEclEv
0000000000073070 w _ZNSt23mersenne_twister_engineImLm64ELm312ELm156ELm31ELm13043109905998158313ELm29ELm6148914691236517205ELm17ELm8202884508482404352ELm37ELm18444473444759240704ELm43ELm6364136223846793005EEclEv
00000000000731e0 w _ZN7rocksdb9Benchmark15SelectDBWithCfhEPNS_11ThreadStateE
0000000000073250 w _ZN7rocksdb9Benchmark16GetMergeOperandsEPNS_11ThreadStateE
0000000000073fa0 w _ZN7rocksdb17TimestampEmulator19GetTimestampForReadERNS_8Random64EPc
0000000000074000 w _ZN7rocksdb9Benchmark7CompactEPNS_11ThreadStateE
0000000000074120 w _ZStplIcSt11char_traitsIcESaIcEENSt7__cxx1112basic_stringIT_T0_T1_EEOS8_PKS5_
00000000000741c0 w _ZN7rocksdb13ReporterAgentC2EPNS_3EnvERKNSt7__cxx1112basic_stringIcSt11char_traitsIcESaIcEEEm
0000000000074540 w _ZNSt6vectorIN7rocksdb16LiveFileMetaDataESaIS1_EED2Ev
0000000000074680 w _ZNSt10_HashtableINSt7__cxx1112basic_stringIcSt11char_traitsIcESaIcEEESt4pairIKS5_S5_ESaIS8_ENSt8__detail10_Select1stESt8equal_toIS5_ESt4hashIS5_ENSA_18_Mod_range_hashingENSA_20_Default_ranged_hashENSA_20_Prime_rehash_policyENSA_17_Hashtable_traitsILb1ELb0ELb1EEEED1Ev
0000000000074730 w _ZNSt10_HashtableIN7rocksdb13OperationTypeESt4pairIKS1_NSt7__cxx1112basic_stringIcSt11char_traitsIcESaIcEEEESaISA_ENSt8__detail10_Select1stESt8equal_toIS1_ESt4hashIhENSC_18_Mod_range_hashingENSC_20_Default_ranged_hashENSC_20_Prime_rehash_policyENSC_17_Hashtable_traitsILb0ELb0ELb1EEEED2Ev
00000000000747d0 w _ZNSt13unordered_mapIN7rocksdb13OperationTypeENSt7__cxx1112basic_stringIcSt11char_traitsIcESaIcEEESt4hashIhESt8equal_toIS1_ESaISt4pairIKS1_S7_EEED1Ev
00000000000747e0 w _ZNSt6vectorIdSaIdEEC1ERKS1_
0000000000074890 w _ZNSt6vectorIiSaIiEEaSERKS1_
00000000000749e0 w _ZNSt6vectorISt10unique_ptrIA_KcSt14default_deleteIS2_EESaIS5_EED2Ev
0000000000074a50 w _ZNSt6vectorIS_IS_IN7rocksdb15SstFileMetaDataESaIS1_EESaIS3_EESaIS5_EED2Ev
0000000000074c80 w _ZNSt16_Sp_counted_baseILN9__gnu_cxx12_Lock_policyE2EE10_M_releaseEv
0000000000074d00 w _ZN7rocksdb22BlockBasedTableOptionsD1Ev
0000000000074d70 w _ZN7rocksdb20TransactionDBOptionsD2Ev
0000000000074db0 w _ZNSt14__shared_countILN9__gnu_cxx12_Lock_policyE2EEaSERKS2_
0000000000074e10 w _ZN7rocksdb21PersistentCacheConfigD1Ev
0000000000074e50 w _ZN7rocksdb13ConfigOptionsD2Ev
0000000000074e90 w _ZN7rocksdb9DBOptionsD1Ev
0000000000075090 w _ZN7rocksdb7OptionsC1Ev
00000000000750d0 w _ZN7rocksdb27AdvancedColumnFamilyOptionsD1Ev
0000000000075200 w _ZN7rocksdb19ColumnFamilyOptionsD1Ev
00000000000752f0 w _ZN7rocksdb22ColumnFamilyDescriptorD1Ev
0000000000075330 w _ZNSt6vectorIN7rocksdb22ColumnFamilyDescriptorESaIS1_EED1Ev
00000000000753f0 w _ZN7rocksdb16MutableCFOptionsD2Ev
0000000000075440 w _ZN7rocksdb9BenchmarkD2Ev
0000000000075710 w _ZNSt12__shared_ptrIN7rocksdb11RateLimiterELN9__gnu_cxx12_Lock_policyE2EE5resetIS1_EENSt9enable_ifIXsrSt21__sp_is_constructibleIS1_T_E5valueEvE4typeEPS8_
00000000000757a0 w _ZN7rocksdb14ObjectRegistry15NewSharedObjectINS_10StatisticsEEENS_6StatusERKNSt7__cxx1112basic_stringIcSt11char_traitsIcESaIcEEEPSt10shared_ptrIT_E
0000000000075c00 w _ZN7rocksdb9DBOptionsC1ERKS0_
0000000000076700 w _ZN7rocksdb14BlockCacheTierC2ERKNS_21PersistentCacheConfigE
0000000000077500 w _ZN7rocksdb19ColumnFamilyOptionsC2ERKS0_
00000000000780c0 w _ZN7rocksdb14BlockCacheTierD1Ev
0000000000078570 w _ZN7rocksdb14BlockCacheTierD0Ev
0000000000078590 w _ZN7rocksdb9Benchmark25InitializeOptionsFromFileEPNS_7OptionsE
0000000000079730 w _ZN7rocksdb9Benchmark8NewCacheEl
0000000000079a60 w _ZN7rocksdb9BenchmarkC1Ev
000000000007a830 w _ZNSt8_Rb_treeINSt7__cxx1112basic_stringIcSt11char_traitsIcESaIcEEESt4pairIKS5_mESt10_Select1stIS8_ESt4lessIS5_ESaIS8_EE8_M_eraseEPSt13_Rb_tree_nodeIS8_E
000000000007a890 w _ZN7rocksdb5Stats17PrintThreadStatusEv
000000000007af30 w _ZNSt6vectorINSt7__cxx1112basic_stringIcSt11char_traitsIcESaIcEEESaIS5_EE17_M_realloc_insertIJRKS5_EEEvN9__gnu_cxx17__normal_iteratorIPS5_S7_EEDpOT_
000000000007b1d0 w _ZN7rocksdb9Benchmark18CompactLevelHelperERNS_20DBWithColumnFamiliesEi
000000000007b880 w _ZN7rocksdb9Benchmark12CompactLevelEi
000000000007c2a0 w _ZNSt24uniform_int_distributionImEclISt23mersenne_twister_engineImLm32ELm624ELm397ELm31ELm2567483615ELm11ELm4294967295ELm7ELm2636928640ELm15ELm4022730752ELm18ELm1812433253EEEEmRT_RKNS0_10param_typeE
000000000007c3b0 w _ZNSt24uniform_int_distributionIjEclISt23mersenne_twister_engineImLm32ELm624ELm397ELm31ELm2567483615ELm11ELm4294967295ELm7ELm2636928640ELm15ELm4022730752ELm18ELm1812433253EEEEjRT_RKNS0_10param_typeE
000000000007c4b0 w _ZN7rocksdb19UniformDistribution3GetEv
000000000007c4d0 w _ZNSt10_HashtableIN7rocksdb13OperationTypeESt4pairIKS1_St10shared_ptrINS0_13HistogramImplEEESaIS7_ENSt8__detail10_Select1stESt8equal_toIS1_ESt4hashIhENS9_18_Mod_range_hashingENS9_20_Default_ranged_hashENS9_20_Prime_rehash_policyENS9_17_Hashtable_traitsILb0ELb0ELb1EEEE5clearEv
000000000007c530 w _ZN7rocksdb5Stats5StartEi
000000000007c670 w _ZN7rocksdb9Benchmark10ThreadBodyEPv
000000000007c870 w _ZNSt10_HashtableIN7rocksdb13OperationTypeESt4pairIKS1_St10shared_ptrINS0_13HistogramImplEEESaIS7_ENSt8__detail10_Select1stESt8equal_toIS1_ESt4hashIhENS9_18_Mod_range_hashingENS9_20_Default_ranged_hashENS9_20_Prime_rehash_policyENS9_17_Hashtable_traitsILb0ELb0ELb1EEEED1Ev
000000000007c8b0 w _ZN7rocksdb5StatsD2Ev
000000000007c8f0 w _ZNSt6vectorIdSaIdEE17_M_realloc_insertIJdEEEvN9__gnu_cxx17__normal_iteratorIPdS1_EEDpOT_
000000000007ca30 w _ZNSt6vectorIdSaIdEE12emplace_backIJdEEEvDpOT_
000000000007ca60 w _ZNSt6vectorISt10shared_ptrIN7rocksdb13EventListenerEESaIS3_EE17_M_realloc_insertIJRS0_INS1_9Benchmark20ErrorHandlerListenerEEEEEvN9__gnu_cxx17__normal_iteratorIPS3_S5_EEDpOT_
000000000007cd10 w _ZNSt6vectorIN7rocksdb20DBWithColumnFamiliesESaIS1_EE17_M_default_appendEm
000000000007d310 w _ZNSt6vectorIiSaIiEE12emplace_backIJiEEEvDpOT_
000000000007d460 w _ZNSt6vectorIPN7rocksdb18ColumnFamilyHandleESaIS2_EE17_M_default_appendEm
000000000007d5e0 w _ZNSt6vectorImSaImEE17_M_default_appendEm
000000000007d760 w _ZSt7shuffleIN9__gnu_cxx17__normal_iteratorIPmSt6vectorImSaImEEEERSt23mersenne_twister_engineImLm32ELm624ELm397ELm31ELm2567483615ELm11ELm4294967295ELm7ELm2636928640ELm15ELm4022730752ELm18ELm1812433253EEEvT_SA_OT0_
000000000007d910 w _ZN7rocksdb13RandomShuffleIN9__gnu_cxx17__normal_iteratorIPmSt6vectorImSaImEEEEEEvT_S8_j
000000000007d9a0 w _ZN7rocksdb9Benchmark12KeyGeneratorC2EPNS_8Random64ENS0_9WriteModeEmm
000000000007da50 w _ZNSt11_Deque_baseIlSaIlEED1Ev
000000000007dac0 w _ZNSt6vectorISt10unique_ptrIA_KcSt14default_deleteIS2_EESaIS5_EE17_M_default_appendEm
000000000007dc80 w _ZNSt6vectorIN7rocksdb5SliceESaIS1_EE17_M_realloc_insertIJS1_EEEvN9__gnu_cxx17__normal_iteratorIPS1_S3_EEDpOT_
000000000007ddf0 w _ZNSt6vectorIN7rocksdb5SliceESaIS1_EE12emplace_backIJS1_EEEvDpOT_
000000000007de20 w _ZNSt5dequeIlSaIlEE16_M_push_back_auxIJRKlEEEvDpOT_
000000000007dff0 w _ZNSt6vectorIPN7rocksdb2DBESaIS2_EE17_M_realloc_insertIJRKS2_EEEvN9__gnu_cxx17__normal_iteratorIPS2_S4_EEDpOT_
000000000007e130 w _ZNSt6vectorIS_IN7rocksdb15SstFileMetaDataESaIS1_EESaIS3_EE17_M_realloc_insertIJN9__gnu_cxx17__normal_iteratorIPKS1_S3_EESB_EEEvNS8_IPS3_S5_EEDpOT_
000000000007e810 w _ZNSt6vectorIS_IN7rocksdb15SstFileMetaDataESaIS1_EESaIS3_EE12emplace_backIJN9__gnu_cxx17__normal_iteratorIPKS1_S3_EESB_EEEvDpOT_
000000000007ebc0 w _ZNSt6vectorINSt7__cxx1112basic_stringIcSt11char_traitsIcESaIcEEESaIS5_EE17_M_realloc_insertIJRS5_EEEvN9__gnu_cxx17__normal_iteratorIPS5_S7_EEDpOT_
000000000007ee60 w _ZNSt6vectorISt10unique_ptrIA_KcSt14default_deleteIS2_EESaIS5_EE17_M_realloc_insertIJEEEvN9__gnu_cxx17__normal_iteratorIPS5_S7_EEDpOT_
000000000007f020 w _ZNSt6vectorISt10unique_ptrIA_KcSt14default_deleteIS2_EESaIS5_EE12emplace_backIJEEEvDpOT_
000000000007f050 w _ZNSt6vectorIN7rocksdb5RangeESaIS1_EE17_M_realloc_insertIJRNS0_5SliceES6_EEEvN9__gnu_cxx17__normal_iteratorIPS1_S3_EEDpOT_
000000000007f1e0 w _ZNSt6vectorIN7rocksdb9Benchmark12KeyrangeUnitESaIS2_EE17_M_realloc_insertIJRKS2_EEEvN9__gnu_cxx17__normal_iteratorIPS2_S4_EEDpOT_
000000000007f340 w _ZNSt6vectorIN7rocksdb22ColumnFamilyDescriptorESaIS1_EE17_M_realloc_insertIJS1_EEEvN9__gnu_cxx17__normal_iteratorIPS1_S3_EEDpOT_
00000000000803a0 w _ZN7rocksdb9Benchmark6OpenDbENS_7OptionsERKNSt7__cxx1112basic_stringIcSt11char_traitsIcESaIcEEEPNS_20DBWithColumnFamiliesE
0000000000081450 w _ZNSt6vectorIN7rocksdb7OptionsESaIS1_EE17_M_realloc_insertIJS1_EEEvN9__gnu_cxx17__normal_iteratorIPS1_S3_EEDpOT_
0000000000083a90 w _ZNSt10_HashtableINSt7__cxx1112basic_stringIcSt11char_traitsIcESaIcEEESt4pairIKS5_S5_ESaIS8_ENSt8__detail10_Select1stESt8equal_toIS5_ESt4hashIS5_ENSA_18_Mod_range_hashingENSA_20_Default_ranged_hashENSA_20_Prime_rehash_policyENSA_17_Hashtable_traitsILb1ELb0ELb1EEEEC1IPKS8_EET_SP_mRKSF_RKSG_RKSH_RKSD_RKSB_RKS9_
0000000000083ee0 w _ZNSt6vectorISt10unique_ptrIA_KcSt14default_deleteIS2_EESaIS5_EE17_M_realloc_insertIJS5_EEEvN9__gnu_cxx17__normal_iteratorIPS5_S7_EEDpOT_
00000000000840a0 w _ZNSt6vectorIPN7rocksdb8IteratorESaIS2_EE17_M_realloc_insertIJS2_EEEvN9__gnu_cxx17__normal_iteratorIPS2_S4_EEDpOT_
00000000000841e0 w _ZNSt6vectorIPN7rocksdb8IteratorESaIS2_EE12emplace_backIJS2_EEEvDpOT_
0000000000084210 w _ZNSt14__shared_countILN9__gnu_cxx12_Lock_policyE2EEC2IN7rocksdb3EnvESt14default_deleteIS5_EEEOSt10unique_ptrIT_T0_E
0000000000084270 w _ZSt18generate_canonicalIdLm53ESt23mersenne_twister_engineImLm32ELm624ELm397ELm31ELm2567483615ELm11ELm4294967295ELm7ELm2636928640ELm15ELm4022730752ELm18ELm1812433253EEET_RT1_
0000000000084340 w _ZN7rocksdb18NormalDistribution3GetEv
0000000000084460 w _ZNSt10_HashtableIN7rocksdb13OperationTypeESt4pairIKS1_St10shared_ptrINS0_13HistogramImplEEESaIS7_ENSt8__detail10_Select1stESt8equal_toIS1_ESt4hashIhENS9_18_Mod_range_hashingENS9_20_Default_ranged_hashENS9_20_Prime_rehash_policyENS9_17_Hashtable_traitsILb0ELb0ELb1EEEE9_M_rehashEmRKm
0000000000084580 w _ZNSt10_HashtableIN7rocksdb13OperationTypeESt4pairIKS1_St10shared_ptrINS0_13HistogramImplEEESaIS7_ENSt8__detail10_Select1stESt8equal_toIS1_ESt4hashIhENS9_18_Mod_range_hashingENS9_20_Default_ranged_hashENS9_20_Prime_rehash_policyENS9_17_Hashtable_traitsILb0ELb0ELb1EEEE21_M_insert_unique_nodeEmmPNS9_10_Hash_nodeIS7_Lb0EEE
0000000000084690 w _ZNSt10_HashtableIN7rocksdb13OperationTypeESt4pairIKS1_St10shared_ptrINS0_13HistogramImplEEESaIS7_ENSt8__detail10_Select1stESt8equal_toIS1_ESt4hashIhENS9_18_Mod_range_hashingENS9_20_Default_ranged_hashENS9_20_Prime_rehash_policyENS9_17_Hashtable_traitsILb0ELb0ELb1EEEE10_M_emplaceIJS7_EEES2_INS9_14_Node_iteratorIS7_Lb0ELb0EEEbESt17integral_constantIbLb1EEDpOT_
0000000000084780 w _ZN7rocksdb5Stats11FinishedOpsEPNS_20DBWithColumnFamiliesEPNS_2DBElNS_13OperationTypeE
0000000000085360 w _ZN7rocksdb9Benchmark22TimeSeriesReadOrDeleteEPNS_11ThreadStateEb
00000000000859c0 w _ZN7rocksdb9Benchmark15TimeSeriesWriteEPNS_11ThreadStateE
0000000000085f40 w _ZN7rocksdb9Benchmark17RandomTransactionEPNS_11ThreadStateE
00000000000865e0 w _ZN7rocksdb9Benchmark10UncompressEPNS_11ThreadStateE
0000000000087470 w _ZN7rocksdb9Benchmark8CompressEPNS_11ThreadStateE
00000000000878a0 w _ZN7rocksdb9Benchmark11AcquireLoadEPNS_11ThreadStateE
0000000000087950 w _ZN7rocksdb9Benchmark6xxHashEPNS_11ThreadStateE
0000000000087a70 w _ZN7rocksdb9Benchmark6Crc32cEPNS_11ThreadStateE
0000000000087db0 w _ZN7rocksdb9Benchmark11MergeRandomEPNS_11ThreadStateE
00000000000883e0 w _ZN7rocksdb9Benchmark12AppendRandomEPNS_11ThreadStateE
0000000000088df0 w _ZN7rocksdb9Benchmark15XORUpdateRandomEPNS_11ThreadStateE
0000000000089890 w _ZN7rocksdb9Benchmark12UpdateRandomEPNS_11ThreadStateE
000000000008a240 w _ZN7rocksdb9Benchmark21ReadRandomMergeRandomEPNS_11ThreadStateE
000000000008a980 w _ZN7rocksdb9Benchmark21ReadRandomWriteRandomEPNS_11ThreadStateE
000000000008b220 w _ZN7rocksdb9Benchmark6BGScanEPNS_11ThreadStateE
000000000008b5e0 w _ZN7rocksdb9Benchmark8BGWriterEPNS_11ThreadStateENS_13OperationTypeE
000000000008bd40 w _ZN7rocksdb9Benchmark16IteratorCreationEPNS_11ThreadStateE
000000000008c0a0 w _ZN7rocksdb9Benchmark28IteratorCreationWhileWritingEPNS_11ThreadStateE
000000000008c0c0 w _ZN7rocksdb9Benchmark14ReadRandomFastEPNS_11ThreadStateE
000000000008cb70 w _ZN7rocksdb9Benchmark10ReadRandomEPNS_11ThreadStateE
000000000008d780 w _ZN7rocksdb9Benchmark17ReadWhileScanningEPNS_11ThreadStateE
000000000008d7a0 w _ZN7rocksdb9Benchmark16ReadWhileMergingEPNS_11ThreadStateE
000000000008d7c0 w _ZN7rocksdb9Benchmark16ReadWhileWritingEPNS_11ThreadStateE
000000000008d7e0 w _ZN7rocksdb9Benchmark11ReadReverseEPNS_11ThreadStateEPNS_2DBE
000000000008d9c0 w _ZN7rocksdb9Benchmark11ReadReverseEPNS_11ThreadStateE
000000000008da60 w _ZN7rocksdb9Benchmark14ReadToRowCacheEPNS_11ThreadStateE
000000000008e250 w _ZN7rocksdb9Benchmark14ReadSequentialEPNS_11ThreadStateEPNS_2DBE
000000000008e5f0 w _ZN7rocksdb9Benchmark14ReadSequentialEPNS_11ThreadStateE
000000000008e690 w _ZN7rocksdb9Benchmark15MultiReadRandomEPNS_11ThreadStateE
000000000008f950 w _ZN7rocksdb9Benchmark21ApproximateSizeRandomEPNS_11ThreadStateE
0000000000090430 w _ZN7rocksdb9Benchmark8MixGraphEPNS_11ThreadStateE
0000000000092020 w _ZN7rocksdb9Benchmark10SeekRandomEPNS_11ThreadStateE
00000000000929b0 w _ZN7rocksdb9Benchmark22SeekRandomWhileMergingEPNS_11ThreadStateE
00000000000929d0 w _ZN7rocksdb9Benchmark22SeekRandomWhileWritingEPNS_11ThreadStateE
00000000000929f0 w _ZNSt10_HashtableIN7rocksdb13OperationTypeESt4pairIKS1_NSt7__cxx1112basic_stringIcSt11char_traitsIcESaIcEEEESaISA_ENSt8__detail10_Select1stESt8equal_toIS1_ESt4hashIhENSC_18_Mod_range_hashingENSC_20_Default_ranged_hashENSC_20_Prime_rehash_policyENSC_17_Hashtable_traitsILb0ELb0ELb1EEEE9_M_rehashEmRKm
0000000000092b10 w _ZNSt10_HashtableIN7rocksdb13OperationTypeESt4pairIKS1_NSt7__cxx1112basic_stringIcSt11char_traitsIcESaIcEEEESaISA_ENSt8__detail10_Select1stESt8equal_toIS1_ESt4hashIhENSC_18_Mod_range_hashingENSC_20_Default_ranged_hashENSC_20_Prime_rehash_policyENSC_17_Hashtable_traitsILb0ELb0ELb1EEEE21_M_insert_unique_nodeEmmPNSC_10_Hash_nodeISA_Lb0EEE
0000000000092c40 w _ZN7rocksdb5Stats6ReportERKNS_5SliceE
0000000000093230 w _ZN7rocksdb9Benchmark10TimeSeriesEPNS_11ThreadStateE
00000000000933b0 w _ZN7rocksdb9Benchmark12RunBenchmarkEiNS_5SliceEMS0_FvPNS_11ThreadStateEE
0000000000093fe0 w _ZSt16__insertion_sortIN9__gnu_cxx17__normal_iteratorIPdSt6vectorIdSaIdEEEENS0_5__ops15_Iter_less_iterEEvT_S9_T0_
00000000000940b0 w _ZNSt14__shared_countILN9__gnu_cxx12_Lock_policyE2EEC1IPN7rocksdb12TableFactoryEEET_
0000000000094130 w _ZN7rocksdb9Benchmark26InitializeOptionsFromFlagsEPNS_7OptionsE
0000000000095b90 w _ZSt18generate_canonicalIdLm53ESt26linear_congruential_engineImLm16807ELm0ELm2147483647EEET_RT1_
0000000000095ca0 w _ZN7rocksdb9Benchmark17RandomReplaceKeysEPNS_11ThreadStateE
0000000000096860 w _ZNSt20__uninitialized_copyILb0EE13__uninit_copyISt13move_iteratorIPNSt7__cxx1112basic_stringIcSt11char_traitsIcESaIcEEEES9_EET0_T_SC_SB_
0000000000096900 w _ZN7rocksdb9Benchmark24InitializeOptionsGeneralEPNS_7OptionsE
0000000000097880 w _ZSt13__adjust_heapIN9__gnu_cxx17__normal_iteratorIPdSt6vectorIdSaIdEEEEldNS0_5__ops15_Iter_less_iterEEvT_T0_SA_T1_T2_
00000000000979b0 t _ZSt16__introsort_loopIN9__gnu_cxx17__normal_iteratorIPdSt6vectorIdSaIdEEEElNS0_5__ops15_Iter_less_iterEEvT_S9_T0_T1_.isra.1079
0000000000097bd0 w _ZN7rocksdb9Benchmark3RunEv
000000000009ae00 w _ZNSt11_Deque_baseISt4pairImmESaIS1_EED1Ev
000000000009ae70 w _ZN7rocksdb9Benchmark7DoWriteEPNS_11ThreadStateENS0_9WriteModeE
000000000009d7b0 w _ZN7rocksdb9Benchmark15WriteSeqSeekSeqEPNS_11ThreadStateE
000000000009dcd0 w _ZN7rocksdb9Benchmark17WriteUniqueRandomEPNS_11ThreadStateE
000000000009dce0 w _ZN7rocksdb9Benchmark11WriteRandomEPNS_11ThreadStateE
000000000009dcf0 w _ZN7rocksdb9Benchmark8WriteSeqEPNS_11ThreadStateE
000000000009dd00 w _ZN7rocksdb9Benchmark22DoDeterministicCompactEPNS_11ThreadStateENS_15CompactionStyleENS0_9WriteModeE
00000000000a12d0 w _ZN7rocksdb9Benchmark30WriteUniqueRandomDeterministicEPNS_11ThreadStateE
00000000000a1330 w _ZN7rocksdb9Benchmark21WriteSeqDeterministicEPNS_11ThreadStateE
00000000000a1390 w _ZN7rocksdb9Benchmark10DeleteManyEPNS_2DBERKNS_12WriteOptionsERKNS_5SliceE
00000000000a1910 w _ZN7rocksdb9Benchmark16RandomWithVerifyEPNS_11ThreadStateE
00000000000a2780 w _ZN7rocksdb9Benchmark8DoDeleteEPNS_11ThreadStateEb
00000000000a2ef0 w _ZN7rocksdb9Benchmark12DeleteRandomEPNS_11ThreadStateE
00000000000a2f00 w _ZN7rocksdb9Benchmark9DeleteSeqEPNS_11ThreadStateE
00000000000a2f10 t _ZNSt7__cxx1112basic_stringIcSt11char_traitsIcESaIcEE12_M_constructIPcEEvT_S7_St20forward_iterator_tag.isra.64
00000000000a2fe0 t _ZNSt8__detail16_Hashtable_allocISaINS_10_Hash_nodeINSt7__cxx1112basic_stringIcSt11char_traitsIcESaIcEEELb1EEEEE18_M_deallocate_nodeEPS8_.isra.88
00000000000a3010 T _ZNK7rocksdb18SimulatedHybridRaf16RequestRateLimitEl
00000000000a30b0 T _ZNK7rocksdb18SimulatedHybridRaf4ReadEmmRKNS_9IOOptionsEPNS_5SliceEPcPNS_14IODebugContextE
00000000000a3310 T _ZN7rocksdb18SimulatedHybridRaf9MultiReadEPNS_13FSReadRequestEmRKNS_9IOOptionsEPNS_14IODebugContextE
00000000000a3530 T _ZN7rocksdb18SimulatedHybridRaf8PrefetchEmmRKNS_9IOOptionsEPNS_14IODebugContextE
00000000000a3750 T _ZN7rocksdb25SimulatedHybridFileSystemD1Ev
00000000000a3a20 T _ZN7rocksdb25SimulatedHybridFileSystemD0Ev
00000000000a3a40 T _ZN7rocksdb25SimulatedHybridFileSystem19NewRandomAccessFileERKNSt7__cxx1112basic_stringIcSt11char_traitsIcESaIcEEERKNS_11FileOptionsEPSt10unique_ptrINS_18FSRandomAccessFileESt14default_deleteISD_EEPNS_14IODebugContextE
00000000000a3d30 T _ZN7rocksdb25SimulatedHybridFileSystem10DeleteFileERKNSt7__cxx1112basic_stringIcSt11char_traitsIcESaIcEEERKNS_9IOOptionsEPNS_14IODebugContextE
00000000000a3f00 T _ZN7rocksdb25SimulatedHybridFileSystemC2ERKSt10shared_ptrINS_10FileSystemEERKNSt7__cxx1112basic_stringIcSt11char_traitsIcESaIcEEE
00000000000a4990 T _ZN7rocksdb25SimulatedHybridFileSystem15NewWritableFileERKNSt7__cxx1112basic_stringIcSt11char_traitsIcESaIcEEERKNS_11FileOptionsEPSt10unique_ptrINS_14FSWritableFileESt14default_deleteISD_EEPNS_14IODebugContextE
00000000000a4ac0 w _ZN7rocksdb10FileSystem15RegisterDbPathsERKSt6vectorINSt7__cxx1112basic_stringIcSt11char_traitsIcESaIcEEESaIS7_EE
00000000000a4ae0 w _ZN7rocksdb10FileSystem17UnregisterDbPathsERKSt6vectorINSt7__cxx1112basic_stringIcSt11char_traitsIcESaIcEEESaIS7_EE
00000000000a4b00 w _ZNK7rocksdb17FileSystemWrapper4NameEv
00000000000a4b10 w _ZN7rocksdb17FileSystemWrapper19NewRandomAccessFileERKNSt7__cxx1112basic_stringIcSt11char_traitsIcESaIcEEERKNS_11FileOptionsEPSt10unique_ptrINS_18FSRandomAccessFileESt14default_deleteISD_EEPNS_14IODebugContextE
00000000000a4b60 w _ZN7rocksdb17FileSystemWrapper15NewWritableFileERKNSt7__cxx1112basic_stringIcSt11char_traitsIcESaIcEEERKNS_11FileOptionsEPSt10unique_ptrINS_14FSWritableFileESt14default_deleteISD_EEPNS_14IODebugContextE
00000000000a4bb0 w _ZN7rocksdb17FileSystemWrapper18ReopenWritableFileERKNSt7__cxx1112basic_stringIcSt11char_traitsIcESaIcEEERKNS_11FileOptionsEPSt10unique_ptrINS_14FSWritableFileESt14default_deleteISD_EEPNS_14IODebugContextE
00000000000a4c00 w _ZN7rocksdb17FileSystemWrapper17ReuseWritableFileERKNSt7__cxx1112basic_stringIcSt11char_traitsIcESaIcEEES8_RKNS_11FileOptionsEPSt10unique_ptrINS_14FSWritableFileESt14default_deleteISD_EEPNS_14IODebugContextE
00000000000a4c50 w _ZN7rocksdb17FileSystemWrapper15NewRandomRWFileERKNSt7__cxx1112basic_stringIcSt11char_traitsIcESaIcEEERKNS_11FileOptionsEPSt10unique_ptrINS_14FSRandomRWFileESt14default_deleteISD_EEPNS_14IODebugContextE
00000000000a4ca0 w _ZN7rocksdb17FileSystemWrapper25NewMemoryMappedFileBufferERKNSt7__cxx1112basic_stringIcSt11char_traitsIcESaIcEEEPSt10unique_ptrINS_22MemoryMappedFileBufferESt14default_deleteISA_EE
00000000000a4cf0 w _ZN7rocksdb17FileSystemWrapper25GetChildrenFileAttributesERKNSt7__cxx1112basic_stringIcSt11char_traitsIcESaIcEEERKNS_9IOOptionsEPSt6vectorINS_3Env14FileAttributesESaISE_EEPNS_14IODebugContextE
00000000000a4d40 w _ZN7rocksdb17FileSystemWrapper10DeleteFileERKNSt7__cxx1112basic_stringIcSt11char_traitsIcESaIcEEERKNS_9IOOptionsEPNS_14IODebugContextE
00000000000a4d90 w _ZN7rocksdb17FileSystemWrapper8TruncateERKNSt7__cxx1112basic_stringIcSt11char_traitsIcESaIcEEEmRKNS_9IOOptionsEPNS_14IODebugContextE
00000000000a4de0 w _ZN7rocksdb17FileSystemWrapper8LinkFileERKNSt7__cxx1112basic_stringIcSt11char_traitsIcESaIcEEES8_RKNS_9IOOptionsEPNS_14IODebugContextE
00000000000a4e30 w _ZN7rocksdb17FileSystemWrapper12NumFileLinksERKNSt7__cxx1112basic_stringIcSt11char_traitsIcESaIcEEERKNS_9IOOptionsEPmPNS_14IODebugContextE
00000000000a4e80 w _ZN7rocksdb17FileSystemWrapper12AreFilesSameERKNSt7__cxx1112basic_stringIcSt11char_traitsIcESaIcEEES8_RKNS_9IOOptionsEPbPNS_14IODebugContextE
00000000000a4ed0 w _ZNK7rocksdb17FileSystemWrapper19SanitizeFileOptionsEPNS_11FileOptionsE
00000000000a4ee0 w _ZNK7rocksdb17FileSystemWrapper18OptimizeForLogReadERKNS_11FileOptionsE
00000000000a4f30 w _ZNK7rocksdb17FileSystemWrapper23OptimizeForManifestReadERKNS_11FileOptionsE
00000000000a4f80 w _ZNK7rocksdb17FileSystemWrapper19OptimizeForLogWriteERKNS_11FileOptionsERKNS_9DBOptionsE
00000000000a4fd0 w _ZNK7rocksdb17FileSystemWrapper24OptimizeForManifestWriteERKNS_11FileOptionsE
00000000000a5020 w _ZNK7rocksdb17FileSystemWrapper31OptimizeForCompactionTableWriteERKNS_11FileOptionsERKNS_18ImmutableDBOptionsE
00000000000a5070 w _ZNK7rocksdb17FileSystemWrapper30OptimizeForCompactionTableReadERKNS_11FileOptionsERKNS_18ImmutableDBOptionsE
00000000000a50c0 w _ZNK7rocksdb17FileSystemWrapper23OptimizeForBlobFileReadERKNS_11FileOptionsERKNS_18ImmutableDBOptionsE
00000000000a5110 w _ZN7rocksdb17FileSystemWrapper12GetFreeSpaceERKNSt7__cxx1112basic_stringIcSt11char_traitsIcESaIcEEERKNS_9IOOptionsEPmPNS_14IODebugContextE
00000000000a5160 w _ZNK7rocksdb25FSRandomAccessFileWrapper11GetUniqueIdEPcm
00000000000a5170 w _ZN7rocksdb25FSRandomAccessFileWrapper4HintENS_18FSRandomAccessFile13AccessPatternE
00000000000a5180 w _ZNK7rocksdb25FSRandomAccessFileWrapper13use_direct_ioEv
00000000000a5190 w _ZNK7rocksdb25FSRandomAccessFileWrapper26GetRequiredBufferAlignmentEv
00000000000a51a0 w _ZN7rocksdb25FSRandomAccessFileWrapper15InvalidateCacheEmm
00000000000a51f0 w _ZNK7rocksdb25SimulatedHybridFileSystem4NameEv
00000000000a5200 w _ZN7rocksdb11RateLimiter7RequestElNS_3Env10IOPriorityE
00000000000a5210 w _ZN7rocksdb11RateLimiter7RequestElNS_3Env10IOPriorityEPNS_10StatisticsE
00000000000a5230 w _ZN7rocksdb17FileSystemWrapperD0Ev
00000000000a52d0 w _ZN7rocksdb18SimulatedHybridRafD2Ev
00000000000a5360 w _ZN7rocksdb17FileSystemWrapperD2Ev
00000000000a53f0 w _ZN7rocksdb18SimulatedHybridRafD0Ev
00000000000a5480 w _ZN7rocksdb17FileSystemWrapper10FileExistsERKNSt7__cxx1112basic_stringIcSt11char_traitsIcESaIcEEERKNS_9IOOptionsEPNS_14IODebugContextE
00000000000a5570 w _ZN7rocksdb17FileSystemWrapper9DeleteDirERKNSt7__cxx1112basic_stringIcSt11char_traitsIcESaIcEEERKNS_9IOOptionsEPNS_14IODebugContextE
00000000000a5680 w _ZN7rocksdb17FileSystemWrapper9CreateDirERKNSt7__cxx1112basic_stringIcSt11char_traitsIcESaIcEEERKNS_9IOOptionsEPNS_14IODebugContextE
00000000000a5790 w _ZN7rocksdb17FileSystemWrapper10UnlockFileEPNS_8FileLockERKNS_9IOOptionsEPNS_14IODebugContextE
00000000000a58a0 w _ZN7rocksdb17FileSystemWrapper18CreateDirIfMissingERKNSt7__cxx1112basic_stringIcSt11char_traitsIcESaIcEEERKNS_9IOOptionsEPNS_14IODebugContextE
00000000000a59b0 w _ZN7rocksdb17FileSystemWrapper16GetTestDirectoryERKNS_9IOOptionsEPNSt7__cxx1112basic_stringIcSt11char_traitsIcESaIcEEEPNS_14IODebugContextE
00000000000a5ac0 w _ZN7rocksdb17FileSystemWrapper23GetFileModificationTimeERKNSt7__cxx1112basic_stringIcSt11char_traitsIcESaIcEEERKNS_9IOOptionsEPmPNS_14IODebugContextE
00000000000a5bd0 w _ZN7rocksdb17FileSystemWrapper9NewLoggerERKNSt7__cxx1112basic_stringIcSt11char_traitsIcESaIcEEERKNS_9IOOptionsEPSt10shared_ptrINS_6LoggerEEPNS_14IODebugContextE
00000000000a5ce0 w _ZN7rocksdb17FileSystemWrapper10RenameFileERKNSt7__cxx1112basic_stringIcSt11char_traitsIcESaIcEEES8_RKNS_9IOOptionsEPNS_14IODebugContextE
00000000000a5df0 w _ZN7rocksdb17FileSystemWrapper11GetChildrenERKNSt7__cxx1112basic_stringIcSt11char_traitsIcESaIcEEERKNS_9IOOptionsEPSt6vectorIS6_SaIS6_EEPNS_14IODebugContextE
00000000000a5ee0 w _ZN7rocksdb17FileSystemWrapper11GetFileSizeERKNSt7__cxx1112basic_stringIcSt11char_traitsIcESaIcEEERKNS_9IOOptionsEPmPNS_14IODebugContextE
00000000000a5ff0 w _ZN7rocksdb17FileSystemWrapper17NewSequentialFileERKNSt7__cxx1112basic_stringIcSt11char_traitsIcESaIcEEERKNS_11FileOptionsEPSt10unique_ptrINS_16FSSequentialFileESt14default_deleteISD_EEPNS_14IODebugContextE
00000000000a60e0 w _ZN7rocksdb17FileSystemWrapper8LockFileERKNSt7__cxx1112basic_stringIcSt11char_traitsIcESaIcEEERKNS_9IOOptionsEPPNS_8FileLockEPNS_14IODebugContextE
00000000000a61f0 w _ZN7rocksdb17FileSystemWrapper11IsDirectoryERKNSt7__cxx1112basic_stringIcSt11char_traitsIcESaIcEEERKNS_9IOOptionsEPbPNS_14IODebugContextE
00000000000a6300 w _ZN7rocksdb17FileSystemWrapper15GetAbsolutePathERKNSt7__cxx1112basic_stringIcSt11char_traitsIcESaIcEEERKNS_9IOOptionsEPS6_PNS_14IODebugContextE
00000000000a6410 w _ZN7rocksdb17FileSystemWrapper12NewDirectoryERKNSt7__cxx1112basic_stringIcSt11char_traitsIcESaIcEEERKNS_9IOOptionsEPSt10unique_ptrINS_11FSDirectoryESt14default_deleteISD_EEPNS_14IODebugContextE
00000000000a6500 w _ZNSt10_HashtableINSt7__cxx1112basic_stringIcSt11char_traitsIcESaIcEEES5_SaIS5_ENSt8__detail9_IdentityESt8equal_toIS5_ESt4hashIS5_ENS7_18_Mod_range_hashingENS7_20_Default_ranged_hashENS7_20_Prime_rehash_policyENS7_17_Hashtable_traitsILb1ELb1ELb1EEEED1Ev
00000000000a6580 w _ZNKSt10_HashtableINSt7__cxx1112basic_stringIcSt11char_traitsIcESaIcEEES5_SaIS5_ENSt8__detail9_IdentityESt8equal_toIS5_ESt4hashIS5_ENS7_18_Mod_range_hashingENS7_20_Default_ranged_hashENS7_20_Prime_rehash_policyENS7_17_Hashtable_traitsILb1ELb1ELb1EEEE19_M_find_before_nodeEmRKS5_m
00000000000a6630 w _ZNSt10_HashtableINSt7__cxx1112basic_stringIcSt11char_traitsIcESaIcEEES5_SaIS5_ENSt8__detail9_IdentityESt8equal_toIS5_ESt4hashIS5_ENS7_18_Mod_range_hashingENS7_20_Default_ranged_hashENS7_20_Prime_rehash_policyENS7_17_Hashtable_traitsILb1ELb1ELb1EEEE9_M_rehashEmRKm
00000000000a6770 w _ZNSt10_HashtableINSt7__cxx1112basic_stringIcSt11char_traitsIcESaIcEEES5_SaIS5_ENSt8__detail9_IdentityESt8equal_toIS5_ESt4hashIS5_ENS7_18_Mod_range_hashingENS7_20_Default_ranged_hashENS7_20_Prime_rehash_policyENS7_17_Hashtable_traitsILb1ELb1ELb1EEEE21_M_insert_unique_nodeEmmPNS7_10_Hash_nodeIS5_Lb1EEE
00000000000a6890 w _ZNSt10_HashtableINSt7__cxx1112basic_stringIcSt11char_traitsIcESaIcEEES5_SaIS5_ENSt8__detail9_IdentityESt8equal_toIS5_ESt4hashIS5_ENS7_18_Mod_range_hashingENS7_20_Default_ranged_hashENS7_20_Prime_rehash_policyENS7_17_Hashtable_traitsILb1ELb1ELb1EEEE9_M_insertIRKS5_NS7_10_AllocNodeISaINS7_10_Hash_nodeIS5_Lb1EEEEEEEESt4pairINS7_14_Node_iteratorIS5_Lb1ELb1EEEbEOT_RKT0_St17integral_constantIbLb1EE
00000000000a6980 t _ZNK7rocksdb4test12_GLOBAL__N_120Uint64ComparatorImpl4NameEv
00000000000a6990 t _ZNK7rocksdb4test12_GLOBAL__N_120Uint64ComparatorImpl7CompareERKNS_5SliceES5_
00000000000a69b0 t _ZNK7rocksdb4test12_GLOBAL__N_120Uint64ComparatorImpl21FindShortestSeparatorEPNSt7__cxx1112basic_stringIcSt11char_traitsIcESaIcEEERKNS_5SliceE
00000000000a69c0 t _ZNK7rocksdb4test12_GLOBAL__N_120Uint64ComparatorImpl18FindShortSuccessorEPNSt7__cxx1112basic_stringIcSt11char_traitsIcESaIcEEE
00000000000a69d0 t _ZNK7rocksdb4test12_GLOBAL__N_123ComparatorWithU64TsImpl4NameEv
00000000000a69e0 t _ZNK7rocksdb4test12_GLOBAL__N_123ComparatorWithU64TsImpl23CompareWithoutTimestampERKNS_5SliceEbS5_b
00000000000a6a70 t _ZNK7rocksdb4test12_GLOBAL__N_123ComparatorWithU64TsImpl16CompareTimestampERKNS_5SliceES5_
00000000000a6a90 t _ZNSt14_Function_base13_Base_managerIZN7rocksdb4test19RegisterTestObjectsERNS1_13ObjectLibraryERKNSt7__cxx1112basic_stringIcSt11char_traitsIcESaIcEEEEUlSC_PSt10unique_ptrIKNS1_10ComparatorESt14default_deleteISF_EEPSA_E_E10_M_managerERSt9_Any_dataRKSN_St18_Manager_operation
00000000000a6aa0 t _ZNSt14_Function_base13_Base_managerIZN7rocksdb4test19RegisterTestObjectsERNS1_13ObjectLibraryERKNSt7__cxx1112basic_stringIcSt11char_traitsIcESaIcEEEEUlSC_PSt10unique_ptrINS1_13MergeOperatorESt14default_deleteISE_EEPSA_E0_E10_M_managerERSt9_Any_dataRKSM_St18_Manager_operation
00000000000a6ab0 t _ZNSt14_Function_base13_Base_managerIZN7rocksdb4test19RegisterTestObjectsERNS1_13ObjectLibraryERKNSt7__cxx1112basic_stringIcSt11char_traitsIcESaIcEEEEUlSC_PSt10unique_ptrINS1_16CompactionFilterESt14default_deleteISE_EEPSA_E1_E10_M_managerERSt9_Any_dataRKSM_St18_Manager_operation
00000000000a6ac0 t _ZNSt14_Function_base13_Base_managerIZN7rocksdb4test19RegisterTestObjectsERNS1_13ObjectLibraryERKNSt7__cxx1112basic_stringIcSt11char_traitsIcESaIcEEEEUlSC_PSt10unique_ptrINS1_23CompactionFilterFactoryESt14default_deleteISE_EEPSA_E2_E10_M_managerERSt9_Any_dataRKSM_St18_Manager_operation
00000000000a6ad0 t _ZNSt17_Function_handlerIFPKN7rocksdb10ComparatorERKNSt7__cxx1112basic_stringIcSt11char_traitsIcESaIcEEEPSt10unique_ptrIS2_St14default_deleteIS2_EEPS9_EZNS0_4test19RegisterTestObjectsERNS0_13ObjectLibraryESB_EUlSB_SG_SH_E_E9_M_invokeERKSt9_Any_dataSB_OSG_OSH_
00000000000a6b70 t _ZNSt7__cxx1112basic_stringIcSt11char_traitsIcESaIcEE12_M_constructIPcEEvT_S7_St20forward_iterator_tag.isra.184
00000000000a6c40 t _ZNK7rocksdb4test12_GLOBAL__N_123ComparatorWithU64TsImpl7CompareERKNS_5SliceES5_
00000000000a6d00 t _ZN7rocksdb4test12_GLOBAL__N_123ComparatorWithU64TsImplD2Ev
00000000000a6dd0 t _ZN7rocksdb4test12_GLOBAL__N_120Uint64ComparatorImplD2Ev
00000000000a6ea0 t _ZN7rocksdb4test12_GLOBAL__N_120Uint64ComparatorImplD0Ev
00000000000a6f40 t _ZN7rocksdb4test12_GLOBAL__N_123ComparatorWithU64TsImplD0Ev
00000000000a6fe0 T _ZN7rocksdb4test9RandomKeyB5cxx11EPNS_6RandomEiNS0_13RandomKeyTypeE
00000000000a7130 T _ZN7rocksdb4test18CompressibleStringEPNS_6RandomEdiPNSt7__cxx1112basic_stringIcSt11char_traitsIcESaIcEEE
00000000000a7220 T _ZN7rocksdb4test16Uint64ComparatorEv
00000000000a72c0 T _ZN7rocksdb4test14CorruptKeyTypeEPNS_11InternalKeyE
00000000000a7380 T _ZN7rocksdb4test6KeyStrERKNSt7__cxx1112basic_stringIcSt11char_traitsIcESaIcEEERKmRKNS_9ValueTypeEb
00000000000a7470 T _ZN7rocksdb4test6KeyStrEmRKNSt7__cxx1112basic_stringIcSt11char_traitsIcESaIcEEERKmRKNS_9ValueTypeEb
00000000000a75b0 T _ZN7rocksdb4test22SleepingBackgroundTask22TimedWaitUntilSleepingEm
00000000000a76a0 T _ZN7rocksdb4test22SleepingBackgroundTask18TimedWaitUntilDoneEm
00000000000a7780 T _ZN7rocksdb4test10RandomNameB5cxx11EPNS_6RandomEm
00000000000a7a40 T _ZN7rocksdb4test21RandomCompressionTypeEPNS_6RandomE
00000000000a7a80 T _ZN7rocksdb4test27RandomCompressionTypeVectorEmPSt6vectorINS_15CompressionTypeESaIS2_EEPNS_6RandomE
00000000000a7c20 T _ZN7rocksdb4test20RandomSliceTransformEPNS_6RandomEi
00000000000a7d00 T _ZN7rocksdb4test28RandomBlockBasedTableOptionsEPNS_6RandomE
00000000000a8080 T _ZN7rocksdb4test19RandomInitDBOptionsEPNS_9DBOptionsEPNS_6RandomE
00000000000a89f0 T _ZN7rocksdb4test19IsDirectIOSupportedEPNS_3EnvERKNSt7__cxx1112basic_stringIcSt11char_traitsIcESaIcEEE
00000000000a8b90 T _ZN7rocksdb4test19IsPrefetchSupportedERKSt10shared_ptrINS_10FileSystemEERKNSt7__cxx1112basic_stringIcSt11char_traitsIcESaIcEEE
00000000000a8ee0 T _ZN7rocksdb4test13GetLinesCountERKNSt7__cxx1112basic_stringIcSt11char_traitsIcESaIcEEES8_
00000000000a9290 T _ZN7rocksdb4test12TruncateFileEPNS_3EnvERKNSt7__cxx1112basic_stringIcSt11char_traitsIcESaIcEEEm
00000000000a9410 T _ZN7rocksdb4test12TryDeleteDirEPNS_3EnvERKNSt7__cxx1112basic_stringIcSt11char_traitsIcESaIcEEE
00000000000a94f0 T _ZN7rocksdb4test9DeleteDirEPNS_3EnvERKNSt7__cxx1112basic_stringIcSt11char_traitsIcESaIcEEE
00000000000a9540 T _ZN7rocksdb4test19RandomMergeOperatorEPNS_6RandomE
00000000000a9690 T _ZN7rocksdb4test22RandomCompactionFilterEPNS_6RandomE
00000000000a97e0 T _ZN7rocksdb4test29RandomCompactionFilterFactoryEPNS_6RandomE
00000000000a9930 T _ZN7rocksdb4test19ComparatorWithU64TsEv
00000000000a9a20 t _ZNSt17_Function_handlerIFPN7rocksdb16CompactionFilterERKNSt7__cxx1112basic_stringIcSt11char_traitsIcESaIcEEEPSt10unique_ptrIS1_St14default_deleteIS1_EEPS8_EZNS0_4test19RegisterTestObjectsERNS0_13ObjectLibraryESA_EUlSA_SF_SG_E1_E9_M_invokeERKSt9_Any_dataSA_OSF_OSG_
00000000000a9b00 t _ZNSt17_Function_handlerIFPN7rocksdb13MergeOperatorERKNSt7__cxx1112basic_stringIcSt11char_traitsIcESaIcEEEPSt10unique_ptrIS1_St14default_deleteIS1_EEPS8_EZNS0_4test19RegisterTestObjectsERNS0_13ObjectLibraryESA_EUlSA_SF_SG_E0_E9_M_invokeERKSt9_Any_dataSA_OSF_OSG_
00000000000a9cd0 t _ZNSt17_Function_handlerIFPN7rocksdb23CompactionFilterFactoryERKNSt7__cxx1112basic_stringIcSt11char_traitsIcESaIcEEEPSt10unique_ptrIS1_St14default_deleteIS1_EEPS8_EZNS0_4test19RegisterTestObjectsERNS0_13ObjectLibraryESA_EUlSA_SF_SG_E2_E9_M_invokeERKSt9_Any_dataSA_OSF_OSG_
00000000000a9ea0 T _ZN7rocksdb4test11CorruptFileEPNS_3EnvERKNSt7__cxx1112basic_stringIcSt11char_traitsIcESaIcEEEiib
00000000000aa1b0 T _ZN7rocksdb4test19CreateEnvFromSystemERKNS_13ConfigOptionsEPPNS_3EnvEPSt10shared_ptrIS4_E
00000000000aa390 T _ZN7rocksdb4test18RandomTableFactoryEPNS_6RandomEi
00000000000aa5d0 T _ZN7rocksdb4test19RandomInitCFOptionsEPNS_19ColumnFamilyOptionsERNS_9DBOptionsEPNS_6RandomE
00000000000ab3b0 t _ZNSt8_Rb_treeIlSt4pairIKllESt10_Select1stIS2_ESt4lessIlESaIS2_EE22_M_emplace_hint_uniqueIJRKSt21piecewise_construct_tSt5tupleIJRS1_EESD_IJEEEEESt17_Rb_tree_iteratorIS2_ESt23_Rb_tree_const_iteratorIS2_EDpOT_.isra.591
00000000000ab470 t _ZSt22__final_insertion_sortIN9__gnu_cxx17__normal_iteratorIPcSt6vectorIcSaIcEEEENS0_5__ops15_Iter_less_iterEEvT_S9_T0_.isra.592
00000000000ab520 t _ZSt16__introsort_loopIN9__gnu_cxx17__normal_iteratorIPcSt6vectorIcSaIcEEEElNS0_5__ops15_Iter_less_iterEEvT_S9_T0_T1_.isra.601
00000000000ab6d0 T _ZN7rocksdb4test19RegisterTestObjectsERNS_13ObjectLibraryERKNSt7__cxx1112basic_stringIcSt11char_traitsIcESaIcEEE
00000000000ac5b0 w _ZNKSt5ctypeIcE9do_narrowEcc
00000000000ac5c0 w _ZNK7rocksdb10Comparator5EqualERKNS_5SliceES3_
00000000000ac5e0 w _ZNK7rocksdb10Comparator17GetRootComparatorEv
00000000000ac5f0 w _ZNK7rocksdb10Comparator30IsSameLengthImmediateSuccessorERKNS_5SliceES3_
00000000000ac600 w _ZNK7rocksdb10Comparator39CanKeysWithDifferentByteContentsBeEqualEv
00000000000ac610 w _ZNK7rocksdb10Comparator16CompareTimestampERKNS_5SliceES3_
00000000000ac620 w _ZNK7rocksdb10Comparator23CompareWithoutTimestampERKNS_5SliceEbS3_b
00000000000ac630 w _ZNK7rocksdb10Comparator21EqualWithoutTimestampERKNS_5SliceES3_
00000000000ac660 w _ZNK7rocksdb23CompactionFilterFactory29ShouldFilterTableFileCreationENS_23TableFileCreationReasonE
00000000000ac670 w _ZNK7rocksdb13MergeOperator9FullMergeERKNS_5SliceEPS2_RKSt5dequeINSt7__cxx1112basic_stringIcSt11char_traitsIcESaIcEEESaISB_EEPSB_PNS_6LoggerE
00000000000ac680 w _ZNK7rocksdb13MergeOperator12PartialMergeERKNS_5SliceES3_S3_PNSt7__cxx1112basic_stringIcSt11char_traitsIcESaIcEEEPNS_6LoggerE
00000000000ac690 w _ZNK7rocksdb13MergeOperator18AllowSingleOperandEv
00000000000ac6a0 w _ZNK7rocksdb13MergeOperator11ShouldMergeERKSt6vectorINS_5SliceESaIS2_EE
00000000000ac6b0 w _ZNK7rocksdb4test29SimpleSuffixReverseComparator4NameEv
00000000000ac6c0 w _ZNK7rocksdb4test29SimpleSuffixReverseComparator21FindShortestSeparatorEPNSt7__cxx1112basic_stringIcSt11char_traitsIcESaIcEEERKNS_5SliceE
00000000000ac6d0 w _ZNK7rocksdb4test29SimpleSuffixReverseComparator18FindShortSuccessorEPNSt7__cxx1112basic_stringIcSt11char_traitsIcESaIcEEE
00000000000ac6e0 w _ZNK7rocksdb4test22ChanglingMergeOperator11FullMergeV2ERKNS_13MergeOperator19MergeOperationInputEPNS2_20MergeOperationOutputE
00000000000ac6f0 w _ZNK7rocksdb4test22ChanglingMergeOperator17PartialMergeMultiERKNS_5SliceERKSt5dequeIS2_SaIS2_EEPNSt7__cxx1112basic_stringIcSt11char_traitsIcESaIcEEEPNS_6LoggerE
00000000000ac700 w _ZNK7rocksdb4test22ChanglingMergeOperator4NameEv
00000000000ac710 w _ZNK7rocksdb4test25ChanglingCompactionFilter6FilterEiRKNS_5SliceES4_PNSt7__cxx1112basic_stringIcSt11char_traitsIcESaIcEEEPb
00000000000ac720 w _ZNK7rocksdb4test25ChanglingCompactionFilter4NameEv
00000000000ac730 w _ZN7rocksdb4test32ChanglingCompactionFilterFactory22CreateCompactionFilterERKNS_16CompactionFilter7ContextE
00000000000ac740 w _ZNK7rocksdb4test32ChanglingCompactionFilterFactory4NameEv
00000000000ac750 w _ZNSt14_Function_base13_Base_managerINSt8__detail11_AnyMatcherINSt7__cxx1112regex_traitsIcEELb0ELb0ELb0EEEE10_M_managerERSt9_Any_dataRKS8_St18_Manager_operation
00000000000ac760 w _ZNSt14_Function_base13_Base_managerINSt8__detail11_AnyMatcherINSt7__cxx1112regex_traitsIcEELb0ELb0ELb1EEEE10_M_managerERSt9_Any_dataRKS8_St18_Manager_operation
00000000000ac780 w _ZNSt14_Function_base13_Base_managerINSt8__detail11_AnyMatcherINSt7__cxx1112regex_traitsIcEELb0ELb1ELb0EEEE10_M_managerERSt9_Any_dataRKS8_St18_Manager_operation
00000000000ac7a0 w _ZNSt14_Function_base13_Base_managerINSt8__detail11_AnyMatcherINSt7__cxx1112regex_traitsIcEELb0ELb1ELb1EEEE10_M_managerERSt9_Any_dataRKS8_St18_Manager_operation
00000000000ac7c0 w _ZNSt17_Function_handlerIFbcENSt8__detail11_AnyMatcherINSt7__cxx1112regex_traitsIcEELb1ELb0ELb0EEEE9_M_invokeERKSt9_Any_dataOc
00000000000ac7e0 w _ZNSt14_Function_base13_Base_managerINSt8__detail11_AnyMatcherINSt7__cxx1112regex_traitsIcEELb1ELb0ELb0EEEE10_M_managerERSt9_Any_dataRKS8_St18_Manager_operation
00000000000ac7f0 w _ZNSt17_Function_handlerIFbcENSt8__detail11_AnyMatcherINSt7__cxx1112regex_traitsIcEELb1ELb0ELb1EEEE9_M_invokeERKSt9_Any_dataOc
00000000000ac810 w _ZNSt14_Function_base13_Base_managerINSt8__detail11_AnyMatcherINSt7__cxx1112regex_traitsIcEELb1ELb0ELb1EEEE10_M_managerERSt9_Any_dataRKS8_St18_Manager_operation
00000000000ac830 w _ZNSt14_Function_base13_Base_managerINSt8__detail11_AnyMatcherINSt7__cxx1112regex_traitsIcEELb1ELb1ELb0EEEE10_M_managerERSt9_Any_dataRKS8_St18_Manager_operation
00000000000ac850 w _ZNSt14_Function_base13_Base_managerINSt8__detail11_AnyMatcherINSt7__cxx1112regex_traitsIcEELb1ELb1ELb1EEEE10_M_managerERSt9_Any_dataRKS8_St18_Manager_operation
00000000000ac870 w _ZNSt17_Function_handlerIFbcENSt8__detail12_CharMatcherINSt7__cxx1112regex_traitsIcEELb0ELb0EEEE9_M_invokeERKSt9_Any_dataOc
00000000000ac880 w _ZNSt14_Function_base13_Base_managerINSt8__detail12_CharMatcherINSt7__cxx1112regex_traitsIcEELb0ELb0EEEE10_M_managerERSt9_Any_dataRKS8_St18_Manager_operation
00000000000ac8a0 w _ZNSt17_Function_handlerIFbcENSt8__detail12_CharMatcherINSt7__cxx1112regex_traitsIcEELb0ELb1EEEE9_M_invokeERKSt9_Any_dataOc
00000000000ac8b0 w _ZNSt14_Function_base13_Base_managerINSt8__detail12_CharMatcherINSt7__cxx1112regex_traitsIcEELb0ELb1EEEE10_M_managerERSt9_Any_dataRKS8_St18_Manager_operation
00000000000ac8d0 w _ZNSt14_Function_base13_Base_managerINSt8__detail12_CharMatcherINSt7__cxx1112regex_traitsIcEELb1ELb0EEEE10_M_managerERSt9_Any_dataRKS8_St18_Manager_operation
00000000000ac8f0 w _ZNSt14_Function_base13_Base_managerINSt8__detail12_CharMatcherINSt7__cxx1112regex_traitsIcEELb1ELb1EEEE10_M_managerERSt9_Any_dataRKS8_St18_Manager_operation
00000000000ac910 w _ZNSt17_Function_handlerIFbcENSt8__detail15_BracketMatcherINSt7__cxx1112regex_traitsIcEELb0ELb0EEEE9_M_invokeERKSt9_Any_dataOc
00000000000ac940 w _ZNSt17_Function_handlerIFbcENSt8__detail15_BracketMatcherINSt7__cxx1112regex_traitsIcEELb0ELb1EEEE9_M_invokeERKSt9_Any_dataOc
00000000000ac970 w _ZNSt17_Function_handlerIFbcENSt8__detail15_BracketMatcherINSt7__cxx1112regex_traitsIcEELb1ELb0EEEE9_M_invokeERKSt9_Any_dataOc
00000000000ac9a0 w _ZNSt17_Function_handlerIFbcENSt8__detail15_BracketMatcherINSt7__cxx1112regex_traitsIcEELb1ELb1EEEE9_M_invokeERKSt9_Any_dataOc
00000000000ac9d0 w _ZNSt15_Sp_counted_ptrIPN7rocksdb23CompactionFilterFactoryELN9__gnu_cxx12_Lock_policyE2EED1Ev
00000000000ac9e0 w _ZNSt15_Sp_counted_ptrIPN7rocksdb13MergeOperatorELN9__gnu_cxx12_Lock_policyE2EED1Ev
00000000000ac9f0 w _ZNSt19_Sp_counted_deleterIPNSt8__detail4_NFAINSt7__cxx1112regex_traitsIcEEEENSt12__shared_ptrIS5_LN9__gnu_cxx12_Lock_policyE2EE8_DeleterISaIS5_EEESC_LS9_2EED2Ev
00000000000aca00 w _ZNSt19_Sp_counted_deleterIPNSt8__detail4_NFAINSt7__cxx1112regex_traitsIcEEEENSt12__shared_ptrIS5_LN9__gnu_cxx12_Lock_policyE2EE8_DeleterISaIS5_EEESC_LS9_2EE14_M_get_deleterERKSt9type_info
00000000000aca10 w _ZNSt15_Sp_counted_ptrIPN7rocksdb23CompactionFilterFactoryELN9__gnu_cxx12_Lock_policyE2EE14_M_get_deleterERKSt9type_info
00000000000aca20 w _ZNSt15_Sp_counted_ptrIPN7rocksdb13MergeOperatorELN9__gnu_cxx12_Lock_policyE2EE14_M_get_deleterERKSt9type_info
00000000000aca30 w _ZNSt15_Sp_counted_ptrIPN7rocksdb23CompactionFilterFactoryELN9__gnu_cxx12_Lock_policyE2EED0Ev
00000000000aca40 w _ZNSt15_Sp_counted_ptrIPN7rocksdb23CompactionFilterFactoryELN9__gnu_cxx12_Lock_policyE2EE10_M_destroyEv
00000000000aca50 w _ZNSt15_Sp_counted_ptrIPN7rocksdb13MergeOperatorELN9__gnu_cxx12_Lock_policyE2EED0Ev
00000000000aca60 w _ZNSt15_Sp_counted_ptrIPN7rocksdb13MergeOperatorELN9__gnu_cxx12_Lock_policyE2EE10_M_destroyEv
00000000000aca70 w _ZN7rocksdb13ObjectLibrary5EntryD1Ev
00000000000acaa0 w _ZN7rocksdb13ObjectLibrary5EntryD0Ev
00000000000acae0 w _ZNSt19_Sp_counted_deleterIPNSt8__detail4_NFAINSt7__cxx1112regex_traitsIcEEEENSt12__shared_ptrIS5_LN9__gnu_cxx12_Lock_policyE2EE8_DeleterISaIS5_EEESC_LS9_2EED0Ev
00000000000acaf0 w _ZNSt19_Sp_counted_deleterIPNSt8__detail4_NFAINSt7__cxx1112regex_traitsIcEEEENSt12__shared_ptrIS5_LN9__gnu_cxx12_Lock_policyE2EE8_DeleterISaIS5_EEESC_LS9_2EE10_M_destroyEv
00000000000acb00 w _ZNSt17_Function_handlerIFbcENSt8__detail11_AnyMatcherINSt7__cxx1112regex_traitsIcEELb0ELb0ELb0EEEE9_M_invokeERKSt9_Any_dataOc
00000000000acb70 w _ZNSt17_Function_handlerIFbcENSt8__detail11_AnyMatcherINSt7__cxx1112regex_traitsIcEELb0ELb0ELb1EEEE9_M_invokeERKSt9_Any_dataOc
00000000000acbe0 w _ZNK7rocksdb4test29SimpleSuffixReverseComparator7CompareERKNS_5SliceES4_
00000000000acc80 w _ZNSt17_Function_handlerIFbcENSt8__detail11_AnyMatcherINSt7__cxx1112regex_traitsIcEELb1ELb1ELb0EEEE9_M_invokeERKSt9_Any_dataOc
00000000000acd00 w _ZNSt17_Function_handlerIFbcENSt8__detail11_AnyMatcherINSt7__cxx1112regex_traitsIcEELb1ELb1ELb1EEEE9_M_invokeERKSt9_Any_dataOc
00000000000acd80 w _ZNSt17_Function_handlerIFbcENSt8__detail12_CharMatcherINSt7__cxx1112regex_traitsIcEELb1ELb0EEEE9_M_invokeERKSt9_Any_dataOc
00000000000acdb0 w _ZNSt17_Function_handlerIFbcENSt8__detail12_CharMatcherINSt7__cxx1112regex_traitsIcEELb1ELb1EEEE9_M_invokeERKSt9_Any_dataOc
00000000000acde0 w _ZNK7rocksdb13ObjectLibrary5Entry7matchesERKNSt7__cxx1112basic_stringIcSt11char_traitsIcESaIcEEE
00000000000ace20 w _ZNSt17_Function_handlerIFbcENSt8__detail11_AnyMatcherINSt7__cxx1112regex_traitsIcEELb0ELb1ELb0EEEE9_M_invokeERKSt9_Any_dataOc
00000000000acec0 w _ZNSt17_Function_handlerIFbcENSt8__detail11_AnyMatcherINSt7__cxx1112regex_traitsIcEELb0ELb1ELb1EEEE9_M_invokeERKSt9_Any_dataOc
00000000000acf60 w _ZNK7rocksdb4test32ChanglingCompactionFilterFactory12IsInstanceOfERKNSt7__cxx1112basic_stringIcSt11char_traitsIcESaIcEEE
00000000000ad010 w _ZNK7rocksdb4test25ChanglingCompactionFilter12IsInstanceOfERKNSt7__cxx1112basic_stringIcSt11char_traitsIcESaIcEEE
00000000000ad0c0 w _ZNK7rocksdb4test22ChanglingMergeOperator12IsInstanceOfERKNSt7__cxx1112basic_stringIcSt11char_traitsIcESaIcEEE
00000000000ad170 w _ZN7rocksdb4test29SimpleSuffixReverseComparatorD2Ev
00000000000ad240 w _ZN7rocksdb4test25ChanglingCompactionFilterD0Ev
00000000000ad300 w _ZN7rocksdb4test32ChanglingCompactionFilterFactoryD0Ev
00000000000ad3c0 w _ZN7rocksdb4test22ChanglingMergeOperatorD0Ev
00000000000ad480 w _ZN7rocksdb4test29SimpleSuffixReverseComparatorD0Ev
00000000000ad520 w _ZN7rocksdb4test32ChanglingCompactionFilterFactoryD2Ev
00000000000ad5f0 w _ZN7rocksdb4test25ChanglingCompactionFilterD1Ev
00000000000ad6c0 w _ZN7rocksdb4test22ChanglingMergeOperatorD1Ev
00000000000ad790 w _ZSt19__throw_regex_errorNSt15regex_constants10error_typeEPKc
00000000000ad800 w _ZNSt8__detail8_ScannerIcE18_M_eat_escape_ecmaEv
00000000000adbb0 w _ZNSt15_Sp_counted_ptrIPN7rocksdb23CompactionFilterFactoryELN9__gnu_cxx12_Lock_policyE2EE10_M_disposeEv
00000000000adc30 w _ZNSt15_Sp_counted_ptrIPN7rocksdb13MergeOperatorELN9__gnu_cxx12_Lock_policyE2EE10_M_disposeEv
00000000000adcb0 w _ZNSt6vectorINSt7__cxx1112basic_stringIcSt11char_traitsIcESaIcEEESaIS5_EEC2ERKS7_
00000000000addd0 w _ZSteqIcEN9__gnu_cxx11__enable_ifIXsrSt9__is_charIT_E7__valueEbE6__typeERKNSt7__cxx1112basic_stringIS3_St11char_traitsIS3_ESaIS3_EEESE_
00000000000ade00 w _ZN7rocksdb13ObjectLibrary12FactoryEntryINS_13MergeOperatorEED1Ev
00000000000ade80 w _ZN7rocksdb13ObjectLibrary12FactoryEntryIKNS_10ComparatorEED1Ev
00000000000adf00 w _ZN7rocksdb13ObjectLibrary12FactoryEntryINS_16CompactionFilterEED1Ev
00000000000adf80 w _ZN7rocksdb13ObjectLibrary12FactoryEntryINS_23CompactionFilterFactoryEED2Ev
00000000000ae000 w _ZN7rocksdb13ObjectLibrary12FactoryEntryIKNS_10ComparatorEED0Ev
00000000000ae070 w _ZN7rocksdb13ObjectLibrary12FactoryEntryINS_13MergeOperatorEED0Ev
00000000000ae0e0 w _ZN7rocksdb13ObjectLibrary12FactoryEntryINS_16CompactionFilterEED0Ev
00000000000ae150 w _ZN7rocksdb13ObjectLibrary12FactoryEntryINS_23CompactionFilterFactoryEED0Ev
00000000000ae1c0 w _ZNSt6vectorINSt7__cxx1112basic_stringIcSt11char_traitsIcESaIcEEESaIS5_EE9push_backERKS5_
00000000000ae220 w _ZNSt6vectorIiSaIiEE17_M_default_appendEm
00000000000ae3a0 w _ZNSt8__detail9_CompilerINSt7__cxx1112regex_traitsIcEEE6_M_popEv
00000000000ae450 w _ZNSt11_Deque_baseINSt8__detail9_StateSeqINSt7__cxx1112regex_traitsIcEEEESaIS5_EED2Ev
00000000000ae4c0 w _ZNSt8__detail6_StateIcED1Ev
00000000000ae4f0 w _ZNSt19_Sp_counted_deleterIPNSt8__detail4_NFAINSt7__cxx1112regex_traitsIcEEEENSt12__shared_ptrIS5_LN9__gnu_cxx12_Lock_policyE2EE8_DeleterISaIS5_EEESC_LS9_2EE10_M_disposeEv
00000000000ae590 w _ZNSt8__detail6_StateIcEC1EOS1_
00000000000ae620 w _ZNSt8__detail8_ScannerIcE17_M_eat_escape_awkEv
00000000000ae810 w _ZNSt8__detail8_ScannerIcE19_M_eat_escape_posixEv
00000000000ae980 w _ZNSt8__detail8_ScannerIcE14_M_scan_normalEv
00000000000aedc0 w _ZNSt8__detail8_ScannerIcE16_M_scan_in_braceEv
00000000000af000 w _ZNSt6vectorImSaImEE17_M_realloc_insertIJRKmEEEvN9__gnu_cxx17__normal_iteratorIPmS1_EEDpOT_
00000000000af140 w _ZNSt8__detail8_ScannerIcE12_M_eat_classEc
00000000000af2c0 w _ZNSt8__detail8_ScannerIcE18_M_scan_in_bracketEv
00000000000af4b0 w _ZNSt8__detail8_ScannerIcE10_M_advanceEv
00000000000af500 w _ZNSt8__detail8_ScannerIcEC1EPKcS3_NSt15regex_constants18syntax_option_typeESt6locale
00000000000af750 w _ZZNSt8__detail9_CompilerINSt7__cxx1112regex_traitsIcEEE13_M_quantifierEvENKUlvE_clEv
00000000000af7f0 w _ZNSt8__detail15_BracketMatcherINSt7__cxx1112regex_traitsIcEELb0ELb0EED2Ev
00000000000af890 w _ZNSt14_Function_base13_Base_managerINSt8__detail15_BracketMatcherINSt7__cxx1112regex_traitsIcEELb0ELb0EEEE10_M_managerERSt9_Any_dataRKS8_St18_Manager_operation
00000000000afb80 w _ZNSt8__detail15_BracketMatcherINSt7__cxx1112regex_traitsIcEELb0ELb1EED2Ev
00000000000afc60 w _ZNSt8__detail15_BracketMatcherINSt7__cxx1112regex_traitsIcEELb1ELb0EED1Ev
00000000000afd00 w _ZNSt14_Function_base13_Base_managerINSt8__detail15_BracketMatcherINSt7__cxx1112regex_traitsIcEELb1ELb0EEEE10_M_managerERSt9_Any_dataRKS8_St18_Manager_operation
00000000000b0000 w _ZNSt8__detail15_BracketMatcherINSt7__cxx1112regex_traitsIcEELb1ELb1EED1Ev
00000000000b00e0 w _ZNKSt7__cxx1112regex_traitsIcE5valueEci
00000000000b04e0 w _ZNSt8__detail9_CompilerINSt7__cxx1112regex_traitsIcEEE16_M_cur_int_valueEi
00000000000b0560 w _ZNSt8__detail9_CompilerINSt7__cxx1112regex_traitsIcEEE11_M_try_charEv
00000000000b0660 w _ZNSt8functionIFbcEEC1INSt8__detail15_BracketMatcherINSt7__cxx1112regex_traitsIcEELb0ELb0EEEvvEET_
00000000000b07c0 w _ZNSt6vectorISt4pairINSt7__cxx1112basic_stringIcSt11char_traitsIcESaIcEEES6_ESaIS7_EED2Ev
00000000000b0840 w _ZNSt8functionIFbcEEC2INSt8__detail15_BracketMatcherINSt7__cxx1112regex_traitsIcEELb0ELb1EEEvvEET_
00000000000b09b0 w _ZNSt8functionIFbcEEC1INSt8__detail15_BracketMatcherINSt7__cxx1112regex_traitsIcEELb1ELb0EEEvvEET_
00000000000b0b20 w _ZNSt8functionIFbcEEC2INSt8__detail15_BracketMatcherINSt7__cxx1112regex_traitsIcEELb1ELb1EEEvvEET_
00000000000b0c90 w _ZNKSt7__cxx1112regex_traitsIcE16lookup_classnameIPKcEENS1_10_RegexMaskET_S6_b
00000000000b0e90 w _ZNSt8_Rb_treeIlSt4pairIKllESt10_Select1stIS2_ESt4lessIlESaIS2_EE8_M_eraseEPSt13_Rb_tree_nodeIS2_E
00000000000b0ee0 w _ZNSt8functionIFbcEEC2ERKS1_
00000000000b0f50 w _ZNSt6vectorINSt8__detail6_StateIcEESaIS2_EE17_M_realloc_insertIJS2_EEEvN9__gnu_cxx17__normal_iteratorIPS2_S4_EEDpOT_
00000000000b1290 w _ZNSt8__detail4_NFAINSt7__cxx1112regex_traitsIcEEE15_M_insert_stateENS_6_StateIcEE
00000000000b1320 w _ZNSt8__detail4_NFAINSt7__cxx1112regex_traitsIcEEE15_M_insert_dummyEv
00000000000b1410 w _ZNSt8__detail4_NFAINSt7__cxx1112regex_traitsIcEEE16_M_insert_repeatEllb
00000000000b1520 w _ZNSt8__detail4_NFAINSt7__cxx1112regex_traitsIcEEE17_M_insert_matcherESt8functionIFbcEE
00000000000b1670 w _ZNSt8__detail4_NFAINSt7__cxx1112regex_traitsIcEEE21_M_insert_subexpr_endEv
00000000000b1790 w _ZNSt8__detail4_NFAINSt7__cxx1112regex_traitsIcEEE23_M_insert_subexpr_beginEv
00000000000b1900 w _ZNSt8__detail4_NFAINSt7__cxx1112regex_traitsIcEEE17_M_insert_backrefEm
00000000000b1ab0 w _ZNSt5dequeINSt8__detail9_StateSeqINSt7__cxx1112regex_traitsIcEEEESaIS5_EE17_M_reallocate_mapEmb
00000000000b1c40 w _ZNSt5dequeINSt8__detail9_StateSeqINSt7__cxx1112regex_traitsIcEEEESaIS5_EE12emplace_backIJS5_EEEvDpOT_
00000000000b1d10 w _ZNSt8__detail9_CompilerINSt7__cxx1112regex_traitsIcEEE27_M_insert_any_matcher_posixILb0ELb0EEEvv
00000000000b1de0 w _ZNSt8__detail9_CompilerINSt7__cxx1112regex_traitsIcEEE27_M_insert_any_matcher_posixILb0ELb1EEEvv
00000000000b1eb0 w _ZNSt8__detail9_CompilerINSt7__cxx1112regex_traitsIcEEE27_M_insert_any_matcher_posixILb1ELb0EEEvv
00000000000b1f80 w _ZNSt8__detail9_CompilerINSt7__cxx1112regex_traitsIcEEE27_M_insert_any_matcher_posixILb1ELb1EEEvv
00000000000b2050 w _ZNSt8__detail9_CompilerINSt7__cxx1112regex_traitsIcEEE26_M_insert_any_matcher_ecmaILb0ELb0EEEvv
00000000000b2120 w _ZNSt8__detail9_CompilerINSt7__cxx1112regex_traitsIcEEE26_M_insert_any_matcher_ecmaILb0ELb1EEEvv
00000000000b21f0 w _ZNSt8__detail9_CompilerINSt7__cxx1112regex_traitsIcEEE26_M_insert_any_matcher_ecmaILb1ELb0EEEvv
00000000000b22c0 w _ZNSt8__detail9_CompilerINSt7__cxx1112regex_traitsIcEEE26_M_insert_any_matcher_ecmaILb1ELb1EEEvv
00000000000b2390 w _ZNSt8__detail9_CompilerINSt7__cxx1112regex_traitsIcEEE22_M_insert_char_matcherILb0ELb0EEEvv
00000000000b2470 w _ZNSt8__detail9_CompilerINSt7__cxx1112regex_traitsIcEEE22_M_insert_char_matcherILb0ELb1EEEvv
00000000000b2550 w _ZNSt8__detail9_CompilerINSt7__cxx1112regex_traitsIcEEE22_M_insert_char_matcherILb1ELb0EEEvv
00000000000b2650 w _ZNSt8__detail9_CompilerINSt7__cxx1112regex_traitsIcEEE22_M_insert_char_matcherILb1ELb1EEEvv
00000000000b2750 w _ZNSt5dequeINSt8__detail9_StateSeqINSt7__cxx1112regex_traitsIcEEEESaIS5_EE16_M_push_back_auxIJRKS5_EEEvDpOT_
00000000000b27f0 w _ZNSt5dequeINSt8__detail9_StateSeqINSt7__cxx1112regex_traitsIcEEEESaIS5_EE9push_backERKS5_
00000000000b2830 w _ZNSt6vectorINSt7__cxx1112regex_traitsIcE10_RegexMaskESaIS3_EE17_M_realloc_insertIJRKS3_EEEvN9__gnu_cxx17__normal_iteratorIPS3_S5_EEDpOT_
00000000000b2990 w _ZNSt8__detail15_BracketMatcherINSt7__cxx1112regex_traitsIcEELb0ELb1EE22_M_add_character_classERKNS1_12basic_stringIcSt11char_traitsIcESaIcEEEb
00000000000b2a60 w _ZNSt8__detail15_BracketMatcherINSt7__cxx1112regex_traitsIcEELb1ELb0EE22_M_add_character_classERKNS1_12basic_stringIcSt11char_traitsIcESaIcEEEb
00000000000b2b30 w _ZNSt8__detail15_BracketMatcherINSt7__cxx1112regex_traitsIcEELb1ELb1EE22_M_add_character_classERKNS1_12basic_stringIcSt11char_traitsIcESaIcEEEb
00000000000b2c00 w _ZNSt8__detail15_BracketMatcherINSt7__cxx1112regex_traitsIcEELb0ELb0EE22_M_add_character_classERKNS1_12basic_stringIcSt11char_traitsIcESaIcEEEb
00000000000b2cd0 w _ZSt8__uniqueIN9__gnu_cxx17__normal_iteratorIPcSt6vectorIcSaIcEEEENS0_5__ops19_Iter_equal_to_iterEET_S9_S9_T0_
00000000000b2d30 w _ZNSt6vectorIcSaIcEE8_M_eraseEN9__gnu_cxx17__normal_iteratorIPcS1_EES5_
00000000000b2da0 w _ZNSt4pairINSt7__cxx1112basic_stringIcSt11char_traitsIcESaIcEEES5_ED2Ev
00000000000b2de0 w _ZNSt14_Function_base13_Base_managerINSt8__detail15_BracketMatcherINSt7__cxx1112regex_traitsIcEELb0ELb1EEEE10_M_managerERSt9_Any_dataRKS8_St18_Manager_operation
00000000000b31a0 w _ZNSt14_Function_base13_Base_managerINSt8__detail15_BracketMatcherINSt7__cxx1112regex_traitsIcEELb1ELb1EEEE10_M_managerERSt9_Any_dataRKS8_St18_Manager_operation
00000000000b3560 w _ZNSt11_Deque_baseIlSaIlEE17_M_initialize_mapEm
00000000000b36c0 w _ZNKSt7__cxx1112regex_traitsIcE7isctypeEcNS1_10_RegexMaskE
00000000000b3760 w _ZNKSt7__cxx1112regex_traitsIcE17transform_primaryIPKcEENS_12basic_stringIcSt11char_traitsIcESaIcEEET_SA_
00000000000b38b0 w _ZNKSt8__detail20_RegexTranslatorBaseINSt7__cxx1112regex_traitsIcEELb0ELb1EE12_M_transformEc
00000000000b3a50 w _ZNKSt8__detail20_RegexTranslatorBaseINSt7__cxx1112regex_traitsIcEELb1ELb1EE12_M_transformEc
00000000000b3bf0 w _ZNKSt7__cxx1112regex_traitsIcE18lookup_collatenameIPKcEENS_12basic_stringIcSt11char_traitsIcESaIcEEET_SA_
00000000000b3e40 w _ZNSt6vectorIcSaIcEE12emplace_backIJcEEEvDpOT_
00000000000b3f90 w _ZZNSt8__detail9_CompilerINSt7__cxx1112regex_traitsIcEEE18_M_expression_termILb0ELb0EEEbRSt4pairIbcERNS_15_BracketMatcherIS3_XT_EXT0_EEEENKUlcE_clEc
00000000000b4000 w _ZZNSt8__detail9_CompilerINSt7__cxx1112regex_traitsIcEEE18_M_expression_termILb0ELb1EEEbRSt4pairIbcERNS_15_BracketMatcherIS3_XT_EXT0_EEEENKUlcE_clEc
00000000000b4070 w _ZZNSt8__detail9_CompilerINSt7__cxx1112regex_traitsIcEEE18_M_expression_termILb1ELb1EEEbRSt4pairIbcERNS_15_BracketMatcherIS3_XT_EXT0_EEEENKUlvE0_clEv
00000000000b40f0 w _ZZNSt8__detail9_CompilerINSt7__cxx1112regex_traitsIcEEE18_M_expression_termILb1ELb0EEEbRSt4pairIbcERNS_15_BracketMatcherIS3_XT_EXT0_EEEENKUlvE0_clEv
00000000000b4170 w _ZZNSt8__detail9_CompilerINSt7__cxx1112regex_traitsIcEEE18_M_expression_termILb1ELb1EEEbRSt4pairIbcERNS_15_BracketMatcherIS3_XT_EXT0_EEEENKUlcE_clEc
00000000000b4200 w _ZZNSt8__detail9_CompilerINSt7__cxx1112regex_traitsIcEEE18_M_expression_termILb1ELb0EEEbRSt4pairIbcERNS_15_BracketMatcherIS3_XT_EXT0_EEEENKUlcE_clEc
00000000000b4290 w _ZNSt8_Rb_treeIlSt4pairIKllESt10_Select1stIS2_ESt4lessIlESaIS2_EE24_M_get_insert_unique_posERS1_
00000000000b4320 w _ZNSt8_Rb_treeIlSt4pairIKllESt10_Select1stIS2_ESt4lessIlESaIS2_EE29_M_get_insert_hint_unique_posESt23_Rb_tree_const_iteratorIS2_ERS1_
00000000000b4400 w _ZNSt3mapIllSt4lessIlESaISt4pairIKllEEEixERS3_
00000000000b4490 w _ZNSt8__detail9_StateSeqINSt7__cxx1112regex_traitsIcEEE8_M_cloneEv
00000000000b4bc0 w _ZNSt8__detail9_CompilerINSt7__cxx1112regex_traitsIcEEE13_M_quantifierEv
00000000000b53e0 w _ZSt16__insertion_sortIN9__gnu_cxx17__normal_iteratorIPcSt6vectorIcSaIcEEEENS0_5__ops15_Iter_less_iterEEvT_S9_T0_
00000000000b5490 w _ZSt9__find_ifIN9__gnu_cxx17__normal_iteratorIPKNSt7__cxx1112basic_stringIcSt11char_traitsIcESaIcEEESt6vectorIS7_SaIS7_EEEENS0_5__ops16_Iter_equals_valIS8_EEET_SH_SH_T0_St26random_access_iterator_tag
00000000000b5660 w _ZNSt6vectorISt4pairIccESaIS1_EE17_M_realloc_insertIJS1_EEEvN9__gnu_cxx17__normal_iteratorIPS1_S3_EEDpOT_
00000000000b57b0 w _ZNSt6vectorISt4pairIccESaIS1_EE12emplace_backIJS1_EEEvDpOT_
00000000000b57e0 w _ZNSt8__detail9_CompilerINSt7__cxx1112regex_traitsIcEEE18_M_expression_termILb1ELb0EEEbRSt4pairIbcERNS_15_BracketMatcherIS3_XT_EXT0_EEE
00000000000b5da0 w _ZNSt8__detail9_CompilerINSt7__cxx1112regex_traitsIcEEE18_M_expression_termILb0ELb0EEEbRSt4pairIbcERNS_15_BracketMatcherIS3_XT_EXT0_EEE
00000000000b6380 w _ZNSt6vectorISt4pairINSt7__cxx1112basic_stringIcSt11char_traitsIcESaIcEEES6_ESaIS7_EE17_M_realloc_insertIJS7_EEEvN9__gnu_cxx17__normal_iteratorIPS7_S9_EEDpOT_
00000000000b6710 w _ZNSt6vectorISt4pairINSt7__cxx1112basic_stringIcSt11char_traitsIcESaIcEEES6_ESaIS7_EE12emplace_backIJS7_EEEvDpOT_
00000000000b67d0 w _ZNSt8__detail15_BracketMatcherINSt7__cxx1112regex_traitsIcEELb0ELb1EE13_M_make_rangeEcc
00000000000b69f0 w _ZNSt8__detail9_CompilerINSt7__cxx1112regex_traitsIcEEE18_M_expression_termILb0ELb1EEEbRSt4pairIbcERNS_15_BracketMatcherIS3_XT_EXT0_EEE
00000000000b6f90 w _ZNSt8__detail15_BracketMatcherINSt7__cxx1112regex_traitsIcEELb1ELb1EE13_M_make_rangeEcc
00000000000b71b0 w _ZNSt8__detail9_CompilerINSt7__cxx1112regex_traitsIcEEE18_M_expression_termILb1ELb1EEEbRSt4pairIbcERNS_15_BracketMatcherIS3_XT_EXT0_EEE
00000000000b7720 w _ZSt13__adjust_heapIN9__gnu_cxx17__normal_iteratorIPcSt6vectorIcSaIcEEEElcNS0_5__ops15_Iter_less_iterEEvT_T0_SA_T1_T2_
00000000000b7840 w _ZNSt8__detail15_BracketMatcherINSt7__cxx1112regex_traitsIcEELb0ELb1EE8_M_readyEv
00000000000b7db0 w _ZNSt8__detail9_CompilerINSt7__cxx1112regex_traitsIcEEE33_M_insert_character_class_matcherILb0ELb1EEEvv
00000000000b8190 w _ZNSt8__detail9_CompilerINSt7__cxx1112regex_traitsIcEEE25_M_insert_bracket_matcherILb0ELb1EEEvb
00000000000b85f0 w _ZNSt8__detail15_BracketMatcherINSt7__cxx1112regex_traitsIcEELb0ELb0EE8_M_readyEv
00000000000b8880 w _ZNSt8__detail9_CompilerINSt7__cxx1112regex_traitsIcEEE25_M_insert_bracket_matcherILb0ELb0EEEvb
00000000000b8cb0 w _ZNSt8__detail15_BracketMatcherINSt7__cxx1112regex_traitsIcEELb1ELb0EE8_M_readyEv
00000000000b9050 w _ZNSt8__detail9_CompilerINSt7__cxx1112regex_traitsIcEEE33_M_insert_character_class_matcherILb1ELb0EEEvv
00000000000b9430 w _ZNSt8__detail9_CompilerINSt7__cxx1112regex_traitsIcEEE25_M_insert_bracket_matcherILb1ELb0EEEvb
00000000000b98a0 w _ZNSt8__detail15_BracketMatcherINSt7__cxx1112regex_traitsIcEELb1ELb1EE8_M_readyEv
00000000000b9e10 w _ZNSt8__detail9_CompilerINSt7__cxx1112regex_traitsIcEEE33_M_insert_character_class_matcherILb1ELb1EEEvv
00000000000ba1f0 w _ZNSt8__detail9_CompilerINSt7__cxx1112regex_traitsIcEEE25_M_insert_bracket_matcherILb1ELb1EEEvb
00000000000ba660 w _ZNSt8__detail9_CompilerINSt7__cxx1112regex_traitsIcEEE21_M_bracket_expressionEv
00000000000ba730 w _ZNSt8__detail9_CompilerINSt7__cxx1112regex_traitsIcEEE33_M_insert_character_class_matcherILb0ELb0EEEvv
00000000000badf0 w _ZNSt8__detail9_CompilerINSt7__cxx1112regex_traitsIcEEE7_M_atomEv
00000000000bb2a0 w _ZNSt8__detail9_CompilerINSt7__cxx1112regex_traitsIcEEE14_M_alternativeEv
00000000000bb4c0 w _ZNSt8__detail9_CompilerINSt7__cxx1112regex_traitsIcEEE14_M_disjunctionEv
00000000000bb940 w _ZNSt8__detail9_CompilerINSt7__cxx1112regex_traitsIcEEEC2EPKcS6_RKSt6localeNSt15regex_constants18syntax_option_typeE
00000000000bc050 w _ZNSt8__detail9_CompilerINSt7__cxx1112regex_traitsIcEEE12_M_assertionEv
00000000000bc3c0 w _ZNSt8__detail9_ExecutorIN9__gnu_cxx17__normal_iteratorIPKcNSt7__cxx1112basic_stringIcSt11char_traitsIcESaIcEEEEESaINS5_9sub_matchISB_EEENS5_12regex_traitsIcEELb0EED2Ev
00000000000bc450 w _ZNSt8__detail9_ExecutorIN9__gnu_cxx17__normal_iteratorIPKcNSt7__cxx1112basic_stringIcSt11char_traitsIcESaIcEEEEESaINS5_9sub_matchISB_EEENS5_12regex_traitsIcEELb1EED2Ev
00000000000bc490 w _ZNSt6vectorISt4pairIlS_INSt7__cxx119sub_matchIN9__gnu_cxx17__normal_iteratorIPKcNS1_12basic_stringIcSt11char_traitsIcESaIcEEEEEEESaISD_EEESaISG_EED1Ev
00000000000bc500 w _ZNSt6vectorINSt7__cxx119sub_matchIN9__gnu_cxx17__normal_iteratorIPKcNS0_12basic_stringIcSt11char_traitsIcESaIcEEEEEEESaISC_EE17_M_default_appendEm
00000000000bc6e0 w _ZNSt6vectorINSt7__cxx119sub_matchIN9__gnu_cxx17__normal_iteratorIPKcNS0_12basic_stringIcSt11char_traitsIcESaIcEEEEEEESaISC_EEaSERKSE_
00000000000bc8d0 w _ZNSt6vectorISt4pairIlS_INSt7__cxx119sub_matchIN9__gnu_cxx17__normal_iteratorIPKcNS1_12basic_stringIcSt11char_traitsIcESaIcEEEEEEESaISD_EEESaISG_EE17_M_realloc_insertIJRlRKSF_EEEvNS4_IPSG_SI_EEDpOT_
00000000000bcc20 w _ZNSt6vectorISt4pairIlS_INSt7__cxx119sub_matchIN9__gnu_cxx17__normal_iteratorIPKcNS1_12basic_stringIcSt11char_traitsIcESaIcEEEEEEESaISD_EEESaISG_EE12emplace_backIJRlRKSF_EEEvDpOT_
00000000000bcd40 w _ZNKSt7__cxx1112regex_traitsIcE9transformIN9__gnu_cxx17__normal_iteratorIPKcNS_12basic_stringIcSt11char_traitsIcESaIcEEEEEEESB_T_SD_
00000000000bce70 w _ZNSt8__detail9_ExecutorIN9__gnu_cxx17__normal_iteratorIPKcNSt7__cxx1112basic_stringIcSt11char_traitsIcESaIcEEEEESaINS5_9sub_matchISB_EEENS5_12regex_traitsIcEELb0EE17_M_handle_backrefENSH_11_Match_modeEl
00000000000bd060 w _ZNSt8__detail9_ExecutorIN9__gnu_cxx17__normal_iteratorIPKcNSt7__cxx1112basic_stringIcSt11char_traitsIcESaIcEEEEESaINS5_9sub_matchISB_EEENS5_12regex_traitsIcEELb0EE6_M_dfsENSH_11_Match_modeEl
00000000000bd470 w _ZNSt8__detail9_ExecutorIN9__gnu_cxx17__normal_iteratorIPKcNSt7__cxx1112basic_stringIcSt11char_traitsIcESaIcEEEEESaINS5_9sub_matchISB_EEENS5_12regex_traitsIcEELb0EE16_M_main_dispatchENSH_11_Match_modeESt17integral_constantIbLb0EE
00000000000bd6f0 w _ZNSt8__detail9_ExecutorIN9__gnu_cxx17__normal_iteratorIPKcNSt7__cxx1112basic_stringIcSt11char_traitsIcESaIcEEEEESaINS5_9sub_matchISB_EEENS5_12regex_traitsIcEELb0EE12_M_lookaheadEl
00000000000bdb10 w _ZNSt8__detail9_ExecutorIN9__gnu_cxx17__normal_iteratorIPKcNSt7__cxx1112basic_stringIcSt11char_traitsIcESaIcEEEEESaINS5_9sub_matchISB_EEENS5_12regex_traitsIcEELb0EE16_M_rep_once_moreENSH_11_Match_modeEl
00000000000bdba0 w _ZNSt8__detail9_ExecutorIN9__gnu_cxx17__normal_iteratorIPKcNSt7__cxx1112basic_stringIcSt11char_traitsIcESaIcEEEEESaINS5_9sub_matchISB_EEENS5_12regex_traitsIcEELb1EE12_M_lookaheadEl
00000000000bdef0 w _ZNSt8__detail9_ExecutorIN9__gnu_cxx17__normal_iteratorIPKcNSt7__cxx1112basic_stringIcSt11char_traitsIcESaIcEEEEESaINS5_9sub_matchISB_EEENS5_12regex_traitsIcEELb1EE6_M_dfsENSH_11_Match_modeEl
00000000000be310 w _ZNSt8__detail9_ExecutorIN9__gnu_cxx17__normal_iteratorIPKcNSt7__cxx1112basic_stringIcSt11char_traitsIcESaIcEEEEESaINS5_9sub_matchISB_EEENS5_12regex_traitsIcEELb1EE17_M_handle_backrefENSH_11_Match_modeEl
00000000000be500 w _ZNSt8__detail17__regex_algo_implIN9__gnu_cxx17__normal_iteratorIPKcNSt7__cxx1112basic_stringIcSt11char_traitsIcESaIcEEEEESaINS5_9sub_matchISB_EEEcNS5_12regex_traitsIcEELNS_20_RegexExecutorPolicyE0ELb1EEEbT_SI_RNS5_13match_resultsISI_T0_EERKNS5_11basic_regexIT1_T2_EENSt15regex_constants15match_flag_typeE
00000000000beab0 w _ZNK7rocksdb13ObjectLibrary12FactoryEntryINS_13MergeOperatorEE7matchesERKNSt7__cxx1112basic_stringIcSt11char_traitsIcESaIcEEE
00000000000beb60 w _ZNK7rocksdb13ObjectLibrary12FactoryEntryIKNS_10ComparatorEE7matchesERKNSt7__cxx1112basic_stringIcSt11char_traitsIcESaIcEEE
00000000000bec10 w _ZNK7rocksdb13ObjectLibrary12FactoryEntryINS_23CompactionFilterFactoryEE7matchesERKNSt7__cxx1112basic_stringIcSt11char_traitsIcESaIcEEE
00000000000becc0 w _ZNK7rocksdb13ObjectLibrary12FactoryEntryINS_16CompactionFilterEE7matchesERKNSt7__cxx1112basic_stringIcSt11char_traitsIcESaIcEEE
00000000000bed70 w _ZNSt8__detail9_ExecutorIN9__gnu_cxx17__normal_iteratorIPKcNSt7__cxx1112basic_stringIcSt11char_traitsIcESaIcEEEEESaINS5_9sub_matchISB_EEENS5_12regex_traitsIcEELb1EE16_M_rep_once_moreENSH_11_Match_modeEl
00000000000bee00 t _ZNSt7__cxx1112basic_stringIcSt11char_traitsIcESaIcEE12_M_constructIPKcEEvT_S8_St20forward_iterator_tag.isra.49
00000000000beed0 T _ZN7rocksdb5Cache16CreateFromStringERKNS_13ConfigOptionsERKNSt7__cxx1112basic_stringIcSt11char_traitsIcESaIcEEEPSt10shared_ptrIS0_E
00000000000bf3c0 T _ZN7rocksdb14SecondaryCache16CreateFromStringERKNS_13ConfigOptionsERKNSt7__cxx1112basic_stringIcSt11char_traitsIcESaIcEEEPSt10shared_ptrIS0_E
00000000000bffd0 w _ZNSt15_Sp_counted_ptrIPN7rocksdb14SecondaryCacheELN9__gnu_cxx12_Lock_policyE2EED2Ev
00000000000bffe0 w _ZNSt15_Sp_counted_ptrIPN7rocksdb14SecondaryCacheELN9__gnu_cxx12_Lock_policyE2EE10_M_disposeEv
00000000000c0000 w _ZNSt15_Sp_counted_ptrIPN7rocksdb14SecondaryCacheELN9__gnu_cxx12_Lock_policyE2EE14_M_get_deleterERKSt9type_info
00000000000c0010 w _ZNSt15_Sp_counted_ptrIPN7rocksdb14SecondaryCacheELN9__gnu_cxx12_Lock_policyE2EED0Ev
00000000000c0020 w _ZNSt15_Sp_counted_ptrIPN7rocksdb14SecondaryCacheELN9__gnu_cxx12_Lock_policyE2EE10_M_destroyEv
00000000000c0030 t _ZNSt8__detail16_Hashtable_allocISaINS_10_Hash_nodeISt4pairIKNSt7__cxx1112basic_stringIcSt11char_traitsIcESaIcEEEN7rocksdb14OptionTypeInfoEELb1EEEEE19_M_allocate_bucketsEm.isra.100
00000000000c0080 w _ZN7rocksdb14OptionTypeInfoD2Ev
00000000000c00f0 w _ZNSt4pairIKNSt7__cxx1112basic_stringIcSt11char_traitsIcESaIcEEEN7rocksdb14OptionTypeInfoEED1Ev
00000000000c0170 w _ZN7rocksdb15LRUCacheOptionsD2Ev
00000000000c0270 w _ZNSt10_HashtableINSt7__cxx1112basic_stringIcSt11char_traitsIcESaIcEEESt4pairIKS5_N7rocksdb14OptionTypeInfoEESaISA_ENSt8__detail10_Select1stESt8equal_toIS5_ESt4hashIS5_ENSC_18_Mod_range_hashingENSC_20_Default_ranged_hashENSC_20_Prime_rehash_policyENSC_17_Hashtable_traitsILb1ELb0ELb1EEEED1Ev
00000000000c0350 w _ZNSt13unordered_mapINSt7__cxx1112basic_stringIcSt11char_traitsIcESaIcEEEN7rocksdb14OptionTypeInfoESt4hashIS5_ESt8equal_toIS5_ESaISt4pairIKS5_S7_EEED2Ev
00000000000c0360 w _ZNSt10_HashtableINSt7__cxx1112basic_stringIcSt11char_traitsIcESaIcEEESt4pairIKS5_N7rocksdb14OptionTypeInfoEESaISA_ENSt8__detail10_Select1stESt8equal_toIS5_ESt4hashIS5_ENSC_18_Mod_range_hashingENSC_20_Default_ranged_hashENSC_20_Prime_rehash_policyENSC_17_Hashtable_traitsILb1ELb0ELb1EEEEC2IPKSA_EET_SR_mRKSH_RKSI_RKSJ_RKSF_RKSD_RKSB_
00000000000c0910 T _ZN7rocksdb13NewClockCacheEmibNS_25CacheMetadataChargePolicyE
00000000000c0930 T _ZNK7rocksdb8LRUCache8GetShardEj
00000000000c0940 T _ZN7rocksdb8LRUCache5ValueEPNS_5Cache6HandleE
00000000000c0950 T _ZNK7rocksdb8LRUCache9GetChargeEPNS_5Cache6HandleE
00000000000c0960 T _ZNK7rocksdb8LRUCache10GetDeleterEPNS_5Cache6HandleE
00000000000c0980 T _ZNK7rocksdb8LRUCache7GetHashEPNS_5Cache6HandleE
00000000000c0990 T _ZN7rocksdb8LRUCache10DisownDataEv
00000000000c09a0 T _ZN7rocksdb13LRUCacheShard22SetStrictCapacityLimitEb
00000000000c09e0 T _ZN7rocksdb13LRUCacheShard3RefEPNS_5Cache6HandleE
00000000000c0a20 T _ZN7rocksdb13LRUCacheShard7IsReadyEPNS_5Cache6HandleE
00000000000c0a90 T _ZNK7rocksdb13LRUCacheShard8GetUsageEv
00000000000c0ad0 T _ZNK7rocksdb13LRUCacheShard14GetPinnedUsageEv
00000000000c0b20 T _ZN7rocksdb13LRUCacheShard18ApplyToSomeEntriesERKSt8functionIFvRKNS_5SliceEPvmPFvS4_S5_EEEjPj
00000000000c0d80 t _ZNSt7__cxx1112basic_stringIcSt11char_traitsIcESaIcEE12_M_constructIPKcEEvT_S8_St20forward_iterator_tag.isra.89
00000000000c0e30 T _ZNK7rocksdb13LRUCacheShard19GetPrintableOptionsB5cxx11Ev
00000000000c0f10 T _ZN7rocksdb14LRUHandleTableC1Ei
00000000000c0f70 T _ZN7rocksdb14LRUHandleTableD1Ev
00000000000c10b0 T _ZN7rocksdb8LRUCacheD1Ev
00000000000c12e0 T _ZN7rocksdb8LRUCacheD0Ev
00000000000c1300 T _ZN7rocksdb14LRUHandleTable11FindPointerERKNS_5SliceEj
00000000000c1370 T _ZN7rocksdb14LRUHandleTable6LookupERKNS_5SliceEj
00000000000c1380 T _ZN7rocksdb14LRUHandleTable6RemoveERKNS_5SliceEj
00000000000c13b0 T _ZN7rocksdb14LRUHandleTable6ResizeEv
00000000000c14c0 T _ZN7rocksdb14LRUHandleTable6InsertEPNS_9LRUHandleE
00000000000c1570 T _ZN7rocksdb13LRUCacheShard15TEST_GetLRUListEPPNS_9LRUHandleES3_
00000000000c15c0 T _ZN7rocksdb13LRUCacheShard15TEST_GetLRUSizeEv
00000000000c1610 T _ZN7rocksdb13LRUCacheShard19GetHighPriPoolRatioEv
00000000000c1650 T _ZN7rocksdb13LRUCacheShard10LRU_RemoveEPNS_9LRUHandleE
00000000000c16e0 T _ZN7rocksdb13LRUCacheShard5EraseERKNS_5SliceEj
00000000000c1850 T _ZN7rocksdb13LRUCacheShard16MaintainPoolSizeEv
00000000000c18f0 T _ZN7rocksdb13LRUCacheShard10LRU_InsertEPNS_9LRUHandleE
00000000000c19d0 t _ZN7rocksdb13LRUCacheShard7ReleaseEPNS_5Cache6HandleEb.part.58
00000000000c1bb0 T _ZN7rocksdb13LRUCacheShard7ReleaseEPNS_5Cache6HandleEb
00000000000c1bd0 T _ZN7rocksdb13LRUCacheShard24SetHighPriorityPoolRatioEd
00000000000c1c50 T _ZN7rocksdb8LRUCache15TEST_GetLRUSizeEv
00000000000c1cc0 T _ZN7rocksdb8LRUCache19GetHighPriPoolRatioEv
00000000000c1d20 T _ZN7rocksdb13LRUCacheShard12EvictFromLRUEmPNS_10autovectorIPNS_9LRUHandleELm8EEE
00000000000c1ee0 T _ZN7rocksdb13LRUCacheShard11SetCapacityEm
00000000000c21f0 T _ZN7rocksdb13LRUCacheShardC2EmbdbNS_25CacheMetadataChargePolicyEiRKSt10shared_ptrINS_14SecondaryCacheEE
00000000000c2370 T _ZN7rocksdb8LRUCacheC1EmibdSt10shared_ptrINS_15MemoryAllocatorEEbNS_25CacheMetadataChargePolicyERKS1_INS_14SecondaryCacheEE
00000000000c2670 T _ZN7rocksdb11NewLRUCacheEmibdSt10shared_ptrINS_15MemoryAllocatorEEbNS_25CacheMetadataChargePolicyERKS0_INS_14SecondaryCacheEE
00000000000c28a0 T _ZN7rocksdb11NewLRUCacheERKNS_15LRUCacheOptionsE
00000000000c29d0 T _ZN7rocksdb11NewLRUCacheEmibdSt10shared_ptrINS_15MemoryAllocatorEEbNS_25CacheMetadataChargePolicyE
00000000000c2b80 T _ZN7rocksdb13LRUCacheShard17EraseUnRefEntriesEv
00000000000c2f30 T _ZN7rocksdb13LRUCacheShard10InsertItemEPNS_9LRUHandleEPPNS_5Cache6HandleEb
00000000000c3570 T _ZN7rocksdb13LRUCacheShard7PromoteEPNS_9LRUHandleE
00000000000c3650 T _ZN7rocksdb13LRUCacheShard6LookupERKNS_5SliceEjPKNS_5Cache15CacheItemHelperERKSt8functionIFNS_6StatusEPvmPSA_PmEENS4_8PriorityEbPNS_10StatisticsE
00000000000c3950 T _ZN7rocksdb8LRUCache7WaitAllERSt6vectorIPNS_5Cache6HandleESaIS4_EE
00000000000c3bf0 T _ZN7rocksdb13LRUCacheShard6InsertERKNS_5SliceEjPvmPFvS3_S4_EPKNS_5Cache15CacheItemHelperEPPNS7_6HandleENS7_8PriorityE
00000000000c3d10 w _ZN7rocksdb5Cache22ApplyToAllCacheEntriesEPFvPvmEb
00000000000c3dc0 w _ZN7rocksdb5Cache6InsertERKNS_5SliceEPvPKNS0_15CacheItemHelperEmPPNS0_6HandleENS0_8PriorityE
00000000000c3e40 w _ZN7rocksdb5Cache6LookupERKNS_5SliceEPKNS0_15CacheItemHelperERKSt8functionIFNS_6StatusEPvmPS9_PmEENS0_8PriorityEbPNS_10StatisticsE
00000000000c3e50 w _ZN7rocksdb5Cache7ReleaseEPNS0_6HandleEbb
00000000000c3e60 w _ZN7rocksdb5Cache7IsReadyEPNS0_6HandleE
00000000000c3e70 w _ZN7rocksdb5Cache4WaitEPNS0_6HandleE
00000000000c3e80 w _ZN7rocksdb5Cache7WaitAllERSt6vectorIPNS0_6HandleESaIS3_EE
00000000000c3e90 w _ZN7rocksdb13LRUCacheShard4WaitEPNS_5Cache6HandleE
00000000000c3ea0 w _ZNK7rocksdb8LRUCache4NameEv
00000000000c3eb0 w _ZNSt17_Function_handlerIFvRKN7rocksdb5SliceEPvmPFvS3_S4_EEZNS0_5Cache22ApplyToAllCacheEntriesEPFvS4_mEbEUlS3_S4_mS6_E_E9_M_invokeERKSt9_Any_dataS3_OS4_OmOS6_
00000000000c3ec0 w _ZNSt14_Function_base13_Base_managerIZN7rocksdb5Cache22ApplyToAllCacheEntriesEPFvPvmEbEUlRKNS1_5SliceES3_mPFvS8_S3_EE_E10_M_managerERSt9_Any_dataRKSD_St18_Manager_operation
00000000000c3ee0 w _ZNSt19_Sp_counted_deleterIPN7rocksdb8LRUCacheENSt12__shared_ptrIS1_LN9__gnu_cxx12_Lock_policyE2EE8_DeleterISaIS1_EEES8_LS5_2EED2Ev
00000000000c3ef0 w _ZNSt19_Sp_counted_deleterIPN7rocksdb8LRUCacheENSt12__shared_ptrIS1_LN9__gnu_cxx12_Lock_policyE2EE8_DeleterISaIS1_EEES8_LS5_2EE14_M_get_deleterERKSt9type_info
00000000000c3f00 w _ZNSt19_Sp_counted_deleterIPN7rocksdb8LRUCacheENSt12__shared_ptrIS1_LN9__gnu_cxx12_Lock_policyE2EE8_DeleterISaIS1_EEES8_LS5_2EED0Ev
00000000000c3f10 w _ZNSt19_Sp_counted_deleterIPN7rocksdb8LRUCacheENSt12__shared_ptrIS1_LN9__gnu_cxx12_Lock_policyE2EE8_DeleterISaIS1_EEES8_LS5_2EE10_M_destroyEv
00000000000c3f20 w _ZNK7rocksdb5Cache19GetPrintableOptionsB5cxx11Ev
00000000000c3f50 w _ZN7rocksdb13LRUCacheShardD2Ev
00000000000c4000 w _ZNSt19_Sp_counted_deleterIPN7rocksdb8LRUCacheENSt12__shared_ptrIS1_LN9__gnu_cxx12_Lock_policyE2EE8_DeleterISaIS1_EEES8_LS5_2EE10_M_disposeEv
00000000000c4040 w _ZN7rocksdb13LRUCacheShardD0Ev
00000000000c4100 w _ZN7rocksdb13LRUCacheShard7ReleaseEPNS_5Cache6HandleEbb
00000000000c4120 w _ZN7rocksdb12ShardedCacheD1Ev
00000000000c41d0 w _ZN7rocksdb12ShardedCacheD0Ev
00000000000c4280 w _ZNSt6vectorIPN7rocksdb26SecondaryCacheResultHandleESaIS2_EE17_M_realloc_insertIJRS2_EEEvN9__gnu_cxx17__normal_iteratorIPS2_S4_EEDpOT_
00000000000c43c0 w _ZNSt6vectorIPN7rocksdb9LRUHandleESaIS2_EE17_M_realloc_insertIJRKS2_EEEvN9__gnu_cxx17__normal_iteratorIPS2_S4_EEDpOT_
00000000000c4500 w _ZN7rocksdb13LRUCacheShard6LookupERKNS_5SliceEj
00000000000c45a0 w _ZN7rocksdb13LRUCacheShard6InsertERKNS_5SliceEjPvPKNS_5Cache15CacheItemHelperEmPPNS5_6HandleENS5_8PriorityE
00000000000c45f0 w _ZN7rocksdb13LRUCacheShard6InsertERKNS_5SliceEjPvmPFvS3_S4_EPPNS_5Cache6HandleENS7_8PriorityE
00000000000c4640 T _ZN7rocksdb12ShardedCache7IsReadyEPNS_5Cache6HandleE
00000000000c4680 T _ZN7rocksdb12ShardedCache4WaitEPNS_5Cache6HandleE
00000000000c46c0 T _ZN7rocksdb12ShardedCache3RefEPNS_5Cache6HandleE
00000000000c4700 T _ZN7rocksdb12ShardedCache7ReleaseEPNS_5Cache6HandleEb
00000000000c4750 T _ZN7rocksdb12ShardedCache7ReleaseEPNS_5Cache6HandleEbb
00000000000c47b0 T _ZNK7rocksdb12ShardedCache8GetUsageEv
00000000000c4810 T _ZNK7rocksdb12ShardedCache8GetUsageEPNS_5Cache6HandleE
00000000000c4820 T _ZNK7rocksdb12ShardedCache14GetPinnedUsageEv
00000000000c4880 T _ZN7rocksdb12ShardedCache17EraseUnRefEntriesEv
00000000000c48d0 T _ZNK7rocksdb12ShardedCache11GetCapacityEv
00000000000c4900 T _ZNK7rocksdb12ShardedCache22HasStrictCapacityLimitEv
00000000000c4930 T _ZN7rocksdb12ShardedCache11SetCapacityEm
00000000000c49d0 T _ZN7rocksdb12ShardedCache22SetStrictCapacityLimitEb
00000000000c4a70 T _ZN7rocksdb12ShardedCache6InsertERKNS_5SliceEPvmPFvS3_S4_EPPNS_5Cache6HandleENS7_8PriorityE
00000000000c4b30 T _ZN7rocksdb12ShardedCache6InsertERKNS_5SliceEPvPKNS_5Cache15CacheItemHelperEmPPNS5_6HandleENS5_8PriorityE
00000000000c4c00 T _ZN7rocksdb12ShardedCache6LookupERKNS_5SliceEPNS_10StatisticsE
00000000000c4c60 T _ZN7rocksdb12ShardedCache6LookupERKNS_5SliceEPKNS_5Cache15CacheItemHelperERKSt8functionIFNS_6StatusEPvmPSA_PmEENS4_8PriorityEbPNS_10StatisticsE
00000000000c4ce0 T _ZN7rocksdb12ShardedCache5EraseERKNS_5SliceE
00000000000c4d40 T _ZN7rocksdb12ShardedCache5NewIdEv
00000000000c4d50 T _ZN7rocksdb12ShardedCache17ApplyToAllEntriesERKSt8functionIFvRKNS_5SliceEPvmPFvS4_S5_EEERKNS_5Cache24ApplyToAllEntriesOptionsE
00000000000c4e50 t _ZNSt7__cxx1112basic_stringIcSt11char_traitsIcESaIcEE12_M_constructIPKcEEvT_S8_St20forward_iterator_tag.isra.32.constprop.45
00000000000c4f00 T _ZNK7rocksdb12ShardedCache19GetPrintableOptionsB5cxx11Ev
00000000000c52c0 T _ZN7rocksdb24GetDefaultCacheShardBitsEm
00000000000c52e0 T _ZNK7rocksdb12ShardedCache15GetNumShardBitsEv
00000000000c52f0 T _ZNK7rocksdb12ShardedCache12GetNumShardsEv
00000000000c5300 T _ZN7rocksdb12ShardedCacheC1EmibSt10shared_ptrINS_15MemoryAllocatorEE
00000000000c53b0 w _ZNK7rocksdb10CacheShard19GetPrintableOptionsB5cxx11Ev
00000000000c53e0 t _ZNSt7__cxx1112basic_stringIcSt11char_traitsIcESaIcEE12_M_constructIPKcEEvT_S8_St20forward_iterator_tag.isra.93
00000000000c54b0 T _ZN7rocksdb23CancelAllBackgroundWorkEPNS_2DBEb
00000000000c54f0 T _ZN7rocksdb18DeleteFilesInRangeEPNS_2DBEPNS_18ColumnFamilyHandleEPKNS_5SliceES6_b
00000000000c5580 T _ZN7rocksdb19DeleteFilesInRangesEPNS_2DBEPNS_18ColumnFamilyHandleEPKNS_8RangePtrEmb
00000000000c5610 T _ZN7rocksdb21VerifySstFileChecksumERKNS_7OptionsERKNS_10EnvOptionsERKNS_11ReadOptionsERKNSt7__cxx1112basic_stringIcSt11char_traitsIcESaIcEEE
00000000000c74f0 T _ZN7rocksdb21VerifySstFileChecksumERKNS_7OptionsERKNS_10EnvOptionsERKNSt7__cxx1112basic_stringIcSt11char_traitsIcESaIcEEE
00000000000c75b0 w _ZN7rocksdb2DB9GetRootDBEv
00000000000c75c0 w _ZNK7rocksdb21UserComparatorWrapper4NameEv
00000000000c75d0 w _ZNK7rocksdb21UserComparatorWrapper21FindShortestSeparatorEPNSt7__cxx1112basic_stringIcSt11char_traitsIcESaIcEEERKNS_5SliceE
00000000000c75e0 w _ZNK7rocksdb21UserComparatorWrapper18FindShortSuccessorEPNSt7__cxx1112basic_stringIcSt11char_traitsIcESaIcEEE
00000000000c75f0 w _ZNK7rocksdb21UserComparatorWrapper17GetRootComparatorEv
00000000000c7600 w _ZNK7rocksdb21UserComparatorWrapper30IsSameLengthImmediateSuccessorERKNS_5SliceES3_
00000000000c7610 w _ZNK7rocksdb21UserComparatorWrapper39CanKeysWithDifferentByteContentsBeEqualEv
00000000000c7620 w _ZNK7rocksdb21UserComparatorWrapper16CompareTimestampERKNS_5SliceES3_
00000000000c7630 w _ZNK7rocksdb21UserComparatorWrapper21EqualWithoutTimestampERKNS_5SliceES3_
00000000000c7640 w _ZNK7rocksdb12TableFactory14NewTableReaderERKNS_18TableReaderOptionsEOSt10unique_ptrINS_22RandomAccessFileReaderESt14default_deleteIS5_EEmPS4_INS_11TableReaderES6_ISA_EEb
00000000000c7740 w _ZN7rocksdb11TableReader14VerifyChecksumERKNS_11ReadOptionsENS_17TableReaderCallerE
00000000000c77c0 w _ZNK7rocksdb21UserComparatorWrapper23CompareWithoutTimestampERKNS_5SliceEbS3_b
00000000000c7830 w _ZNK7rocksdb21UserComparatorWrapper7CompareERKNS_5SliceES3_
00000000000c7880 w _ZNK7rocksdb21UserComparatorWrapper5EqualERKNS_5SliceES3_
00000000000c78d0 w _ZN7rocksdb21UserComparatorWrapperD2Ev
00000000000c79a0 w _ZN7rocksdb21UserComparatorWrapperD0Ev
00000000000c7a40 w _ZN7rocksdb21InternalKeyComparatorD2Ev
00000000000c7b80 w _ZN7rocksdb21InternalKeyComparatorD0Ev
00000000000c7cc0 w _ZN7rocksdb21FSRandomAccessFilePtrD1Ev
00000000000c7e10 w _ZN7rocksdb18ImmutableDBOptionsD1Ev
00000000000c8410 w _ZN7rocksdb18ImmutableCFOptionsD2Ev
00000000000c8a70 w _ZNSt10unique_ptrIN7rocksdb22RandomAccessFileReaderESt14default_deleteIS1_EED1Ev
00000000000c8cc0 w _ZNSt6vectorISt10shared_ptrIN7rocksdb13EventListenerEESaIS3_EE17_M_realloc_insertIJRKS3_EEEvN9__gnu_cxx17__normal_iteratorIPS3_S5_EEDpOT_
00000000000c8f70 T _ZNK7rocksdb6DBImpl19DefaultColumnFamilyEv
00000000000c8f80 T _ZN7rocksdb6DBImpl3GetERKNS_11ReadOptionsEPNS_18ColumnFamilyHandleERKNS_5SliceEPNS_13PinnableSliceE
00000000000c8fd0 t _ZN7rocksdb12_GLOBAL__N_128GetWithTimestampReadCallback18IsVisibleFullCheckEm
00000000000c8fe0 T _ZN7rocksdb6DBImpl8MultiGetERKNS_11ReadOptionsERKSt6vectorIPNS_18ColumnFamilyHandleESaIS6_EERKS4_INS_5SliceESaISB_EEPS4_INSt7__cxx1112basic_stringIcSt11char_traitsIcESaIcEEESaISL_EE
00000000000c9030 T _ZN7rocksdb6DBImpl8MultiGetERKNS_11ReadOptionsEmPPNS_18ColumnFamilyHandleEPKNS_5SliceEPNS_13PinnableSliceEPNS_6StatusEb
00000000000c9060 T _ZN7rocksdb6DBImpl8MultiGetERKNS_11ReadOptionsEPNS_18ColumnFamilyHandleEmPKNS_5SliceEPNS_13PinnableSliceEPNS_6StatusEb
00000000000c9090 T _ZNK7rocksdb6DBImpl7GetNameB5cxx11Ev
00000000000c90a0 T _ZNK7rocksdb6DBImpl6GetEnvEv
00000000000c90b0 T _ZNK7rocksdb6DBImpl13GetFileSystemEv
00000000000c90c0 T _ZN7rocksdb2DB25DestroyColumnFamilyHandleEPNS_18ColumnFamilyHandleE
00000000000c9100 t _ZNSt17_Function_handlerIFPN7rocksdb6DBImpl24MultiGetColumnFamilyDataERNSt8__detail14_Node_iteratorISt4pairIKjS2_ELb0ELb0EEEEZNS1_8MultiGetERKNS0_11ReadOptionsERKSt6vectorIPNS0_18ColumnFamilyHandleESaISH_EERKSF_INS0_5SliceESaISM_EEPSF_INSt7__cxx1112basic_stringIcSt11char_traitsIcESaIcEEESaISW_EESZ_EUlSA_E_E9_M_invokeERKSt9_Any_dataSA_
00000000000c9110 t _ZNSt14_Function_base13_Base_managerIZN7rocksdb6DBImpl8MultiGetERKNS1_11ReadOptionsERKSt6vectorIPNS1_18ColumnFamilyHandleESaIS8_EERKS6_INS1_5SliceESaISD_EEPS6_INSt7__cxx1112basic_stringIcSt11char_traitsIcESaIcEEESaISN_EESQ_EUlRNSt8__detail14_Node_iteratorISt4pairIKjNS2_24MultiGetColumnFamilyDataEELb0ELb0EEEE_E10_M_managerERSt9_Any_dataRKS11_St18_Manager_operation
00000000000c9120 t _ZNSt17_Function_handlerIFPN7rocksdb6DBImpl24MultiGetColumnFamilyDataERNS0_10autovectorIS2_Lm32EE13iterator_implIS5_S2_EEEZNS1_8MultiGetERKNS0_11ReadOptionsEmPPNS0_18ColumnFamilyHandleEPKNS0_5SliceEPNS0_13PinnableSliceEPNSt7__cxx1112basic_stringIcSt11char_traitsIcESaIcEEEPNS0_6StatusEbEUlS8_E_E9_M_invokeERKSt9_Any_dataS8_
00000000000c9160 t _ZNSt14_Function_base13_Base_managerIZN7rocksdb6DBImpl8MultiGetERKNS1_11ReadOptionsEmPPNS1_18ColumnFamilyHandleEPKNS1_5SliceEPNS1_13PinnableSliceEPNSt7__cxx1112basic_stringIcSt11char_traitsIcESaIcEEEPNS1_6StatusEbEUlRNS1_10autovectorINS2_24MultiGetColumnFamilyDataELm32EE13iterator_implISP_SO_EEE_E10_M_managerERSt9_Any_dataRKSV_St18_Manager_operation
00000000000c9170 t _ZNSt17_Function_handlerIFPN7rocksdb6DBImpl24MultiGetColumnFamilyDataERS3_EZNS1_20MultiGetWithCallbackERKNS0_11ReadOptionsEPNS0_18ColumnFamilyHandleEPNS0_12ReadCallbackEPNS0_10autovectorIPNS0_10KeyContextELm32EEEEUlS4_E_E9_M_invokeERKSt9_Any_dataS4_
00000000000c9180 t _ZNSt14_Function_base13_Base_managerIZN7rocksdb6DBImpl20MultiGetWithCallbackERKNS1_11ReadOptionsEPNS1_18ColumnFamilyHandleEPNS1_12ReadCallbackEPNS1_10autovectorIPNS1_10KeyContextELm32EEEEUlRPNS2_24MultiGetColumnFamilyDataEE_E10_M_managerERSt9_Any_dataRKSK_St18_Manager_operation
00000000000c9190 t _ZN7rocksdb12_GLOBAL__N_128GetWithTimestampReadCallbackD2Ev
00000000000c91a0 t _ZN7rocksdb12_GLOBAL__N_128GetWithTimestampReadCallbackD0Ev
00000000000c91b0 t __tcf_5
00000000000c91f0 t __tcf_0
00000000000c9230 t __tcf_1
00000000000c9270 t __tcf_2
00000000000c92b0 t __tcf_4
00000000000c92f0 t __tcf_3
00000000000c9330 T _ZN7rocksdb6DBImpl24SetLastPublishedSequenceEm
00000000000c9340 T _ZN7rocksdb6DBImpl9UnlockWALEv
00000000000c9380 T _ZNK7rocksdb6DBImpl12GetDBOptionsEv
00000000000c9410 T _ZN7rocksdb2DB18CreateColumnFamilyERKNS_19ColumnFamilyOptionsERKNSt7__cxx1112basic_stringIcSt11char_traitsIcESaIcEEEPPNS_18ColumnFamilyHandleE
00000000000c9480 T _ZN7rocksdb2DB20CreateColumnFamiliesERKSt6vectorINS_22ColumnFamilyDescriptorESaIS2_EEPS1_IPNS_18ColumnFamilyHandleESaIS8_EE
00000000000c94f0 T _ZN7rocksdb2DB18DropColumnFamiliesERKSt6vectorIPNS_18ColumnFamilyHandleESaIS3_EE
00000000000c9560 T _ZNK7rocksdb6DBImpl13GetDbIdentityERNSt7__cxx1112basic_stringIcSt11char_traitsIcESaIcEEE
00000000000c95a0 T _ZNK7rocksdb6DBImpl14GetDbSessionIdERNSt7__cxx1112basic_stringIcSt11char_traitsIcESaIcEEE
00000000000c95e0 T _ZN7rocksdb6DBImpl32SetPreserveDeletesSequenceNumberEm
00000000000c9600 T _ZNK7rocksdb6DBImpl23GetLatestSequenceNumberEv
00000000000c9610 T _ZN7rocksdb6DBImpl24GetPropertiesOfAllTablesEPNS_18ColumnFamilyHandleEPSt13unordered_mapINSt7__cxx1112basic_stringIcSt11char_traitsIcESaIcEEESt10shared_ptrIKNS_15TablePropertiesEESt4hashIS9_ESt8equal_toIS9_ESaISt4pairIKS9_SD_EEE
00000000000c96e0 T _ZN7rocksdb6DBImpl28GetPropertiesOfTablesInRangeEPNS_18ColumnFamilyHandleEPKNS_5RangeEmPSt13unordered_mapINSt7__cxx1112basic_stringIcSt11char_traitsIcESaIcEEESt10shared_ptrIKNS_15TablePropertiesEESt4hashISC_ESt8equal_toISC_ESaISt4pairIKSC_SG_EEE
00000000000c97c0 T _ZN7rocksdb6DBImpl12StartIOTraceERKNS_12TraceOptionsEOSt10unique_ptrINS_11TraceWriterESt14default_deleteIS5_EE
00000000000c9820 T _ZN7rocksdb6DBImpl10EndIOTraceEv
00000000000c9860 T _ZN7rocksdb6DBImpl20GetLiveFilesMetaDataEPSt6vectorINS_16LiveFileMetaDataESaIS2_EE
00000000000c98c0 T _ZN7rocksdb6DBImpl24GetLiveFilesChecksumInfoEPNS_16FileChecksumListE
00000000000c9950 T _ZN7rocksdb6DBImpl18NewDefaultReplayerERKSt6vectorIPNS_18ColumnFamilyHandleESaIS3_EEOSt10unique_ptrINS_11TraceReaderESt14default_deleteIS9_EEPS8_INS_8ReplayerESA_ISE_EE
00000000000c99e0 T _ZN7rocksdb6DBImpl20StartBlockCacheTraceERKNS_12TraceOptionsEOSt10unique_ptrINS_11TraceWriterESt14default_deleteIS5_EE
00000000000c9a40 T _ZN7rocksdb6DBImpl18EndBlockCacheTraceEv
00000000000c9a80 t _ZN7rocksdb10RecordTickEPNS_10StatisticsEjm.part.62
00000000000c9a90 t _ZN9__gnu_cxx5__ops15_Iter_comp_iterIN7rocksdb12_GLOBAL__N_117CompareKeyContextEEclINS2_10autovectorIPNS2_10KeyContextELm32EE13iterator_implISA_S9_EESC_EEbT_T0_.isra.791
00000000000c9b80 t _ZNSt8__detail16_Hashtable_allocISaINS_10_Hash_nodeISt4pairIKjN7rocksdb6DBImpl24MultiGetColumnFamilyDataEELb0EEEEE19_M_allocate_bucketsEm.isra.1246
00000000000c9bd0 t _ZNSt16_Sp_counted_baseILN9__gnu_cxx12_Lock_policyE2EE10_M_releaseEv.part.173
00000000000c9c30 T _ZNK7rocksdb2DB13GetFileSystemEv
00000000000c9c70 t _ZNSt7__cxx1112basic_stringIcSt11char_traitsIcESaIcEE12_M_constructIPKcEEvT_S8_St20forward_iterator_tag.isra.833
00000000000c9d40 t _ZNSt7__cxx1112basic_stringIcSt11char_traitsIcESaIcEEC2EPKcRKS3_.isra.835
00000000000c9d90 T _ZN7rocksdb6DBImpl10StartTraceERKNS_12TraceOptionsEOSt10unique_ptrINS_11TraceWriterESt14default_deleteIS5_EE
00000000000c9e60 t _ZSt25__unguarded_linear_insertIN7rocksdb10autovectorIPNS0_10KeyContextELm32EE13iterator_implIS4_S3_EEN9__gnu_cxx5__ops14_Val_comp_iterINS0_12_GLOBAL__N_117CompareKeyContextEEEEvT_T0_.isra.1101
00000000000ca020 t _ZSt16__insertion_sortIN7rocksdb10autovectorIPNS0_10KeyContextELm32EE13iterator_implIS4_S3_EEN9__gnu_cxx5__ops15_Iter_comp_iterINS0_12_GLOBAL__N_117CompareKeyContextEEEEvT_SD_T0_.isra.1433
00000000000ca1f0 t _ZN7rocksdb13PerfStepTimer4StopEv.part.65
00000000000ca250 T _ZN7rocksdb6DBImpl15GetUpdatesSinceEmPSt10unique_ptrINS_22TransactionLogIteratorESt14default_deleteIS2_EERKNS2_11ReadOptionsE
00000000000ca330 t _ZSt13__adjust_heapIN7rocksdb10autovectorIPNS0_10KeyContextELm32EE13iterator_implIS4_S3_EElS3_N9__gnu_cxx5__ops15_Iter_comp_iterINS0_12_GLOBAL__N_117CompareKeyContextEEEEvT_T0_SE_T1_T2_.isra.792
00000000000ca710 t _ZSt25__unguarded_linear_insertIN9__gnu_cxx17__normal_iteratorIPNSt7__cxx1112basic_stringIcSt11char_traitsIcESaIcEEESt6vectorIS7_SaIS7_EEEENS0_5__ops14_Val_less_iterEEvT_T0_.isra.1130
00000000000ca830 T _ZN7rocksdb6DBImpl6ResumeEv
00000000000ca9b0 T _ZN7rocksdb6DBImpl8EndTraceEv
00000000000cab20 T _ZN7rocksdb6DBImpl8FlushWALEb
00000000000cadf0 T _ZN7rocksdb6DBImpl7LockWALEv
00000000000caf50 T _ZNK7rocksdb6DBImpl29GetDbIdentityFromIdentityFileEPNSt7__cxx1112basic_stringIcSt11char_traitsIcESaIcEEE
00000000000cb0b0 T _ZN7rocksdb19GetCompressionFlushERKNS_18ImmutableCFOptionsERKNS_16MutableCFOptionsE
00000000000cb0f0 T _ZN7rocksdb6DBImpl21WaitForBackgroundWorkEv
00000000000cb130 T _ZN7rocksdb6DBImpl23CancelAllBackgroundWorkEb
00000000000cb490 T _ZNK7rocksdb6DBImpl16MaybeIgnoreErrorEPNS_6StatusE
00000000000cb590 T _ZN7rocksdb6DBImpl23CreateArchivalDirectoryEv
00000000000cb6f0 T _ZN7rocksdb6DBImpl15PrintStatisticsEv
00000000000cb7a0 T _ZN7rocksdb6DBImpl26StartPeriodicWorkSchedulerEv
00000000000cb810 T _ZN7rocksdb6DBImpl9DumpStatsEv
00000000000cbbb0 T _ZN7rocksdb6DBImpl12FlushInfoLogEv
00000000000cbbd0 T _ZN7rocksdb6DBImpl24ScheduleBgLogWriterCloseEPNS_10JobContextE
00000000000cbef0 T _ZNK7rocksdb6DBImpl10GetDataDirEPNS_16ColumnFamilyDataEm
00000000000cbf40 T _ZN7rocksdb6DBImpl28FindMinimumEmptyLevelFittingEPNS_16ColumnFamilyDataERKNS_16MutableCFOptionsEi
00000000000cc040 T _ZN7rocksdb6DBImpl17MarkLogsNotSyncedEm
00000000000cc0c0 T _ZN7rocksdb6DBImpl13SchedulePurgeEv
00000000000cc180 T _ZN7rocksdb6DBImpl19BackgroundCallPurgeEv
00000000000cc5c0 T _ZNK7rocksdb6DBImpl27PersistentStatsColumnFamilyEv
00000000000cc5d0 T _ZN7rocksdb6DBImpl12MultiGetImplERKNS_11ReadOptionsEmmPNS_10autovectorIPNS_10KeyContextELm32EEEPNS_12SuperVersionEmPNS_12ReadCallbackE
00000000000cd2c0 T _ZN7rocksdb6DBImpl15GetSnapshotImplEbb
00000000000cd4c0 T _ZN7rocksdb6DBImpl11GetSnapshotEv
00000000000cd4d0 T _ZN7rocksdb6DBImpl35GetSnapshotForWriteConflictBoundaryEv
00000000000cd4e0 T _ZNK7rocksdb6DBImpl14GetSystemClockEv
00000000000cd4f0 T _ZN7rocksdb6DBImpl34GetPropertyHandleOptionsStatisticsEPNSt7__cxx1112basic_stringIcSt11char_traitsIcESaIcEEE
00000000000cd570 T _ZN7rocksdb6DBImpl21GetAndRefSuperVersionEPNS_16ColumnFamilyDataE
00000000000cd580 T _ZN7rocksdb6DBImpl21GetAndRefSuperVersionEj
00000000000cd5c0 T _ZN7rocksdb6DBImpl21GetColumnFamilyHandleEj
00000000000cd600 T _ZN7rocksdb6DBImpl29GetColumnFamilyHandleUnlockedEj
00000000000cd6b0 T _ZN7rocksdb6DBImpl40CaptureCurrentFileNumberInPendingOutputsEv
00000000000cd700 T _ZN7rocksdb6DBImpl35ReleaseFileNumberFromPendingOutputsERSt10unique_ptrISt14_List_iteratorImESt14default_deleteIS3_EE
00000000000cd760 T _ZN7rocksdb6DBImpl19GenerateDbSessionIdB5cxx11EPNS_3EnvE
00000000000cd8e0 T _ZN7rocksdb6DBImpl14SetDbSessionIdEv
00000000000cd950 T _ZN7rocksdb2DBD2Ev
00000000000cd960 T _ZN7rocksdb2DBD0Ev
00000000000cd970 T _ZN7rocksdb2DB18ListColumnFamiliesERKNS_9DBOptionsERKNSt7__cxx1112basic_stringIcSt11char_traitsIcESaIcEEEPSt6vectorIS9_SaIS9_EE
00000000000cd9e0 T _ZN7rocksdb8SnapshotD2Ev
00000000000cd9f0 T _ZN7rocksdb8SnapshotD0Ev
00000000000cda00 T _ZNK7rocksdb6DBImpl21NewThreadStatusCfInfoEPNS_16ColumnFamilyDataE
00000000000cda20 T _ZNK7rocksdb6DBImpl23EraseThreadStatusCfInfoEPNS_16ColumnFamilyDataE
00000000000cda40 T _ZNK7rocksdb6DBImpl23EraseThreadStatusDbInfoEv
00000000000cda60 T _ZN7rocksdb6DBImpl33GetEarliestMemTableSequenceNumberEPNS_12SuperVersionEb
00000000000cdab0 T _ZN7rocksdb6DBImpl23GetLatestSequenceForKeyEPNS_12SuperVersionERKNS_5SliceEbmPmPbS7_
00000000000ce070 T _ZN7rocksdb6DBImpl22VerifyFullFileChecksumERKNSt7__cxx1112basic_stringIcSt11char_traitsIcESaIcEEES8_S8_RKNS_11ReadOptionsE
00000000000ce4c0 T _ZN7rocksdb6DBImpl17WaitForIngestFileEv
00000000000ce510 T _ZN7rocksdb6DBImpl17TraceIteratorSeekERKjRKNS_5SliceES5_S3_
00000000000ce610 T _ZN7rocksdb6DBImpl24TraceIteratorSeekForPrevERKjRKNS_5SliceES5_S3_
00000000000ce710 T _ZN7rocksdb6DBImpl18IngestExternalFileEPNS_18ColumnFamilyHandleERKSt6vectorINSt7__cxx1112basic_stringIcSt11char_traitsIcESaIcEEESaIS9_EERKNS_25IngestExternalFileOptionsE
00000000000cf140 T _ZN7rocksdb6DBImpl14GetMapPropertyEPNS_18ColumnFamilyHandleERKNS_5SliceEPSt3mapINSt7__cxx1112basic_stringIcSt11char_traitsIcESaIcEEESC_St4lessISC_ESaISt4pairIKSC_SC_EEE
00000000000cf250 T _ZN7rocksdb6DBImpl15GetStatsHistoryEmmPSt10unique_ptrINS_20StatsHistoryIteratorESt14default_deleteIS2_EE
00000000000cf450 T _ZNK7rocksdb6DBImpl10GetOptionsEPNS_18ColumnFamilyHandleE
00000000000d0b10 T _ZN7rocksdb6DBImpl19CleanupSuperVersionEPNS_12SuperVersionE
00000000000d0c60 T _ZN7rocksdb6DBImpl27TablesRangeTombstoneSummaryEPNS_18ColumnFamilyHandleEiPNSt7__cxx1112basic_stringIcSt11char_traitsIcESaIcEEE
00000000000d0d10 T _ZN7rocksdb6DBImpl19NewInternalIteratorERKNS_11ReadOptionsEPNS_16ColumnFamilyDataEPNS_12SuperVersionEPNS_5ArenaEPNS_18RangeDelAggregatorEmb
00000000000d0f90 T _ZN7rocksdb6DBImpl19NewInternalIteratorERKNS_11ReadOptionsEPNS_5ArenaEPNS_18RangeDelAggregatorEmPNS_18ColumnFamilyHandleEb
00000000000d1040 T _ZN7rocksdb6DBImpl15NewIteratorImplERKNS_11ReadOptionsEPNS_16ColumnFamilyDataEmPNS_12ReadCallbackEbb
00000000000d1230 T _ZN7rocksdb6DBImpl11NewIteratorERKNS_11ReadOptionsEPNS_18ColumnFamilyHandleE
00000000000d1500 T _ZN7rocksdb6DBImpl28ReturnAndCleanupSuperVersionEPNS_16ColumnFamilyDataEPNS_12SuperVersionE
00000000000d1540 T _ZN7rocksdb6DBImpl7GetImplERKNS_11ReadOptionsERKNS_5SliceERNS0_14GetImplOptionsE
00000000000d21e0 T _ZN7rocksdb6DBImpl3GetERKNS_11ReadOptionsEPNS_18ColumnFamilyHandleERKNS_5SliceEPNS_13PinnableSliceEPNSt7__cxx1112basic_stringIcSt11char_traitsIcESaIcEEE
00000000000d2260 T _ZN7rocksdb6DBImpl11KeyMayExistERKNS_11ReadOptionsEPNS_18ColumnFamilyHandleERKNS_5SliceEPNSt7__cxx1112basic_stringIcSt11char_traitsIcESaIcEEESF_Pb
00000000000d25c0 T _ZN7rocksdb6DBImpl20MultiGetWithCallbackERKNS_11ReadOptionsEPNS_18ColumnFamilyHandleEPNS_12ReadCallbackEPNS_10autovectorIPNS_10KeyContextELm32EEE
00000000000d27e0 T _ZN7rocksdb6DBImpl22GetIntPropertyInternalEPNS_16ColumnFamilyDataERKNS_14DBPropertyInfoEbPm
00000000000d2930 T _ZN7rocksdb6DBImpl11GetPropertyEPNS_18ColumnFamilyHandleERKNS_5SliceEPNSt7__cxx1112basic_stringIcSt11char_traitsIcESaIcEEE
00000000000d2b40 T _ZN7rocksdb6DBImpl14GetIntPropertyEPNS_18ColumnFamilyHandleERKNS_5SliceEPm
00000000000d2ba0 T _ZN7rocksdb6DBImpl24GetAggregatedIntPropertyERKNS_5SliceEPm
00000000000d2ce0 T _ZN7rocksdb6DBImpl28ReturnAndCleanupSuperVersionEjPNS_12SuperVersionE
00000000000d2d10 T _ZN7rocksdb6DBImpl27GetApproximateMemTableStatsEPNS_18ColumnFamilyHandleERKNS_5RangeEPmS6_
00000000000d2f80 T _ZN7rocksdb6DBImpl19GetApproximateSizesERKNS_24SizeApproximationOptionsEPNS_18ColumnFamilyHandleEPKNS_5RangeEiPm
00000000000d34f0 T _ZN7rocksdb6DBImpl23GetColumnFamilyMetaDataEPNS_18ColumnFamilyHandleEPNS_20ColumnFamilyMetaDataE
00000000000d3580 T _ZN7rocksdb6DBImpl27GetCreationTimeOfOldestFileEPm
00000000000d36f0 T _ZN7rocksdb9DestroyDBERKNSt7__cxx1112basic_stringIcSt11char_traitsIcESaIcEEERKNS_7OptionsERKSt6vectorINS_22ColumnFamilyDescriptorESaISC_EE
00000000000d46e0 T _ZN7rocksdb6DBImpl26DeleteObsoleteOptionsFilesEv
00000000000d4df0 T _ZN7rocksdb6DBImpl27RenameTempFileToOptionsFileERKNSt7__cxx1112basic_stringIcSt11char_traitsIcESaIcEEE
00000000000d5080 T _ZN7rocksdb23DumpRocksDBBuildVersionEPNS_6LoggerE
00000000000d51d0 T _ZN7rocksdb6DBImpl15ReleaseSnapshotEPKNS_8SnapshotE
00000000000d5560 T _ZN7rocksdb6DBImpl15FindStatsByTimeEmmPmPSt3mapINSt7__cxx1112basic_stringIcSt11char_traitsIcESaIcEEEmSt4lessIS8_ESaISt4pairIKS8_mEEE
00000000000d5650 T _ZN7rocksdb6DBImpl12NewIteratorsERKNS_11ReadOptionsERKSt6vectorIPNS_18ColumnFamilyHandleESaIS6_EEPS4_IPNS_8IteratorESaISC_EE
00000000000d59d0 T _ZN7rocksdb6DBImpl16WriteOptionsFileEbb
00000000000d6150 T _ZN7rocksdb6DBImpl12SetDBOptionsERKSt13unordered_mapINSt7__cxx1112basic_stringIcSt11char_traitsIcESaIcEEES7_St4hashIS7_ESt8equal_toIS7_ESaISt4pairIKS7_S7_EEE
00000000000d6f40 T _ZN7rocksdb6DBImpl22VerifyChecksumInternalERKNS_11ReadOptionsEb
00000000000d8860 T _ZN7rocksdb6DBImpl19VerifyFileChecksumsERKNS_11ReadOptionsE
00000000000d88b0 T _ZN7rocksdb6DBImpl14VerifyChecksumERKNS_11ReadOptionsE
00000000000d88f0 T _ZN7rocksdb6DBImpl28NotifyOnExternalFileIngestedEPNS_16ColumnFamilyDataERKNS_27ExternalSstFileIngestionJobE
00000000000d9250 t _ZNK7rocksdb6DBImpl32EstimateInMemoryStatsHistorySizeEv.part.1427
00000000000d9380 T _ZNK7rocksdb6DBImpl32EstimateInMemoryStatsHistorySizeEv
00000000000d93a0 T _ZN7rocksdb6DBImpl26GetAllColumnFamilyMetaDataEPSt6vectorINS_20ColumnFamilyMetaDataESaIS2_EE
00000000000d94f0 T _ZN7rocksdb6DBImpl8MultiGetERKNS_11ReadOptionsERKSt6vectorIPNS_18ColumnFamilyHandleESaIS6_EERKS4_INS_5SliceESaISB_EEPS4_INSt7__cxx1112basic_stringIcSt11char_traitsIcESaIcEEESaISL_EESO_
00000000000da880 t _ZN7rocksdb12_GLOBAL__N_1L20CleanupIteratorStateEPvS1_
00000000000daaf0 T _ZN7rocksdb6DBImpl11CloseHelperEv
00000000000db770 T _ZN7rocksdb6DBImpl9CloseImplEv
00000000000db7b0 T _ZN7rocksdb6DBImpl5CloseEv
00000000000db8d0 t _ZSt16__introsort_loopIN7rocksdb10autovectorIPNS0_10KeyContextELm32EE13iterator_implIS4_S3_EElN9__gnu_cxx5__ops15_Iter_comp_iterINS0_12_GLOBAL__N_117CompareKeyContextEEEEvT_SD_T0_T1_
00000000000dc020 t _ZN7rocksdb6DBImpl19PrepareMultiGetKeysEmbPNS_10autovectorIPNS_10KeyContextELm32EEE.part.1436
00000000000dc120 T _ZN7rocksdb6DBImpl19PrepareMultiGetKeysEmbPNS_10autovectorIPNS_10KeyContextELm32EEE
00000000000dc140 T _ZN7rocksdb6DBImpl8MultiGetERKNS_11ReadOptionsEPNS_18ColumnFamilyHandleEmPKNS_5SliceEPNS_13PinnableSliceEPNSt7__cxx1112basic_stringIcSt11char_traitsIcESaIcEEEPNS_6StatusEb
00000000000dc7a0 T _ZN7rocksdb6DBImpl8MultiGetERKNS_11ReadOptionsEmPPNS_18ColumnFamilyHandleEPKNS_5SliceEPNS_13PinnableSliceEPNSt7__cxx1112basic_stringIcSt11char_traitsIcESaIcEEEPNS_6StatusEb
00000000000dd3b0 T _ZN7rocksdb6DBImpl10ResumeImplENS_16DBRecoverContextE
00000000000ddda0 T _ZN7rocksdb6DBImpl10SetOptionsEPNS_18ColumnFamilyHandleERKSt13unordered_mapINSt7__cxx1112basic_stringIcSt11char_traitsIcESaIcEEES9_St4hashIS9_ESt8equal_toIS9_ESaISt4pairIKS9_S9_EEE
00000000000de850 T _ZN7rocksdb6DBImpl14MarkLogsSyncedEmb
00000000000dee60 T _ZN7rocksdb6DBImpl7SyncWALEv
00000000000df5b0 T _ZN7rocksdb6DBImpl22CreateColumnFamilyImplERKNS_19ColumnFamilyOptionsERKNSt7__cxx1112basic_stringIcSt11char_traitsIcESaIcEEEPPNS_18ColumnFamilyHandleE
00000000000e0300 T _ZN7rocksdb6DBImpl18CreateColumnFamilyERKNS_19ColumnFamilyOptionsERKNSt7__cxx1112basic_stringIcSt11char_traitsIcESaIcEEEPPNS_18ColumnFamilyHandleE
00000000000e03b0 T _ZN7rocksdb6DBImpl20CreateColumnFamiliesERKNS_19ColumnFamilyOptionsERKSt6vectorINSt7__cxx1112basic_stringIcSt11char_traitsIcESaIcEEESaISA_EEPS4_IPNS_18ColumnFamilyHandleESaISG_EE
00000000000e05a0 T _ZN7rocksdb6DBImpl20CreateColumnFamiliesERKSt6vectorINS_22ColumnFamilyDescriptorESaIS2_EEPS1_IPNS_18ColumnFamilyHandleESaIS8_EE
00000000000e0790 T _ZN7rocksdb6DBImpl20DropColumnFamilyImplEPNS_18ColumnFamilyHandleE
00000000000e0db0 T _ZN7rocksdb6DBImpl16DropColumnFamilyEPNS_18ColumnFamilyHandleE
00000000000e0e60 T _ZN7rocksdb6DBImpl18DropColumnFamiliesERKSt6vectorIPNS_18ColumnFamilyHandleESaIS3_EE
00000000000e0fc0 T _ZN7rocksdb6DBImpl10DeleteFileENSt7__cxx1112basic_stringIcSt11char_traitsIcESaIcEEE
00000000000e1750 T _ZN7rocksdb6DBImpl19DeleteFilesInRangesEPNS_18ColumnFamilyHandleEPKNS_8RangePtrEmb
00000000000e2080 T _ZN7rocksdb6DBImpl28CreateColumnFamilyWithImportERKNS_19ColumnFamilyOptionsERKNSt7__cxx1112basic_stringIcSt11char_traitsIcESaIcEEERKNS_25ImportColumnFamilyOptionsERKNS_25ExportImportFilesMetaDataEPPNS_18ColumnFamilyHandleE
00000000000e3040 T _ZN7rocksdb6DBImpl33ReserveFileNumbersBeforeIngestionEPNS_16ColumnFamilyDataEmRSt10unique_ptrISt14_List_iteratorImESt14default_deleteIS5_EEPm
00000000000e3310 t _ZSt16__introsort_loopIN9__gnu_cxx17__normal_iteratorIPNSt7__cxx1112basic_stringIcSt11char_traitsIcESaIcEEESt6vectorIS7_SaIS7_EEEElNS0_5__ops15_Iter_less_iterEEvT_SF_T0_T1_.isra.1511
00000000000e36e0 T _ZN7rocksdb6DBImpl16CheckConsistencyEv
00000000000e4ad0 T _ZN7rocksdb6DBImpl19IngestExternalFilesERKSt6vectorINS_21IngestExternalFileArgESaIS2_EE
00000000000e67b0 T _ZN7rocksdb6DBImplC2ERKNS_9DBOptionsERKNSt7__cxx1112basic_stringIcSt11char_traitsIcESaIcEEEbbb
00000000000e8b10 T _ZN7rocksdb6DBImplD1Ev
00000000000e91c0 T _ZN7rocksdb6DBImplD0Ev
00000000000e91e0 T _ZN7rocksdb6DBImpl12PersistStatsEv
00000000000e9b20 T _ZN7rocksdb6DBImpl10ResetStatsEv
00000000000e9f90 w _ZNK7rocksdb11MemTableRep19IsSnapshotSupportedEv
00000000000e9fa0 w _ZN7rocksdb2DB6ResumeEv
00000000000e9fc0 w _ZN7rocksdb2DB5CloseEv
00000000000e9fe0 w _ZN7rocksdb2DB11KeyMayExistERKNS_11ReadOptionsEPNS_18ColumnFamilyHandleERKNS_5SliceEPNSt7__cxx1112basic_stringIcSt11char_traitsIcESaIcEEESF_Pb
00000000000ea000 w _ZN7rocksdb2DB11KeyMayExistERKNS_11ReadOptionsEPNS_18ColumnFamilyHandleERKNS_5SliceEPNSt7__cxx1112basic_stringIcSt11char_traitsIcESaIcEEEPb
00000000000ea020 w _ZN7rocksdb2DB12CompactRangeEPNS_18ColumnFamilyHandleEPKNS_5SliceES5_bij
00000000000ea0b0 w _ZN7rocksdb2DB20GetLiveFilesMetaDataEPSt6vectorINS_16LiveFileMetaDataESaIS2_EE
00000000000ea0c0 w _ZN7rocksdb2DB23GetColumnFamilyMetaDataEPNS_18ColumnFamilyHandleEPNS_20ColumnFamilyMetaDataE
00000000000ea0d0 w _ZN7rocksdb2DB26GetAllColumnFamilyMetaDataEPSt6vectorINS_20ColumnFamilyMetaDataESaIS2_EE
00000000000ea0e0 w _ZN7rocksdb2DB7AddFileEPNS_18ColumnFamilyHandleERKSt6vectorINSt7__cxx1112basic_stringIcSt11char_traitsIcESaIcEEESaIS9_EEbb
00000000000ea160 w _ZN7rocksdb12ReadCallback7RefreshEm
00000000000ea170 w _ZNK7rocksdb26ColumnFamilyHandleInternal3cfdEv
00000000000ea180 w _ZNK7rocksdb12SnapshotImpl17GetSequenceNumberEv
00000000000ea190 w _ZNK7rocksdb6DBImpl16OwnTablesAndLogsEv
00000000000ea1a0 w _ZN7rocksdb18ArenaWrappedDBIter8GetArenaEv
00000000000ea1b0 w _ZN7rocksdb18ArenaWrappedDBIter21GetRangeDelAggregatorEv
00000000000ea1c0 w _ZN7rocksdb12SnapshotImplD2Ev
00000000000ea1d0 w _ZNSt19_Sp_counted_deleterIPN7rocksdb8IOTracerENSt12__shared_ptrIS1_LN9__gnu_cxx12_Lock_policyE2EE8_DeleterISaIS1_EEES8_LS5_2EED2Ev
00000000000ea1e0 w _ZNSt19_Sp_counted_deleterIPN7rocksdb8IOTracerENSt12__shared_ptrIS1_LN9__gnu_cxx12_Lock_policyE2EE8_DeleterISaIS1_EEES8_LS5_2EE14_M_get_deleterERKSt9type_info
00000000000ea1f0 w _ZNSt19_Sp_counted_deleterIPN7rocksdb24FileSystemTracingWrapperENSt12__shared_ptrIS1_LN9__gnu_cxx12_Lock_policyE2EE8_DeleterISaIS1_EEES8_LS5_2EED1Ev
00000000000ea200 w _ZNSt19_Sp_counted_deleterIPN7rocksdb24FileSystemTracingWrapperENSt12__shared_ptrIS1_LN9__gnu_cxx12_Lock_policyE2EE8_DeleterISaIS1_EEES8_LS5_2EE14_M_get_deleterERKSt9type_info
00000000000ea210 w _ZN7rocksdb12SnapshotImplD0Ev
00000000000ea220 w _ZNSt19_Sp_counted_deleterIPN7rocksdb24FileSystemTracingWrapperENSt12__shared_ptrIS1_LN9__gnu_cxx12_Lock_policyE2EE8_DeleterISaIS1_EEES8_LS5_2EED0Ev
00000000000ea230 w _ZNSt19_Sp_counted_deleterIPN7rocksdb8IOTracerENSt12__shared_ptrIS1_LN9__gnu_cxx12_Lock_policyE2EE8_DeleterISaIS1_EEES8_LS5_2EED0Ev
00000000000ea240 w _ZNSt19_Sp_counted_deleterIPN7rocksdb8IOTracerENSt12__shared_ptrIS1_LN9__gnu_cxx12_Lock_policyE2EE8_DeleterISaIS1_EEES8_LS5_2EE10_M_destroyEv
00000000000ea250 w _ZNSt19_Sp_counted_deleterIPN7rocksdb24FileSystemTracingWrapperENSt12__shared_ptrIS1_LN9__gnu_cxx12_Lock_policyE2EE8_DeleterISaIS1_EEES8_LS5_2EE10_M_destroyEv
00000000000ea260 w _ZNSt19_Sp_counted_deleterIPN7rocksdb8IOTracerENSt12__shared_ptrIS1_LN9__gnu_cxx12_Lock_policyE2EE8_DeleterISaIS1_EEES8_LS5_2EE10_M_disposeEv
00000000000ea2a0 w _ZN7rocksdb26ColumnFamilyHandleInternalD1Ev
00000000000ea2b0 w _ZN7rocksdb26ColumnFamilyHandleInternalD0Ev
00000000000ea2e0 w _ZN7rocksdb6DBImpl17WBMStallInterfaceD1Ev
00000000000ea310 w _ZN7rocksdb6DBImpl17WBMStallInterfaceD0Ev
00000000000ea350 w _ZN7rocksdb6DBImpl17WBMStallInterface6SignalEv
00000000000ea3a0 w _ZN7rocksdb6DBImpl17WBMStallInterface5BlockEv
00000000000ea400 w _ZN7rocksdb2DB21TryCatchUpWithPrimaryEv
00000000000ea480 w _ZN7rocksdb2DB15GetStatsHistoryEmmPSt10unique_ptrINS_20StatsHistoryIteratorESt14default_deleteIS2_EE
00000000000ea500 w _ZN7rocksdb2DB18NewDefaultReplayerERKSt6vectorIPNS_18ColumnFamilyHandleESaIS3_EEOSt10unique_ptrINS_11TraceReaderESt14default_deleteIS9_EEPS8_INS_8ReplayerESA_ISE_EE
00000000000ea580 w _ZN7rocksdb2DB18EndBlockCacheTraceEv
00000000000ea600 w _ZN7rocksdb2DB20StartBlockCacheTraceERKNS_12TraceOptionsEOSt10unique_ptrINS_11TraceWriterESt14default_deleteIS5_EE
00000000000ea680 w _ZN7rocksdb2DB10EndIOTraceEv
00000000000ea700 w _ZN7rocksdb2DB12StartIOTraceERKNS_12TraceOptionsEOSt10unique_ptrINS_11TraceWriterESt14default_deleteIS5_EE
00000000000ea780 w _ZN7rocksdb2DB8EndTraceEv
00000000000ea800 w _ZN7rocksdb2DB10StartTraceERKNS_12TraceOptionsEOSt10unique_ptrINS_11TraceWriterESt14default_deleteIS5_EE
00000000000ea880 w _ZN7rocksdb2DB9PromoteL0EPNS_18ColumnFamilyHandleEi
00000000000ea900 w _ZN7rocksdb2DB19SuggestCompactRangeEPNS_18ColumnFamilyHandleEPKNS_5SliceES5_
00000000000ea980 w _ZN7rocksdb2DB19VerifyFileChecksumsERKNS_11ReadOptionsE
00000000000eaa00 w _ZN7rocksdb2DB9UnlockWALEv
00000000000eaa80 w _ZN7rocksdb2DB7LockWALEv
00000000000eab00 w _ZN7rocksdb2DB8FlushWALEb
00000000000eab80 w _ZN7rocksdb2DB10SetOptionsEPNS_18ColumnFamilyHandleERKSt13unordered_mapINSt7__cxx1112basic_stringIcSt11char_traitsIcESaIcEEES9_St4hashIS9_ESt8equal_toIS9_ESaISt4pairIKS9_S9_EEE
00000000000eac00 w _ZN7rocksdb2DB10ResetStatsEv
00000000000eac80 w _ZN7rocksdb2DB3GetERKNS_11ReadOptionsEPNS_18ColumnFamilyHandleERKNS_5SliceEPNS_13PinnableSliceEPNSt7__cxx1112basic_stringIcSt11char_traitsIcESaIcEEE
00000000000ead00 w _ZN7rocksdb10Statistics21reportTimeToHistogramEjm
00000000000ead20 w _ZNK7rocksdb6DBImpl24GetLastPublishedSequenceEv
00000000000ead40 w _ZN7rocksdb2DB14VerifyChecksumEv
00000000000eae00 w _ZN7rocksdb18ArenaWrappedDBIter18SetIterUnderDBIterEPNS_20InternalIteratorBaseINS_5SliceEEE
00000000000eae80 w _ZN7rocksdb2DB8MultiGetERKNS_11ReadOptionsERKSt6vectorIPNS_18ColumnFamilyHandleESaIS6_EERKS4_INS_5SliceESaISB_EEPS4_INSt7__cxx1112basic_stringIcSt11char_traitsIcESaIcEEESaISL_EESO_
00000000000eb040 w _ZN7rocksdb2DB24GetPropertiesOfAllTablesEPSt13unordered_mapINSt7__cxx1112basic_stringIcSt11char_traitsIcESaIcEEESt10shared_ptrIKNS_15TablePropertiesEESt4hashIS7_ESt8equal_toIS7_ESaISt4pairIKS7_SB_EEE
00000000000eb0d0 w _ZN7rocksdb2DB11KeyMayExistERKNS_11ReadOptionsERKNS_5SliceEPNSt7__cxx1112basic_stringIcSt11char_traitsIcESaIcEEESD_Pb
00000000000eb160 w _ZN7rocksdb2DB14GetMapPropertyERKNS_5SliceEPSt3mapINSt7__cxx1112basic_stringIcSt11char_traitsIcESaIcEEESA_St4lessISA_ESaISt4pairIKSA_SA_EEE
00000000000eb1d0 w _ZN7rocksdb2DB27GetApproximateMemTableStatsERKNS_5RangeEPmS4_
00000000000eb240 w _ZN7rocksdb2DB12CompactRangeEPKNS_5SliceES3_bij
00000000000eb320 w _ZN7rocksdb2DB12NumberLevelsEv
00000000000eb380 w _ZN7rocksdb2DB21MaxMemCompactionLevelEv
00000000000eb3e0 w _ZN7rocksdb2DB22Level0StopWriteTriggerEv
00000000000eb440 w _ZN7rocksdb2DB18IngestExternalFileERKSt6vectorINSt7__cxx1112basic_stringIcSt11char_traitsIcESaIcEEESaIS7_EERKNS_25IngestExternalFileOptionsE
00000000000eb4e0 w _ZN7rocksdb2DB7AddFileERKSt6vectorINSt7__cxx1112basic_stringIcSt11char_traitsIcESaIcEEESaIS7_EEbb
00000000000eb5a0 w _ZN7rocksdb2DB11KeyMayExistERKNS_11ReadOptionsERKNS_5SliceEPNSt7__cxx1112basic_stringIcSt11char_traitsIcESaIcEEEPb
00000000000eb660 w _ZN7rocksdb2DB8MultiGetERKNS_11ReadOptionsERKSt6vectorINS_5SliceESaIS5_EEPS4_INSt7__cxx1112basic_stringIcSt11char_traitsIcESaIcEEESaISF_EESI_
00000000000eb7f0 w _ZN7rocksdb2DB19GetApproximateSizesEPNS_18ColumnFamilyHandleEPKNS_5RangeEiPmb
00000000000eb8d0 w _ZN7rocksdb2DB19GetApproximateSizesEPKNS_5RangeEiPmb
00000000000eba00 w _ZN7rocksdb10EnvWrapper10RenameFileERKNSt7__cxx1112basic_stringIcSt11char_traitsIcESaIcEEES8_
00000000000ebb10 w _ZN7rocksdb10EnvWrapper10DeleteFileERKNSt7__cxx1112basic_stringIcSt11char_traitsIcESaIcEEE
00000000000ebc00 w _ZN7rocksdb11WriteThreadD0Ev
00000000000ebc80 w _ZN7rocksdb11WriteThreadD2Ev
00000000000ebd00 w _ZN7rocksdb6StatusaSERKS0_
00000000000ebd60 w _ZN7rocksdb13PerfStepTimer5StartEv
00000000000ebdb0 w _ZN7rocksdb9StopWatchC1EPNS_11SystemClockEPNS_10StatisticsEjPmbb
00000000000ebee0 w _ZN7rocksdb9StopWatchD2Ev
00000000000ec010 w _ZNSt12__shared_ptrIN7rocksdb10FileSystemELN9__gnu_cxx12_Lock_policyE2EEC1ERKS4_
00000000000ec040 w _ZNSt12__shared_ptrIN7rocksdb8IOTracerELN9__gnu_cxx12_Lock_policyE2EEC2ERKS4_
00000000000ec070 w _ZNK7rocksdb13FileSystemPtrptEv
00000000000ec0d0 w _ZN7rocksdb12MergeContextD2Ev
00000000000ec180 w _ZN7rocksdb15MultiGetContextD1Ev
00000000000ec200 w _ZN7rocksdb11WriteThread6WriterD1Ev
00000000000ec250 w _ZN7rocksdb19SuperVersionContext5CleanEv
00000000000ec460 w _ZN7rocksdb19SuperVersionContextD1Ev
00000000000ec600 w _ZNK7rocksdb10JobContext21HaveSomethingToDeleteEv
00000000000ec650 w _ZN7rocksdb10JobContext5CleanEv
00000000000ec860 w _ZN7rocksdb11VersionEditC1Ev
00000000000eca10 w _ZN7rocksdb6DBImpl12WriteContextD2Ev
00000000000ecae0 w _ZN7rocksdb11DirectoriesD2Ev
00000000000ecb70 w _ZN7rocksdb21IngestExternalFileArgD1Ev
00000000000ecba0 w _ZN7rocksdb2DB7AddFileEPKNS_19ExternalSstFileInfoEbb
00000000000ecd70 w _ZN7rocksdb2DB7AddFileEPNS_18ColumnFamilyHandleEPKNS_19ExternalSstFileInfoEbb
00000000000ecf30 w _ZN7rocksdb2DB7AddFileERKNSt7__cxx1112basic_stringIcSt11char_traitsIcESaIcEEEbb
00000000000ed100 w _ZN7rocksdb2DB7AddFileEPNS_18ColumnFamilyHandleERKNSt7__cxx1112basic_stringIcSt11char_traitsIcESaIcEEEbb
00000000000ed2c0 w _ZN7rocksdb10JobContextD2Ev
00000000000ed540 w _ZStplIcSt11char_traitsIcESaIcEENSt7__cxx1112basic_stringIT_T0_T1_EERKS8_PKS5_
00000000000ed5d0 w _ZNSt6vectorIN7rocksdb6DbPathESaIS1_EED2Ev
00000000000ed670 w _ZStplIcSt11char_traitsIcESaIcEENSt7__cxx1112basic_stringIT_T0_T1_EEOS8_RKS8_
00000000000ed6e0 w _ZNSt10_HashtableImmSaImENSt8__detail9_IdentityESt8equal_toImESt4hashImENS1_18_Mod_range_hashingENS1_20_Default_ranged_hashENS1_20_Prime_rehash_policyENS1_17_Hashtable_traitsILb0ELb1ELb1EEEED1Ev
00000000000ed760 w _ZNSt6vectorISt8functionIFvRKN7rocksdb6StatusEEESaIS6_EED1Ev
00000000000ed7d0 w _ZNSt6vectorIN7rocksdb19SuperVersionContextESaIS1_EED2Ev
00000000000ed870 w _ZNSt10_HashtableImSt4pairIKmmESaIS2_ENSt8__detail10_Select1stESt8equal_toImESt4hashImENS4_18_Mod_range_hashingENS4_20_Default_ranged_hashENS4_20_Prime_rehash_policyENS4_17_Hashtable_traitsILb0ELb0ELb1EEEED1Ev
00000000000ed8f0 w _ZStplIcSt11char_traitsIcESaIcEENSt7__cxx1112basic_stringIT_T0_T1_EEPKS5_RKS8_
00000000000ed9b0 w _ZNSt10_HashtableINSt7__cxx1112basic_stringIcSt11char_traitsIcESaIcEEESt4pairIKS5_PN7rocksdb6DBImpl20RecoveredTransactionEESaISC_ENSt8__detail10_Select1stESt8equal_toIS5_ESt4hashIS5_ENSE_18_Mod_range_hashingENSE_20_Default_ranged_hashENSE_20_Prime_rehash_policyENSE_17_Hashtable_traitsILb1ELb0ELb1EEEED2Ev
00000000000eda50 w _ZNSt5dequeISt6vectorISt4pairIPN7rocksdb16ColumnFamilyDataEmESaIS5_EESaIS7_EED2Ev
00000000000edc00 w _ZNSt10_HashtableImSt4pairIKmN7rocksdb6DBImpl13PurgeFileInfoEESaIS5_ENSt8__detail10_Select1stESt8equal_toImESt4hashImENS7_18_Mod_range_hashingENS7_20_Default_ranged_hashENS7_20_Prime_rehash_policyENS7_17_Hashtable_traitsILb0ELb0ELb1EEEED2Ev
00000000000edcb0 w _ZNSt6vectorImSaImEEaSERKS1_
00000000000ede00 w _ZNSt10_HashtableIjSt4pairIKjN7rocksdb6DBImpl24MultiGetColumnFamilyDataEESaIS5_ENSt8__detail10_Select1stESt8equal_toIjESt4hashIjENS7_18_Mod_range_hashingENS7_20_Default_ranged_hashENS7_20_Prime_rehash_policyENS7_17_Hashtable_traitsILb0ELb0ELb1EEEED2Ev
00000000000ede80 w _ZN7rocksdb6DBImpl15MultiCFSnapshotISt5arrayINS0_24MultiGetColumnFamilyDataELm1EEEEbRKNS_11ReadOptionsEPNS_12ReadCallbackERSt8functionIFPS3_RNT_8iteratorEEEPSC_Pm
00000000000ee080 w _ZSt13binary_searchIN9__gnu_cxx17__normal_iteratorIPNSt7__cxx1112basic_stringIcSt11char_traitsIcESaIcEEESt6vectorIS7_SaIS7_EEEES7_EbT_SD_RKT0_
00000000000ee170 w _ZNSt6vectorINSt7__cxx1112basic_stringIcSt11char_traitsIcESaIcEEESaIS5_EEaSERKS7_
00000000000ee460 w _ZNSt6vectorIN7rocksdb21IngestExternalFileArgESaIS1_EED1Ev
00000000000ee5d0 w _ZNSt10_HashtableIPN7rocksdb18ColumnFamilyHandleES2_SaIS2_ENSt8__detail9_IdentityESt8equal_toIS2_ESt4hashIS2_ENS4_18_Mod_range_hashingENS4_20_Default_ranged_hashENS4_20_Prime_rehash_policyENS4_17_Hashtable_traitsILb0ELb1ELb1EEEED1Ev
00000000000ee650 w _ZNSt8_Rb_treeINSt7__cxx1112basic_stringIcSt11char_traitsIcESaIcEEESt4pairIKS5_S5_ESt10_Select1stIS8_ESt4lessIS5_ESaIS8_EE8_M_eraseEPSt13_Rb_tree_nodeIS8_E
00000000000ee6d0 w _ZN7rocksdb15TablePropertiesD1Ev
00000000000ee830 w _ZN7rocksdb13FileSystemPtrD2Ev
00000000000ee880 w _ZN7rocksdb24FileSystemTracingWrapperD0Ev
00000000000ee8e0 w _ZN7rocksdb24FileSystemTracingWrapperD1Ev
00000000000ee930 w _ZN7rocksdb13FileSystemPtrC1ESt10shared_ptrINS_10FileSystemEERKS1_INS_8IOTracerEE
00000000000eebf0 w _ZNSt19_Sp_counted_deleterIPN7rocksdb24FileSystemTracingWrapperENSt12__shared_ptrIS1_LN9__gnu_cxx12_Lock_policyE2EE8_DeleterISaIS1_EEES8_LS5_2EE10_M_disposeEv
00000000000eec70 w _ZN7rocksdb7OptionsC2ERKNS_9DBOptionsERKNS_19ColumnFamilyOptionsE
00000000000f02b0 w _ZNSt6vectorIPN7rocksdb18ColumnFamilyHandleESaIS2_EE17_M_realloc_insertIJRS2_EEEvN9__gnu_cxx17__normal_iteratorIPS2_S4_EEDpOT_
00000000000f03f0 w _ZNSt6vectorIPN7rocksdb18ColumnFamilyHandleESaIS2_EE12emplace_backIJRS2_EEEvDpOT_
00000000000f0420 w _ZNSt6vectorIN7rocksdb5SliceESaIS1_EE17_M_realloc_insertIJRKS1_EEEvN9__gnu_cxx17__normal_iteratorIPS1_S3_EEDpOT_
00000000000f0590 w _ZNSt6vectorIN7rocksdb5SliceESaIS1_EE12emplace_backIJRKS1_EEEvDpOT_
00000000000f05c0 w _ZN7rocksdb2DB8MultiGetERKNS_11ReadOptionsEmPPNS_18ColumnFamilyHandleEPKNS_5SliceEPNS_13PinnableSliceEPNSt7__cxx1112basic_stringIcSt11char_traitsIcESaIcEEEPNS_6StatusEb
00000000000f09d0 w _ZN7rocksdb2DB8MultiGetERKNS_11ReadOptionsEmPPNS_18ColumnFamilyHandleEPKNS_5SliceEPNS_13PinnableSliceEPNS_6StatusEb
00000000000f0d10 w _ZN7rocksdb2DB8MultiGetERKNS_11ReadOptionsEPNS_18ColumnFamilyHandleEmPKNS_5SliceEPNS_13PinnableSliceEPNSt7__cxx1112basic_stringIcSt11char_traitsIcESaIcEEEPNS_6StatusEb
00000000000f1120 w _ZN7rocksdb2DB8MultiGetERKNS_11ReadOptionsEPNS_18ColumnFamilyHandleEmPKNS_5SliceEPNS_13PinnableSliceEPNS_6StatusEb
00000000000f1470 w _ZN7rocksdb2DB7AddFileEPNS_18ColumnFamilyHandleERKSt6vectorINS_19ExternalSstFileInfoESaIS4_EEbb
00000000000f15e0 w _ZN7rocksdb2DB7AddFileERKSt6vectorINS_19ExternalSstFileInfoESaIS2_EEbb
00000000000f1760 w _ZNSt8_Rb_treeISt4pairIimES1_St9_IdentityIS1_ESt4lessIS1_ESaIS1_EE17_M_emplace_uniqueIJRiRmEEES0_ISt17_Rb_tree_iteratorIS1_EbEDpOT_
00000000000f18b0 w _ZNSt6vectorIN7rocksdb10autovectorIPNS0_11VersionEditELm8EEESaIS4_EED1Ev
00000000000f1990 w _ZN7rocksdb10autovectorINS0_IPNS_11VersionEditELm8EEELm8EE5clearEv
00000000000f1a90 w _ZNSt6vectorIN7rocksdb19SuperVersionContext22WriteStallNotificationESaIS2_EED2Ev
00000000000f1b50 w _ZN7rocksdb19SuperVersionContextC2Eb
00000000000f1d40 w _ZNSt6vectorIN7rocksdb16IngestedFileInfoESaIS1_EED1Ev
00000000000f1fa0 w _ZN7rocksdb10autovectorINS_16IngestedFileInfoELm8EE5clearEv
00000000000f23f0 w _ZNSt8_Rb_treeISt4pairIimES1_St9_IdentityIS1_ESt4lessIS1_ESaIS1_EE8_M_eraseEPSt13_Rb_tree_nodeIS1_E
00000000000f2440 w _ZN7rocksdb11VersionEditD2Ev
00000000000f2670 w _ZN7rocksdb21ImportColumnFamilyJobD2Ev
00000000000f2e70 w _ZN7rocksdb27ExternalSstFileIngestionJobC2EPNS_10VersionSetEPNS_16ColumnFamilyDataERKNS_18ImmutableDBOptionsERKNS_10EnvOptionsEPNS_12SnapshotListERKNS_25IngestExternalFileOptionsEPNS_11DirectoriesEPNS_11EventLoggerERKSt10shared_ptrINS_8IOTracerEE
00000000000f3100 w _ZNSt6vectorIN7rocksdb27ExternalSstFileIngestionJobESaIS1_EED2Ev
00000000000f3aa0 w _ZNSt8_Rb_treeImSt4pairIKmN7rocksdb6DBImpl20RecoveredTransaction9BatchInfoEESt10_Select1stIS6_ESt4lessImESaIS6_EE8_M_eraseEPSt13_Rb_tree_nodeIS6_E
00000000000f3af0 w _ZNSt5dequeIPN7rocksdb12SuperVersionESaIS2_EE16_M_push_back_auxIJRKS2_EEEvDpOT_
00000000000f3cc0 w _ZN7rocksdb6DBImpl16GetMergeOperandsERKNS_11ReadOptionsEPNS_18ColumnFamilyHandleERKNS_5SliceEPNS_13PinnableSliceEPNS_23GetMergeOperandsOptionsEPi
00000000000f3d40 w _ZN7rocksdb6DBImpl15MultiCFSnapshotISt13unordered_mapIjNS0_24MultiGetColumnFamilyDataESt4hashIjESt8equal_toIjESaISt4pairIKjS3_EEEEEbRKNS_11ReadOptionsEPNS_12ReadCallbackERSt8functionIFPS3_RNT_8iteratorEEEPSK_Pm
00000000000f4100 w _ZN7rocksdb6DBImpl15MultiCFSnapshotINS_10autovectorINS0_24MultiGetColumnFamilyDataELm32EEEEEbRKNS_11ReadOptionsEPNS_12ReadCallbackERSt8functionIFPS3_RNT_8iteratorEEEPSC_Pm
00000000000f4590 w _ZNSt11_Deque_baseImSaImEED2Ev
00000000000f4600 w _ZNSt11_Deque_baseIN7rocksdb6DBImpl17LogFileNumberSizeESaIS2_EED2Ev
00000000000f4670 w _ZNSt11_Deque_baseIN7rocksdb6DBImpl15LogWriterNumberESaIS2_EED1Ev
00000000000f46e0 w _ZNSt8_Rb_treeImSt4pairIKmSt3mapINSt7__cxx1112basic_stringIcSt11char_traitsIcESaIcEEEmSt4lessIS8_ESaIS0_IKS8_mEEEESt10_Select1stISF_ES9_ImESaISF_EE8_M_eraseEPSt13_Rb_tree_nodeISF_E
00000000000f4740 w _ZNSt11_Deque_baseIPN7rocksdb16ColumnFamilyDataESaIS2_EED2Ev
00000000000f47b0 w _ZNSt11_Deque_baseIPN7rocksdb3log6WriterESaIS3_EED1Ev
00000000000f4820 w _ZNSt11_Deque_baseIPN7rocksdb12SuperVersionESaIS2_EED1Ev
00000000000f4890 w _ZNSt11_Deque_baseIPN7rocksdb6DBImpl21ManualCompactionStateESaIS3_EED1Ev
00000000000f4900 w _ZNSt8_Rb_treeINSt7__cxx1112basic_stringIcSt11char_traitsIcESaIcEEESt4pairIKS5_mESt10_Select1stIS8_ESt4lessIS5_ESaIS8_EE4findERS7_
00000000000f49e0 w _ZNSt5dequeIN7rocksdb6DBImpl15LogWriterNumberESaIS2_EE8_M_eraseESt15_Deque_iteratorIS2_RS2_PS2_E
00000000000f5110 w _ZNSt6vectorINSt7__cxx1112basic_stringIcSt11char_traitsIcESaIcEEESaIS5_EE17_M_default_appendEm
00000000000f5330 w _ZNSt6vectorIN7rocksdb10KeyContextESaIS1_EED1Ev
00000000000f5470 w _ZN7rocksdb10autovectorINS_10KeyContextELm32EE5clearEv
00000000000f5650 w _ZNSt6vectorIPN7rocksdb18ColumnFamilyHandleESaIS2_EE17_M_realloc_insertIJRKS2_EEEvN9__gnu_cxx17__normal_iteratorIPS2_S4_EEDpOT_
00000000000f5790 w _ZNSt8_Rb_treeINSt7__cxx1112basic_stringIcSt11char_traitsIcESaIcEEESt4pairIKS5_St10shared_ptrIN7rocksdb11FSDirectoryEEESt10_Select1stISC_ESt4lessIS5_ESaISC_EE8_M_eraseEPSt13_Rb_tree_nodeISC_E
00000000000f5830 w _ZNSt8_Rb_treeIPN7rocksdb12FileMetaDataES2_St9_IdentityIS2_ESt4lessIS2_ESaIS2_EE8_M_eraseEPSt13_Rb_tree_nodeIS2_E
00000000000f5880 w _ZNSt8_Rb_treeINSt7__cxx1112basic_stringIcSt11char_traitsIcESaIcEEESt4pairIKS5_St6vectorIS5_SaIS5_EEESt10_Select1stISB_ESt4lessIS5_ESaISB_EE8_M_eraseEPSt13_Rb_tree_nodeISB_E
00000000000f5930 w _ZNSt8_Rb_treeINSt7__cxx1112basic_stringIcSt11char_traitsIcESaIcEEES5_St9_IdentityIS5_ESt4lessIS5_ESaIS5_EE8_M_eraseEPSt13_Rb_tree_nodeIS5_E
00000000000f5990 w _ZNSt8_Rb_treeINSt7__cxx1112basic_stringIcSt11char_traitsIcESaIcEEES5_St9_IdentityIS5_ESt4lessIS5_ESaIS5_EE16_M_insert_uniqueIRKS5_EESt4pairISt17_Rb_tree_iteratorIS5_EbEOT_
00000000000f5b50 w _ZNSt8_Rb_treeImSt4pairIKmNSt7__cxx1112basic_stringIcSt11char_traitsIcESaIcEEEESt10_Select1stIS8_ESt4lessImESaIS8_EE8_M_eraseEPSt13_Rb_tree_nodeIS8_E
00000000000f5bb0 w _ZNSt8_Rb_treeImSt4pairIKmNSt7__cxx1112basic_stringIcSt11char_traitsIcESaIcEEEESt10_Select1stIS8_ESt4lessImESaIS8_EE16_M_insert_uniqueIS8_EES0_ISt17_Rb_tree_iteratorIS8_EbEOT_
00000000000f5d40 w _ZNKSt10_HashtableINSt7__cxx1112basic_stringIcSt11char_traitsIcESaIcEEESt4pairIKS5_S5_ESaIS8_ENSt8__detail10_Select1stESt8equal_toIS5_ESt4hashIS5_ENSA_18_Mod_range_hashingENSA_20_Default_ranged_hashENSA_20_Prime_rehash_policyENSA_17_Hashtable_traitsILb1ELb0ELb1EEEE4findERS7_
00000000000f5e20 w _ZNSt6vectorIPN7rocksdb16ColumnFamilyDataESaIS2_EE17_M_realloc_insertIJRKS2_EEEvN9__gnu_cxx17__normal_iteratorIPS2_S4_EEDpOT_
00000000000f5f60 w _ZNSt8_Rb_treeINSt7__cxx1112basic_stringIcSt11char_traitsIcESaIcEEESt4pairIKS5_mESt10_Select1stIS8_ESt4lessIS5_ESaIS8_EE24_M_get_insert_unique_posERS7_
00000000000f6060 w _ZNSt6vectorIPN7rocksdb16ColumnFamilyDataESaIS2_EE17_M_realloc_insertIJRS2_EEEvN9__gnu_cxx17__normal_iteratorIPS2_S4_EEDpOT_
00000000000f61a0 w _ZNSt6vectorIPKN7rocksdb16MutableCFOptionsESaIS3_EE17_M_realloc_insertIJS3_EEEvN9__gnu_cxx17__normal_iteratorIPS3_S5_EEDpOT_
00000000000f62e0 w _ZNSt6vectorIPN7rocksdb11VersionEditESaIS2_EE17_M_realloc_insertIJRS2_EEEvN9__gnu_cxx17__normal_iteratorIPS2_S4_EEDpOT_
00000000000f6420 w _ZN7rocksdb10autovectorIPNS_11VersionEditELm8EE6assignERKS3_
00000000000f65c0 w _ZN7rocksdb10autovectorIPNS_11VersionEditELm8EEC1ERKS3_
00000000000f6620 w _ZNSt8_Rb_treeINSt7__cxx1112basic_stringIcSt11char_traitsIcESaIcEEESt4pairIKS5_mESt10_Select1stIS8_ESt4lessIS5_ESaIS8_EE29_M_get_insert_hint_unique_posESt23_Rb_tree_const_iteratorIS8_ERS7_
00000000000f6770 w _ZNSt3mapINSt7__cxx1112basic_stringIcSt11char_traitsIcESaIcEEEmSt4lessIS5_ESaISt4pairIKS5_mEEEixERS9_
00000000000f6930 w _ZNSt8_Rb_treeINSt7__cxx1112basic_stringIcSt11char_traitsIcESaIcEEESt4pairIKS5_mESt10_Select1stIS8_ESt4lessIS5_ESaIS8_EE4swapERSE_
00000000000f6a30 w _ZNSt8_Rb_treeINSt7__cxx1112basic_stringIcSt11char_traitsIcESaIcEEESt4pairIKS5_mESt10_Select1stIS8_ESt4lessIS5_ESaIS8_EE7_M_copyINSE_20_Reuse_or_alloc_nodeEEEPSt13_Rb_tree_nodeIS8_EPKSI_PSt18_Rb_tree_node_baseRT_
00000000000f6e00 w _ZNSt8_Rb_treeINSt7__cxx1112basic_stringIcSt11char_traitsIcESaIcEEESt4pairIKS5_mESt10_Select1stIS8_ESt4lessIS5_ESaIS8_EEaSERKSE_
00000000000f6f40 w _ZNSt6vectorIPN7rocksdb3log6WriterESaIS3_EE17_M_realloc_insertIJRKS3_EEEvN9__gnu_cxx17__normal_iteratorIPS3_S5_EEDpOT_
00000000000f7080 w _ZNSt6vectorIPN7rocksdb10KeyContextESaIS2_EE17_M_default_appendEm
00000000000f7200 w _ZNSt6vectorIN7rocksdb10KeyContextESaIS1_EE17_M_realloc_insertIJRPNS0_18ColumnFamilyHandleERKNS0_5SliceEPNS0_13PinnableSliceEPNSt7__cxx1112basic_stringIcSt11char_traitsIcESaIcEEEPNS0_6StatusEEEEvN9__gnu_cxx17__normal_iteratorIPS1_S3_EEDpOT_
00000000000f7740 w _ZNSt6vectorIN7rocksdb10KeyContextESaIS1_EE12emplace_backIJRPNS0_18ColumnFamilyHandleERKNS0_5SliceEPNS0_13PinnableSliceEPNSt7__cxx1112basic_stringIcSt11char_traitsIcESaIcEEEPNS0_6StatusEEEEvDpOT_
00000000000f7820 w _ZNSt6vectorIN7rocksdb6DBImpl24MultiGetColumnFamilyDataESaIS2_EE17_M_realloc_insertIJRPNS0_18ColumnFamilyHandleERmmDnEEEvN9__gnu_cxx17__normal_iteratorIPS2_S4_EEDpOT_
00000000000f79e0 w _ZNSt6vectorIN7rocksdb6DBImpl24MultiGetColumnFamilyDataESaIS2_EE12emplace_backIJRPNS0_18ColumnFamilyHandleERmmDnEEEvDpOT_
00000000000f7a60 w _ZNSt6vectorIN7rocksdb19ColumnFamilyOptionsESaIS1_EE17_M_realloc_insertIJS1_EEEvN9__gnu_cxx17__normal_iteratorIPS1_S3_EEDpOT_
00000000000f83a0 w _ZNSt13_Bvector_baseISaIbEE13_M_deallocateEv
00000000000f8400 w _ZNSt6vectorIPKN7rocksdb16MutableCFOptionsESaIS3_EE17_M_realloc_insertIJRKS3_EEEvN9__gnu_cxx17__normal_iteratorIPS3_S5_EEDpOT_
00000000000f8540 w _ZNSt6vectorIPN7rocksdb11VersionEditESaIS2_EE17_M_realloc_insertIJRKS2_EEEvN9__gnu_cxx17__normal_iteratorIPS2_S4_EEDpOT_
00000000000f8680 w _ZNSt6vectorIPN7rocksdb12SuperVersionESaIS2_EE17_M_realloc_insertIJS2_EEEvN9__gnu_cxx17__normal_iteratorIPS2_S4_EEDpOT_
00000000000f87c0 w _ZNSt8_Rb_treeINSt7__cxx1112basic_stringIcSt11char_traitsIcESaIcEEESt4pairIKS5_S5_ESt10_Select1stIS8_ESt4lessIS5_ESaIS8_EE7_M_copyINSE_20_Reuse_or_alloc_nodeEEEPSt13_Rb_tree_nodeIS8_EPKSI_PSt18_Rb_tree_node_baseRT_
00000000000f8cb0 w _ZNSt8_Rb_treeINSt7__cxx1112basic_stringIcSt11char_traitsIcESaIcEEESt4pairIKS5_S5_ESt10_Select1stIS8_ESt4lessIS5_ESaIS8_EEaSERKSE_
00000000000f8df0 w _ZNSt8_Rb_treeINSt7__cxx1112basic_stringIcSt11char_traitsIcESaIcEEESt4pairIKS5_S5_ESt10_Select1stIS8_ESt4lessIS5_ESaIS8_EE7_M_copyINSE_11_Alloc_nodeEEEPSt13_Rb_tree_nodeIS8_EPKSI_PSt18_Rb_tree_node_baseRT_
00000000000f9020 w _ZNSt8_Rb_treeINSt7__cxx1112basic_stringIcSt11char_traitsIcESaIcEEESt4pairIKS5_mESt10_Select1stIS8_ESt4lessIS5_ESaIS8_EE7_M_copyINSE_11_Alloc_nodeEEEPSt13_Rb_tree_nodeIS8_EPKSI_PSt18_Rb_tree_node_baseRT_
00000000000f91e0 w _ZNSt8_Rb_treeImSt4pairIKmSt3mapINSt7__cxx1112basic_stringIcSt11char_traitsIcESaIcEEEmSt4lessIS8_ESaIS0_IKS8_mEEEESt10_Select1stISF_ES9_ImESaISF_EE24_M_get_insert_unique_posERS1_
00000000000f9270 w _ZNSt8_Rb_treeImSt4pairIKmSt3mapINSt7__cxx1112basic_stringIcSt11char_traitsIcESaIcEEEmSt4lessIS8_ESaIS0_IKS8_mEEEESt10_Select1stISF_ES9_ImESaISF_EE29_M_get_insert_hint_unique_posESt23_Rb_tree_const_iteratorISF_ERS1_
00000000000f9350 w _ZNSt6vectorIN7rocksdb20ColumnFamilyMetaDataESaIS1_EE17_M_realloc_insertIJEEEvN9__gnu_cxx17__normal_iteratorIPS1_S3_EEDpOT_
00000000000f9a90 w _ZNSt8_Rb_treeINSt7__cxx1112basic_stringIcSt11char_traitsIcESaIcEEESt4pairIKS5_St6vectorIS5_SaIS5_EEESt10_Select1stISB_ESt4lessIS5_ESaISB_EE24_M_get_insert_unique_posERS7_
00000000000f9b90 w _ZNSt8_Rb_treeINSt7__cxx1112basic_stringIcSt11char_traitsIcESaIcEEESt4pairIKS5_St6vectorIS5_SaIS5_EEESt10_Select1stISB_ESt4lessIS5_ESaISB_EE29_M_get_insert_hint_unique_posESt23_Rb_tree_const_iteratorISB_ERS7_
00000000000f9ce0 w _ZSt16__insertion_sortIN9__gnu_cxx17__normal_iteratorIPNSt7__cxx1112basic_stringIcSt11char_traitsIcESaIcEEESt6vectorIS7_SaIS7_EEEENS0_5__ops15_Iter_less_iterEEvT_SF_T0_
00000000000f9e50 w _ZN7rocksdb27ExternalSstFileIngestionJobD2Ev
00000000000fa540 w _ZNSt12_Destroy_auxILb0EE9__destroyIPN7rocksdb10autovectorIPNS2_11VersionEditELm8EEEEEvT_S8_
00000000000fa5d0 w _ZNSt6vectorIN7rocksdb19SuperVersionContext22WriteStallNotificationESaIS2_EE13_M_assign_auxIN9__gnu_cxx17__normal_iteratorIPKS2_S4_EEEEvT_SB_St20forward_iterator_tag
00000000000fa980 w _ZN7rocksdb19SuperVersionContextC1EOS0_
00000000000fabc0 w _ZN7rocksdb16LiveFileMetaDataD1Ev
00000000000fac80 w _ZNSt10_HashtableIjSt4pairIKjN7rocksdb6DBImpl24MultiGetColumnFamilyDataEESaIS5_ENSt8__detail10_Select1stESt8equal_toIjESt4hashIjENS7_18_Mod_range_hashingENS7_20_Default_ranged_hashENS7_20_Prime_rehash_policyENS7_17_Hashtable_traitsILb0ELb0ELb1EEEE9_M_rehashEmRKm
00000000000fada0 w _ZNSt10_HashtableIjSt4pairIKjN7rocksdb6DBImpl24MultiGetColumnFamilyDataEESaIS5_ENSt8__detail10_Select1stESt8equal_toIjESt4hashIjENS7_18_Mod_range_hashingENS7_20_Default_ranged_hashENS7_20_Prime_rehash_policyENS7_17_Hashtable_traitsILb0ELb0ELb1EEEE21_M_insert_unique_nodeEmmPNS7_10_Hash_nodeIS5_Lb0EEE
00000000000faeb0 w _ZNSt10_HashtableIPN7rocksdb18ColumnFamilyHandleES2_SaIS2_ENSt8__detail9_IdentityESt8equal_toIS2_ESt4hashIS2_ENS4_18_Mod_range_hashingENS4_20_Default_ranged_hashENS4_20_Prime_rehash_policyENS4_17_Hashtable_traitsILb0ELb1ELb1EEEE9_M_rehashEmRKm
00000000000fafd0 w _ZNSt10_HashtableIPN7rocksdb18ColumnFamilyHandleES2_SaIS2_ENSt8__detail9_IdentityESt8equal_toIS2_ESt4hashIS2_ENS4_18_Mod_range_hashingENS4_20_Default_ranged_hashENS4_20_Prime_rehash_policyENS4_17_Hashtable_traitsILb0ELb1ELb1EEEE21_M_insert_unique_nodeEmmPNS4_10_Hash_nodeIS2_Lb0EEE
00000000000fb0e0 w _ZNSt20__uninitialized_copyILb0EE13__uninit_copyISt13move_iteratorIPN7rocksdb19SuperVersionContextEES5_EET0_T_S8_S7_
00000000000fb3a0 w _ZNSt6vectorIN7rocksdb19SuperVersionContextESaIS1_EE17_M_realloc_insertIJS1_EEEvN9__gnu_cxx17__normal_iteratorIPS1_S3_EEDpOT_
00000000000fb5a0 w _ZN7rocksdb10JobContextC1Eib
00000000000fb9d0 w _ZNSt6vectorIN7rocksdb19SuperVersionContextESaIS1_EE17_M_realloc_insertIJbEEEvN9__gnu_cxx17__normal_iteratorIPS1_S3_EEDpOT_
00000000000fbbd0 w _ZSt9iter_swapIN7rocksdb10autovectorIPNS0_10KeyContextELm32EE13iterator_implIS4_S3_EES6_EvT_T0_
00000000000fbc50 w _ZNSt20__uninitialized_copyILb0EE13__uninit_copyIPKN7rocksdb10autovectorIPNS2_11VersionEditELm8EEEPS6_EET0_T_SB_SA_
00000000000fbd20 w _ZNSt6vectorIN7rocksdb10autovectorIPNS0_11VersionEditELm8EEESaIS4_EE17_M_realloc_insertIJRS4_EEEvN9__gnu_cxx17__normal_iteratorIPS4_S6_EEDpOT_
00000000000fbfa0 w _ZN7rocksdb10VersionSet11LogAndApplyEPNS_16ColumnFamilyDataERKNS_16MutableCFOptionsEPNS_11VersionEditEPNS_17InstrumentedMutexEPNS_11FSDirectoryEbPKNS_19ColumnFamilyOptionsE
00000000000fc430 w _ZNSt6vectorIN7rocksdb10autovectorIPNS0_11VersionEditELm8EEESaIS4_EE17_M_realloc_insertIJRKS4_EEEvN9__gnu_cxx17__normal_iteratorIPS4_S6_EEDpOT_
00000000000fc6b0 w _ZSt13__adjust_heapIN9__gnu_cxx17__normal_iteratorIPNSt7__cxx1112basic_stringIcSt11char_traitsIcESaIcEEESt6vectorIS7_SaIS7_EEEElS7_NS0_5__ops15_Iter_less_iterEEvT_T0_SG_T1_T2_
00000000000fc900 w _ZSt11__make_heapIN9__gnu_cxx17__normal_iteratorIPNSt7__cxx1112basic_stringIcSt11char_traitsIcESaIcEEESt6vectorIS7_SaIS7_EEEENS0_5__ops15_Iter_less_iterEEvT_SF_RT0_
00000000000fca90 w _ZNSt8_Rb_treeISt4pairIimES1_St9_IdentityIS1_ESt4lessIS1_ESaIS1_EE7_M_copyINS7_11_Alloc_nodeEEEPSt13_Rb_tree_nodeIS1_EPKSB_PSt18_Rb_tree_node_baseRT_
00000000000fcbc0 w _ZNSt20__uninitialized_copyILb0EE13__uninit_copyIN9__gnu_cxx17__normal_iteratorIPKN7rocksdb16IngestedFileInfoESt6vectorIS5_SaIS5_EEEEPS5_EET0_T_SE_SD_
00000000000fd6d0 w _ZNSt20__uninitialized_copyILb0EE13__uninit_copyIPKN7rocksdb27ExternalSstFileIngestionJobEPS3_EET0_T_S8_S7_
00000000000ff230 w _ZNSt6vectorIN7rocksdb27ExternalSstFileIngestionJobESaIS1_EE17_M_realloc_insertIJPNS0_10VersionSetERPNS0_16ColumnFamilyDataERKNS0_18ImmutableDBOptionsERKNS0_11FileOptionsEPNS0_12SnapshotListERKNS0_25IngestExternalFileOptionsEPNS0_11DirectoriesEPNS0_11EventLoggerERSt10shared_ptrINS0_8IOTracerEEEEEvN9__gnu_cxx17__normal_iteratorIPS1_S3_EEDpOT_
00000000000ffb70 T _ZN7rocksdb6DBImpl23UnscheduleFlushCallbackEPv
00000000000ffb80 t __tcf_0
00000000000ffbc0 t __tcf_1
00000000000ffc00 t __tcf_2
00000000000ffc40 t __tcf_4
00000000000ffc80 t __tcf_3
00000000000ffcc0 t _ZNSt8__detail16_Hashtable_allocISaINS_10_Hash_nodeISt4pairIKNSt7__cxx1112basic_stringIcSt11char_traitsIcESaIcEEES8_ELb1EEEEE19_M_allocate_bucketsEm.isra.867
00000000000ffd10 t _ZNSt7__cxx1112basic_stringIcSt11char_traitsIcESaIcEE12_M_constructIPKcEEvT_S8_St20forward_iterator_tag.isra.622
00000000000ffde0 t _ZNSt7__cxx1112basic_stringIcSt11char_traitsIcESaIcEEC2EPKcRKS3_.isra.624
00000000000ffe30 T _ZN7rocksdb6DBImpl28UnscheduleCompactionCallbackEPv
00000000000ffec0 T _ZN7rocksdb6DBImpl23EnoughRoomForCompactionEPNS_16ColumnFamilyDataERKSt6vectorINS_20CompactionInputFilesESaIS4_EEPbPNS_9LogBufferE
0000000000100000 T _ZN7rocksdb6DBImpl22RequestCompactionTokenEPNS_16ColumnFamilyDataEbPSt10unique_ptrINS_16TaskLimiterTokenESt14default_deleteIS4_EEPNS_9LogBufferE
0000000000100130 T _ZN7rocksdb6DBImpl19PauseBackgroundWorkEv
00000000001001d0 T _ZN7rocksdb6DBImpl12NumberLevelsEPNS_18ColumnFamilyHandleE
00000000001001f0 T _ZN7rocksdb6DBImpl21MaxMemCompactionLevelEPNS_18ColumnFamilyHandleE
0000000000100200 T _ZN7rocksdb6DBImpl22Level0StopWriteTriggerEPNS_18ColumnFamilyHandleE
0000000000100260 T _ZN7rocksdb6DBImpl20GenerateFlushRequestERKNS_10autovectorIPNS_16ColumnFamilyDataELm8EEEPSt6vectorISt4pairIS3_mESaIS9_EE
0000000000100570 T _ZN7rocksdb6DBImpl33WaitUntilFlushWouldNotStallWritesEPNS_16ColumnFamilyDataEPb
0000000000100800 T _ZN7rocksdb6DBImpl21WaitForFlushMemTablesERKNS_10autovectorIPNS_16ColumnFamilyDataELm8EEERKNS1_IPKmLm8EEEb
0000000000100ce0 T _ZN7rocksdb6DBImpl23DisableManualCompactionEv
0000000000100d50 T _ZN7rocksdb6DBImpl22EnableManualCompactionEv
0000000000100d80 T _ZN7rocksdb6DBImpl14GetBGJobLimitsEiiib
0000000000100de0 T _ZNK7rocksdb6DBImpl14GetBGJobLimitsEv
0000000000100e50 T _ZN7rocksdb6DBImpl27PopFirstFromCompactionQueueEv
0000000000100ee0 T _ZN7rocksdb6DBImpl22PopFirstFromFlushQueueEv
0000000000101070 T _ZN7rocksdb6DBImpl11BGWorkPurgeEPv
0000000000101090 T _ZN7rocksdb6DBImpl26HasPendingManualCompactionEv
00000000001010b0 T _ZN7rocksdb6DBImpl27ShouldntRunManualCompactionEPNS0_21ManualCompactionStateE
0000000000101170 T _ZN7rocksdb6DBImpl20HaveManualCompactionEPNS_16ColumnFamilyDataE
00000000001011e0 T _ZN7rocksdb6DBImpl28HasExclusiveManualCompactionEv
0000000000101240 T _ZN7rocksdb6DBImpl30MaybeScheduleFlushOrCompactionEv
0000000000101520 T _ZN7rocksdb6DBImpl22ContinueBackgroundWorkEv
00000000001015d0 T _ZN7rocksdb6DBImpl9MCOverlapEPNS0_21ManualCompactionStateES2_
00000000001015e0 T _ZNK7rocksdb6DBImpl11ShouldPurgeEm
00000000001016b0 T _ZN7rocksdb6DBImpl18SetSnapshotCheckerEPNS_15SnapshotCheckerE
0000000000101700 T _ZN7rocksdb6DBImpl18GetSnapshotContextEPNS_10JobContextEPSt6vectorImSaImEEPmPPNS_15SnapshotCheckerE
00000000001019d0 T _ZN7rocksdb6DBImpl20EnableAutoCompactionERKSt6vectorIPNS_18ColumnFamilyHandleESaIS3_EE
00000000001020b0 T _ZN7rocksdb6DBImpl18NotifyOnFlushBeginEPNS_16ColumnFamilyDataEPNS_12FileMetaDataERKNS_16MutableCFOptionsEi
00000000001025c0 T _ZN7rocksdb6DBImpl22NotifyOnFlushCompletedEPNS_16ColumnFamilyDataERKNS_16MutableCFOptionsEPNSt7__cxx114listISt10unique_ptrINS_12FlushJobInfoESt14default_deleteIS9_EESaISC_EEE
00000000001029c0 T _ZN7rocksdb6DBImpl20SchedulePendingFlushERKSt6vectorISt4pairIPNS_16ColumnFamilyDataEmESaIS5_EENS_11FlushReasonE
0000000000102ca0 T _ZN7rocksdb6DBImpl19AddManualCompactionEPNS0_21ManualCompactionStateE
0000000000102d00 T _ZN7rocksdb6DBImpl22RemoveManualCompactionEPNS0_21ManualCompactionStateE
0000000000102db0 T _ZN7rocksdb6DBImpl14SyncClosedLogsEPNS_10JobContextE
0000000000103410 T _ZN7rocksdb6DBImpl20AtomicFlushMemTablesERKNS_10autovectorIPNS_16ColumnFamilyDataELm8EEERKNS_12FlushOptionsENS_11FlushReasonEb
0000000000104110 T _ZN7rocksdb6DBImpl5FlushERKNS_12FlushOptionsERKSt6vectorIPNS_18ColumnFamilyHandleESaIS6_EE
0000000000104690 T _ZN7rocksdb6DBImpl13FlushMemTableEPNS_16ColumnFamilyDataERKNS_12FlushOptionsENS_11FlushReasonEb
0000000000105b30 T _ZN7rocksdb6DBImpl5FlushERKNS_12FlushOptionsEPNS_18ColumnFamilyHandleE
0000000000105de0 T _ZN7rocksdb6DBImpl20AddToCompactionQueueEPNS_16ColumnFamilyDataE
0000000000105ee0 T _ZN7rocksdb6DBImpl25SchedulePendingCompactionEPNS_16ColumnFamilyDataE
0000000000105f40 T _ZN7rocksdb6DBImpl34InstallSuperVersionAndScheduleWorkEPNS_16ColumnFamilyDataEPNS_19SuperVersionContextERKNS_16MutableCFOptionsE
0000000000106130 T _ZN7rocksdb6DBImpl25FlushMemTableToOutputFileEPNS_16ColumnFamilyDataERKNS_16MutableCFOptionsEPbPNS_10JobContextEPNS_19SuperVersionContextERSt6vectorImSaImEEmPNS_15SnapshotCheckerEPNS_9LogBufferENS_3Env8PriorityE
0000000000106be0 T _ZN7rocksdb6DBImpl33AtomicFlushMemTablesToOutputFilesERKNS_10autovectorINS0_10BGFlushArgELm8EEEPbPNS_10JobContextEPNS_9LogBufferENS_3Env8PriorityE
000000000010a300 T _ZN7rocksdb6DBImpl27FlushMemTablesToOutputFilesERKNS_10autovectorINS0_10BGFlushArgELm8EEEPbPNS_10JobContextEPNS_9LogBufferENS_3Env8PriorityE
000000000010a4c0 T _ZN7rocksdb6DBImpl23PickCompactionFromQueueEPSt10unique_ptrINS_16TaskLimiterTokenESt14default_deleteIS2_EEPNS_9LogBufferE
000000000010a8a0 T _ZN7rocksdb6DBImpl24IncreaseFullHistoryTsLowEPNS_16ColumnFamilyDataENSt7__cxx1112basic_stringIcSt11char_traitsIcESaIcEEE
000000000010adb0 T _ZN7rocksdb6DBImpl10ReFitLevelEPNS_16ColumnFamilyDataEii
000000000010bd50 t _ZNSt10_HashtableImmSaImENSt8__detail9_IdentityESt8equal_toImESt4hashImENS1_18_Mod_range_hashingENS1_20_Default_ranged_hashENS1_20_Prime_rehash_policyENS1_17_Hashtable_traitsILb0ELb1ELb1EEEE9_M_insertImNS1_10_AllocNodeISaINS1_10_Hash_nodeImLb0EEEEEEEESt4pairINS1_14_Node_iteratorImLb1ELb0EEEbEOT_RKT0_St17integral_constantIbLb1EE.isra.1003
000000000010be10 T _ZN7rocksdb6DBImpl21MarkAsGrabbedForPurgeEm
000000000010be30 T _ZN7rocksdb6DBImpl15BackgroundFlushEPbPNS_10JobContextEPNS_9LogBufferEPNS_11FlushReasonENS_3Env8PriorityE
000000000010c7f0 T _ZNK7rocksdb6DBImpl22BuildCompactionJobInfoEPKNS_16ColumnFamilyDataEPNS_10CompactionERKNS_6StatusERKNS_18CompactionJobStatsEiPKNS_7VersionEPNS_17CompactionJobInfoE
000000000010d160 T _ZN7rocksdb6DBImpl23NotifyOnCompactionBeginEPNS_16ColumnFamilyDataEPNS_10CompactionERKNS_6StatusERKNS_18CompactionJobStatsEi
000000000010d4a0 T _ZN7rocksdb6DBImpl27NotifyOnCompactionCompletedEPNS_16ColumnFamilyDataEPNS_10CompactionERKNS_6StatusERKNS_18CompactionJobStatsEi
000000000010d790 T _ZN7rocksdb6DBImpl20SchedulePendingPurgeENSt7__cxx1112basic_stringIcSt11char_traitsIcESaIcEEES6_NS_8FileTypeEmi
000000000010dc80 T _ZN7rocksdb6DBImpl19BackgroundCallFlushENS_3Env8PriorityE
000000000010e100 T _ZN7rocksdb6DBImpl11BGWorkFlushEPv
000000000010e130 T _ZN7rocksdb6DBImpl19RunManualCompactionEPNS_16ColumnFamilyDataEiiRKNS_19CompactRangeOptionsEPKNS_5SliceES8_bbm
000000000010e840 T _ZN7rocksdb6DBImpl20CompactRangeInternalERKNS_19CompactRangeOptionsEPNS_18ColumnFamilyHandleEPKNS_5SliceES8_
000000000010f5f0 T _ZN7rocksdb6DBImpl12CompactRangeERKNS_19CompactRangeOptionsEPNS_18ColumnFamilyHandleEPKNS_5SliceES8_
000000000010f8a0 T _ZN7rocksdb6DBImpl16CompactFilesImplERKNS_17CompactionOptionsEPNS_16ColumnFamilyDataEPNS_7VersionERKSt6vectorINSt7__cxx1112basic_stringIcSt11char_traitsIcESaIcEEESaISE_EEPSG_iiPNS_10JobContextEPNS_9LogBufferEPNS_17CompactionJobInfoE
00000000001109f0 T _ZN7rocksdb6DBImpl12CompactFilesERKNS_17CompactionOptionsEPNS_18ColumnFamilyHandleERKSt6vectorINSt7__cxx1112basic_stringIcSt11char_traitsIcESaIcEEESaISC_EEiiPSE_PNS_17CompactionJobInfoE
0000000000110e20 T _ZN7rocksdb6DBImpl20BackgroundCompactionEPbPNS_10JobContextEPNS_9LogBufferEPNS0_19PrepickedCompactionENS_3Env8PriorityE
00000000001134f0 T _ZN7rocksdb6DBImpl24BackgroundCallCompactionEPNS0_19PrepickedCompactionENS_3Env8PriorityE
0000000000113af0 T _ZN7rocksdb6DBImpl16BGWorkCompactionEPv
0000000000113b60 T _ZN7rocksdb6DBImpl22BGWorkBottomCompactionEPv
0000000000113bd0 t _ZNSt8__detail16_Hashtable_allocISaINS_10_Hash_nodeISt4pairIKNSt7__cxx1112basic_stringIcSt11char_traitsIcESaIcEEESt10shared_ptrIKN7rocksdb15TablePropertiesEEELb1EEEEE16_M_allocate_nodeIJRKSF_EEEPSG_DpOT_.isra.633
0000000000113c80 w _ZN7rocksdb18CompactionJobStatsC2Ev
0000000000113d20 w _ZN7rocksdb18CompactionJobStatsD1Ev
0000000000113d70 w _ZN7rocksdb8IOStatusC1ERKS0_
0000000000113df0 w _ZN7rocksdb8IOStatusaSERKS0_
0000000000113e50 w _ZN7rocksdb8IOStatusaSEOS0_
0000000000113ec0 w _ZN7rocksdb10JSONWriterlsEPKc
0000000000114090 w _ZN7rocksdb17EventLoggerStream10MakeStreamEv
00000000001141c0 w _ZN7rocksdb12FileMetaDataD2Ev
0000000000114240 w _ZNK7rocksdb10JobContext20HaveSomethingToCleanEv
0000000000114350 w _ZN7rocksdb6DBImpl13PurgeFileInfoD2Ev
0000000000114390 w _ZNSt6vectorImSaImEEC1ERKS1_
0000000000114440 w _ZNSt6vectorIN7rocksdb16MutableCFOptionsESaIS1_EED2Ev
0000000000114580 w _ZN7rocksdb12FlushJobInfoD2Ev
0000000000114700 w _ZNSt10_HashtableINSt7__cxx1112basic_stringIcSt11char_traitsIcESaIcEEESt4pairIKS5_St10shared_ptrIKN7rocksdb15TablePropertiesEEESaISD_ENSt8__detail10_Select1stESt8equal_toIS5_ESt4hashIS5_ENSF_18_Mod_range_hashingENSF_20_Default_ranged_hashENSF_20_Prime_rehash_policyENSF_17_Hashtable_traitsILb1ELb0ELb1EEEE5clearEv
00000000001147f0 w _ZNSt10_HashtableINSt7__cxx1112basic_stringIcSt11char_traitsIcESaIcEEESt4pairIKS5_St10shared_ptrIKN7rocksdb15TablePropertiesEEESaISD_ENSt8__detail10_Select1stESt8equal_toIS5_ESt4hashIS5_ENSF_18_Mod_range_hashingENSF_20_Default_ranged_hashENSF_20_Prime_rehash_policyENSF_17_Hashtable_traitsILb1ELb0ELb1EEEED2Ev
0000000000114830 w _ZN7rocksdb17CompactionJobInfoD2Ev
0000000000114970 w _ZN7rocksdb16MutableCFOptionsC2ERKS0_
0000000000114dd0 w _ZNSt6vectorISt4pairIiN7rocksdb12FileMetaDataEESaIS3_EE17_M_realloc_insertIJRiS2_EEEvN9__gnu_cxx17__normal_iteratorIPS3_S5_EEDpOT_
00000000001157b0 w _ZNSt6vectorIPN7rocksdb16ColumnFamilyDataESaIS2_EE12emplace_backIJRS2_EEEvDpOT_
0000000000115900 w _ZNSt10_HashtableINSt7__cxx1112basic_stringIcSt11char_traitsIcESaIcEEESt4pairIKS5_St10shared_ptrIKN7rocksdb15TablePropertiesEEESaISD_ENSt8__detail10_Select1stESt8equal_toIS5_ESt4hashIS5_ENSF_18_Mod_range_hashingENSF_20_Default_ranged_hashENSF_20_Prime_rehash_policyENSF_17_Hashtable_traitsILb1ELb0ELb1EEEE9_M_assignIZNSQ_C4ERKSQ_EUlPKNSF_10_Hash_nodeISD_Lb1EEEE_EEvST_RKT_
0000000000115a30 w _ZNSt6vectorIN7rocksdb16MutableCFOptionsESaIS1_EE17_M_realloc_insertIJRKS1_EEEvN9__gnu_cxx17__normal_iteratorIPS1_S3_EEDpOT_
00000000001163d0 w _ZNSt6vectorISt10unique_ptrIN7rocksdb8FlushJobESt14default_deleteIS2_EESaIS5_EE17_M_realloc_insertIJPS2_EEEvN9__gnu_cxx17__normal_iteratorIPS5_S7_EEDpOT_
00000000001165b0 w _ZNSt11_Deque_baseIbSaIbEED2Ev
0000000000116620 w _ZNSt6vectorIbSaIbEE13_M_insert_auxESt13_Bit_iteratorb
00000000001169b0 w _ZNSt5dequeISt6vectorISt4pairIPN7rocksdb16ColumnFamilyDataEmESaIS5_EESaIS7_EE16_M_push_back_auxIJRKS7_EEEvDpOT_
0000000000116c70 w _ZNSt5dequeIPN7rocksdb6DBImpl21ManualCompactionStateESaIS3_EE16_M_push_back_auxIJRKS3_EEEvDpOT_
0000000000116e40 w _ZNSt5dequeIPN7rocksdb6DBImpl21ManualCompactionStateESaIS3_EE8_M_eraseESt15_Deque_iteratorIS3_RS3_PS3_E
00000000001173f0 w _ZNSt6vectorIPN7rocksdb11FSDirectoryESaIS2_EE17_M_realloc_insertIJRS2_EEEvN9__gnu_cxx17__normal_iteratorIPS2_S4_EEDpOT_
0000000000117530 w _ZNSt11_Deque_baseIbSaIbEE17_M_initialize_mapEm
0000000000117690 w _ZNSt6vectorISt4pairIbN7rocksdb6StatusEESaIS3_EE17_M_realloc_insertIJbS2_EEEvN9__gnu_cxx17__normal_iteratorIPS3_S5_EEDpOT_
0000000000117960 w _ZNSt6vectorIN7rocksdb8IOStatusESaIS1_EE17_M_realloc_insertIJS1_EEEvN9__gnu_cxx17__normal_iteratorIPS1_S3_EEDpOT_
0000000000117cb0 w _ZNSt6vectorIPKN7rocksdb10autovectorIPNS0_8MemTableELm8EEESaIS6_EE17_M_realloc_insertIJS6_EEEvN9__gnu_cxx17__normal_iteratorIPS6_S8_EEDpOT_
0000000000117df0 w _ZNSt6vectorIPKN7rocksdb16MutableCFOptionsESaIS3_EE17_M_realloc_insertIJPS1_EEEvN9__gnu_cxx17__normal_iteratorIPS3_S5_EEDpOT_
0000000000117f30 w _ZNSt6vectorIPN7rocksdb12FileMetaDataESaIS2_EE17_M_realloc_insertIJS2_EEEvN9__gnu_cxx17__normal_iteratorIPS2_S4_EEDpOT_
0000000000118070 w _ZNSt6vectorIPNSt7__cxx114listISt10unique_ptrIN7rocksdb12FlushJobInfoESt14default_deleteIS4_EESaIS7_EEESaISA_EE17_M_realloc_insertIJSA_EEEvN9__gnu_cxx17__normal_iteratorIPSA_SC_EEDpOT_
00000000001181b0 w _ZNSt6vectorINSt7__cxx1112basic_stringIcSt11char_traitsIcESaIcEEESaIS5_EE17_M_realloc_insertIJS5_EEEvN9__gnu_cxx17__normal_iteratorIPS5_S7_EEDpOT_
0000000000118440 w _ZNSt6vectorINSt7__cxx1112basic_stringIcSt11char_traitsIcESaIcEEESaIS5_EE12emplace_backIJS5_EEEvDpOT_
00000000001184c0 w _ZNSt6vectorIS_ISt4pairIPN7rocksdb16ColumnFamilyDataEmESaIS4_EESaIS6_EE17_M_realloc_insertIJS6_EEEvN9__gnu_cxx17__normal_iteratorIPS6_S8_EEDpOT_
0000000000118750 w _ZNSt6vectorImSaImEE17_M_realloc_insertIJmEEEvN9__gnu_cxx17__normal_iteratorIPmS1_EEDpOT_
0000000000118890 w _ZNSt6vectorIPKmSaIS1_EE17_M_realloc_insertIJRKS1_EEEvN9__gnu_cxx17__normal_iteratorIPS1_S3_EEDpOT_
00000000001189d0 w _ZNSt6vectorIN7rocksdb6DBImpl10BGFlushArgESaIS2_EE17_M_realloc_insertIJRPNS0_16ColumnFamilyDataERKmPNS0_19SuperVersionContextEEEEvN9__gnu_cxx17__normal_iteratorIPS2_S4_EEDpOT_
0000000000118b90 w _ZN7rocksdb10JSONWriter8AddValueIiEEvRKT_
0000000000118c00 w _ZNSt6vectorIN7rocksdb18CompactionFileInfoESaIS1_EE17_M_realloc_insertIJS1_EEEvN9__gnu_cxx17__normal_iteratorIPS1_S3_EEDpOT_
0000000000118d60 w _ZNSt6vectorIN7rocksdb18CompactionFileInfoESaIS1_EE12emplace_backIJS1_EEEvDpOT_
0000000000118da0 w _ZNSt6vectorIN7rocksdb5RangeESaIS1_EE17_M_realloc_insertIJRKS1_EEEvN9__gnu_cxx17__normal_iteratorIPS1_S3_EEDpOT_
0000000000118f20 w _ZNSt5dequeIPN7rocksdb16ColumnFamilyDataESaIS2_EE17_M_reallocate_mapEmb
00000000001190b0 w _ZNSt10_HashtableINSt7__cxx1112basic_stringIcSt11char_traitsIcESaIcEEESt4pairIKS5_St10shared_ptrIKN7rocksdb15TablePropertiesEEESaISD_ENSt8__detail10_Select1stESt8equal_toIS5_ESt4hashIS5_ENSF_18_Mod_range_hashingENSF_20_Default_ranged_hashENSF_20_Prime_rehash_policyENSF_17_Hashtable_traitsILb1ELb0ELb1EEEE9_M_rehashEmRKm
00000000001191d0 w _ZNSt6vectorIN7rocksdb19SuperVersionContextESaIS1_EE12emplace_backIJS1_EEEvDpOT_
0000000000119220 w _ZNSt10_HashtableImmSaImENSt8__detail9_IdentityESt8equal_toImESt4hashImENS1_18_Mod_range_hashingENS1_20_Default_ranged_hashENS1_20_Prime_rehash_policyENS1_17_Hashtable_traitsILb0ELb1ELb1EEEE9_M_rehashEmRKm
0000000000119340 w _ZNSt10_HashtableImmSaImENSt8__detail9_IdentityESt8equal_toImESt4hashImENS1_18_Mod_range_hashingENS1_20_Default_ranged_hashENS1_20_Prime_rehash_policyENS1_17_Hashtable_traitsILb0ELb1ELb1EEEE21_M_insert_unique_nodeEmmPNS1_10_Hash_nodeImLb0EEE
0000000000119450 w _ZNSt10_HashtableImSt4pairIKmN7rocksdb6DBImpl13PurgeFileInfoEESaIS5_ENSt8__detail10_Select1stESt8equal_toImESt4hashImENS7_18_Mod_range_hashingENS7_20_Default_ranged_hashENS7_20_Prime_rehash_policyENS7_17_Hashtable_traitsILb0ELb0ELb1EEEE9_M_rehashEmRS1_
0000000000119570 w _ZNSt6vectorIN7rocksdb19SuperVersionContextESaIS1_EE7reserveEm
00000000001196f0 w _ZNSt4pairIKNSt7__cxx1112basic_stringIcSt11char_traitsIcESaIcEEESt10shared_ptrIKN7rocksdb15TablePropertiesEEED1Ev
0000000000119790 w _ZNSt10_HashtableINSt7__cxx1112basic_stringIcSt11char_traitsIcESaIcEEESt4pairIKS5_St10shared_ptrIKN7rocksdb15TablePropertiesEEESaISD_ENSt8__detail10_Select1stESt8equal_toIS5_ESt4hashIS5_ENSF_18_Mod_range_hashingENSF_20_Default_ranged_hashENSF_20_Prime_rehash_policyENSF_17_Hashtable_traitsILb1ELb0ELb1EEEE21_M_insert_unique_nodeEmmPNSF_10_Hash_nodeISD_Lb1EEE
00000000001198c0 w _ZNSt8__detail9_Map_baseINSt7__cxx1112basic_stringIcSt11char_traitsIcESaIcEEESt4pairIKS6_St10shared_ptrIKN7rocksdb15TablePropertiesEEESaISE_ENS_10_Select1stESt8equal_toIS6_ESt4hashIS6_ENS_18_Mod_range_hashingENS_20_Default_ranged_hashENS_20_Prime_rehash_policyENS_17_Hashtable_traitsILb1ELb0ELb1EEELb1EEixERS8_
0000000000119a10 w _ZNSt10_HashtableImSt4pairIKmN7rocksdb6DBImpl13PurgeFileInfoEESaIS5_ENSt8__detail10_Select1stESt8equal_toImESt4hashImENS7_18_Mod_range_hashingENS7_20_Default_ranged_hashENS7_20_Prime_rehash_policyENS7_17_Hashtable_traitsILb0ELb0ELb1EEEE21_M_insert_unique_nodeEmmPNS7_10_Hash_nodeIS5_Lb0EEE
0000000000119b30 w _ZN7rocksdb9LogBufferD1Ev
0000000000119b80 t _ZSt25__unguarded_linear_insertIN9__gnu_cxx17__normal_iteratorIPPN7rocksdb12FileMetaDataESt6vectorIS4_SaIS4_EEEENS0_5__ops14_Val_comp_iterIZNS2_6DBImpl9PromoteL0EPNS2_18ColumnFamilyHandleEiEUlS4_S4_E_EEEvT_T0_
0000000000119c80 t _ZSt13__adjust_heapIN9__gnu_cxx17__normal_iteratorIPPN7rocksdb12FileMetaDataESt6vectorIS4_SaIS4_EEEElS4_NS0_5__ops15_Iter_comp_iterIZNS2_6DBImpl9PromoteL0EPNS2_18ColumnFamilyHandleEiEUlS4_S4_E_EEEvT_T0_SI_T1_T2_
000000000011a080 t _ZSt16__insertion_sortIN9__gnu_cxx17__normal_iteratorIPPN7rocksdb12FileMetaDataESt6vectorIS4_SaIS4_EEEENS0_5__ops15_Iter_comp_iterIZNS2_6DBImpl9PromoteL0EPNS2_18ColumnFamilyHandleEiEUlS4_S4_E_EEEvT_SH_T0_
000000000011a1e0 t _ZSt16__introsort_loopIN9__gnu_cxx17__normal_iteratorIPPN7rocksdb12FileMetaDataESt6vectorIS4_SaIS4_EEEElNS0_5__ops15_Iter_comp_iterIZNS2_6DBImpl9PromoteL0EPNS2_18ColumnFamilyHandleEiEUlS4_S4_E_EEEvT_SH_T0_T1_
000000000011a840 T _ZN7rocksdb6DBImpl19SuggestCompactRangeEPNS_18ColumnFamilyHandleEPKNS_5SliceES5_
000000000011ab70 T _ZN7rocksdb6DBImpl9PromoteL0EPNS_18ColumnFamilyHandleEi
000000000011dfb0 t _ZN7rocksdb12_GLOBAL__N_120CompareCandidateFileERKNS_10JobContext17CandidateFileInfoES4_
000000000011e000 t _ZSt25__unguarded_linear_insertIN9__gnu_cxx17__normal_iteratorIPNSt7__cxx1112basic_stringIcSt11char_traitsIcESaIcEEESt6vectorIS7_SaIS7_EEEENS0_5__ops14_Val_less_iterEEvT_T0_.isra.456
000000000011e0e0 t _ZNKSt10_HashtableImmSaImENSt8__detail9_IdentityESt8equal_toImESt4hashImENS1_18_Mod_range_hashingENS1_20_Default_ranged_hashENS1_20_Prime_rehash_policyENS1_17_Hashtable_traitsILb0ELb1ELb1EEEE12_M_find_nodeEmRKmm.isra.488
000000000011e140 t _ZNSt8__detail16_Hashtable_allocISaINS_10_Hash_nodeImLb0EEEEE19_M_allocate_bucketsEm.isra.522
000000000011e190 T _ZN7rocksdb6DBImpl18MinLogNumberToKeepEv
000000000011e210 T _ZN7rocksdb6DBImpl26MinObsoleteSstNumberToKeepEv
000000000011e250 T _ZN7rocksdb6DBImpl20DisableFileDeletionsEv
000000000011e380 T _ZN7rocksdb6DBImpl28DisableFileDeletionsWithLockEv
000000000011e3c0 T _ZNK7rocksdb6DBImpl22IsFileDeletionsEnabledEv
000000000011e3d0 T _ZN7rocksdb6DBImpl22DeleteObsoleteFileImplEiRKNSt7__cxx1112basic_stringIcSt11char_traitsIcESaIcEEES8_NS_8FileTypeEm
000000000011e710 T _ZN7rocksdb34PrecomputeMinLogNumberToKeepNon2PCEPNS_10VersionSetERKNS_16ColumnFamilyDataERKNS_10autovectorIPNS_11VersionEditELm8EEE
000000000011e810 T _ZN7rocksdb6DBImpl17FindObsoleteFilesEPNS_10JobContextEbb
000000000011f650 t _ZNSt10_HashtableImmSaImENSt8__detail9_IdentityESt8equal_toImESt4hashImENS1_18_Mod_range_hashingENS1_20_Default_ranged_hashENS1_20_Prime_rehash_policyENS1_17_Hashtable_traitsILb0ELb1ELb1EEEE9_M_insertIRKmNS1_10_AllocNodeISaINS1_10_Hash_nodeImLb0EEEEEEEESt4pairINS1_14_Node_iteratorImLb1ELb0EEEbEOT_RKT0_St17integral_constantIbLb1EE.isra.597
000000000011f710 t _ZNSt10_HashtableIPN7rocksdb8MemTableES2_SaIS2_ENSt8__detail9_IdentityESt8equal_toIS2_ESt4hashIS2_ENS4_18_Mod_range_hashingENS4_20_Default_ranged_hashENS4_20_Prime_rehash_policyENS4_17_Hashtable_traitsILb0ELb1ELb1EEEE9_M_insertIRKS2_NS4_10_AllocNodeISaINS4_10_Hash_nodeIS2_Lb0EEEEEEEESt4pairINS4_14_Node_iteratorIS2_Lb1ELb0EEEbEOT_RKT0_St17integral_constantIbLb1EE.isra.675
000000000011f7d0 T _ZN7rocksdb34FindMinPrepLogReferencedByMemTableEPNS_10VersionSetEPKNS_16ColumnFamilyDataERKNS_10autovectorIPNS_8MemTableELm8EEE
000000000011f9f0 T _ZN7rocksdb31PrecomputeMinLogNumberToKeep2PCEPNS_10VersionSetERKNS_16ColumnFamilyDataERKNS_10autovectorIPNS_11VersionEditELm8EEERKNS5_IPNS_8MemTableELm8EEEPNS_19LogsWithPrepTrackerE
000000000011fa80 T _ZN7rocksdb6DBImpl7SetDBIdEb
00000000001201e0 t _ZSt16__introsort_loopIN9__gnu_cxx17__normal_iteratorIPNSt7__cxx1112basic_stringIcSt11char_traitsIcESaIcEEESt6vectorIS7_SaIS7_EEEElNS0_5__ops15_Iter_less_iterEEvT_SF_T0_T1_.isra.643
00000000001205b0 T _ZN7rocksdb6DBImpl18PurgeObsoleteFilesERNS_10JobContextEb
00000000001223d0 T _ZN7rocksdb6DBImpl26DeleteUnreferencedSstFilesEv
0000000000123290 T _ZN7rocksdb34FindMinPrepLogReferencedByMemTableEPNS_10VersionSetERKNS_10autovectorIPNS_16ColumnFamilyDataELm8EEERKNS2_IPKNS2_IPNS_8MemTableELm8EEELm8EEE
00000000001237f0 T _ZN7rocksdb34PrecomputeMinLogNumberToKeepNon2PCEPNS_10VersionSetERKNS_10autovectorIPNS_16ColumnFamilyDataELm8EEERKNS2_INS2_IPNS_11VersionEditELm8EEELm8EEE
0000000000123c70 T _ZN7rocksdb31PrecomputeMinLogNumberToKeep2PCEPNS_10VersionSetERKNS_10autovectorIPNS_16ColumnFamilyDataELm8EEERKNS2_INS2_IPNS_11VersionEditELm8EEELm8EEERKNS2_IPKNS2_IPNS_8MemTableELm8EEELm8EEEPNS_19LogsWithPrepTrackerE
0000000000123d00 T _ZN7rocksdb6DBImpl19EnableFileDeletionsEb
0000000000123f00 T _ZN7rocksdb6DBImpl19DeleteObsoleteFilesEv
0000000000124030 w _ZNSt6vectorIN7rocksdb10JobContext17CandidateFileInfoESaIS2_EED2Ev
00000000001240b0 w _ZNSt10_HashtableIPN7rocksdb8MemTableES2_SaIS2_ENSt8__detail9_IdentityESt8equal_toIS2_ESt4hashIS2_ENS4_18_Mod_range_hashingENS4_20_Default_ranged_hashENS4_20_Prime_rehash_policyENS4_17_Hashtable_traitsILb0ELb1ELb1EEEED1Ev
0000000000124130 w _ZNSt10_HashtableIPN7rocksdb16ColumnFamilyDataES2_SaIS2_ENSt8__detail9_IdentityESt8equal_toIS2_ESt4hashIS2_ENS4_18_Mod_range_hashingENS4_20_Default_ranged_hashENS4_20_Prime_rehash_policyENS4_17_Hashtable_traitsILb0ELb1ELb1EEEED2Ev
00000000001241b0 w _ZNSt10_HashtableIPKN7rocksdb16ColumnFamilyDataES3_SaIS3_ENSt8__detail9_IdentityESt8equal_toIS3_ESt4hashIS3_ENS5_18_Mod_range_hashingENS5_20_Default_ranged_hashENS5_20_Prime_rehash_policyENS5_17_Hashtable_traitsILb0ELb1ELb1EEEED1Ev
0000000000124230 w _ZNSt8_Rb_treeINSt7__cxx1112basic_stringIcSt11char_traitsIcESaIcEEES5_St9_IdentityIS5_ESt4lessIS5_ESaIS5_EE4findERKS5_
00000000001242b0 w _ZNSt5dequeImSaImEE16_M_push_back_auxIJRKmEEEvDpOT_
0000000000124480 w _ZN7rocksdb10autovectorIPNS_3log6WriterELm8EE6assignERKS4_
0000000000124620 w _ZSt8__uniqueIN9__gnu_cxx17__normal_iteratorIPN7rocksdb10JobContext17CandidateFileInfoESt6vectorIS4_SaIS4_EEEENS0_5__ops19_Iter_equal_to_iterEET_SC_SC_T0_
0000000000124740 w _ZN9__gnu_cxx13new_allocatorIN7rocksdb10JobContext17CandidateFileInfoEE9constructIS3_JNSt7__cxx1112basic_stringIcSt11char_traitsIcESaIcEEERKSB_EEEvPT_DpOT0_
00000000001248e0 w _ZN9__gnu_cxx13new_allocatorIN7rocksdb10JobContext17CandidateFileInfoEE9constructIS3_JRKNSt7__cxx1112basic_stringIcSt11char_traitsIcESaIcEEESD_EEEvPT_DpOT0_
0000000000124a40 w _ZN9__gnu_cxx13new_allocatorIN7rocksdb10JobContext17CandidateFileInfoEE9constructIS3_JRNSt7__cxx1112basic_stringIcSt11char_traitsIcESaIcEEERKSB_EEEvPT_DpOT0_
0000000000124ba0 w _ZN9__gnu_cxx13new_allocatorIN7rocksdb10JobContext17CandidateFileInfoEE9constructIS3_JNSt7__cxx1112basic_stringIcSt11char_traitsIcESaIcEEERSB_EEEvPT_DpOT0_
0000000000124d40 w _ZNSt6vectorImSaImEE17_M_realloc_insertIJRmEEEvN9__gnu_cxx17__normal_iteratorIPmS1_EEDpOT_
0000000000124e80 w _ZN7rocksdb10JobContext17CandidateFileInfoD2Ev
0000000000124ec0 w _ZNSt6vectorIN7rocksdb10JobContext17CandidateFileInfoESaIS2_EE17_M_realloc_insertIJNSt7__cxx1112basic_stringIcSt11char_traitsIcESaIcEEERKSB_EEEvN9__gnu_cxx17__normal_iteratorIPS2_S4_EEDpOT_
0000000000125210 w _ZNSt6vectorIN7rocksdb10JobContext17CandidateFileInfoESaIS2_EE12emplace_backIJNSt7__cxx1112basic_stringIcSt11char_traitsIcESaIcEEERKSB_EEEvDpOT_
0000000000125250 w _ZNSt6vectorIN7rocksdb10JobContext17CandidateFileInfoESaIS2_EE17_M_realloc_insertIJRKNSt7__cxx1112basic_stringIcSt11char_traitsIcESaIcEEESD_EEEvN9__gnu_cxx17__normal_iteratorIPS2_S4_EEDpOT_
00000000001255a0 w _ZNSt6vectorIN7rocksdb10JobContext17CandidateFileInfoESaIS2_EE12emplace_backIJRKNSt7__cxx1112basic_stringIcSt11char_traitsIcESaIcEEESD_EEEvDpOT_
00000000001255e0 w _ZNSt6vectorIN7rocksdb10JobContext17CandidateFileInfoESaIS2_EE17_M_realloc_insertIJRNSt7__cxx1112basic_stringIcSt11char_traitsIcESaIcEEERKSB_EEEvN9__gnu_cxx17__normal_iteratorIPS2_S4_EEDpOT_
0000000000125930 w _ZNSt6vectorIN7rocksdb10JobContext17CandidateFileInfoESaIS2_EE17_M_realloc_insertIJNSt7__cxx1112basic_stringIcSt11char_traitsIcESaIcEEERSB_EEEvN9__gnu_cxx17__normal_iteratorIPS2_S4_EEDpOT_
0000000000125c80 w _ZNSt6vectorIN7rocksdb10JobContext17CandidateFileInfoESaIS2_EE12emplace_backIJNSt7__cxx1112basic_stringIcSt11char_traitsIcESaIcEEERSB_EEEvDpOT_
0000000000125cc0 w _ZSt4copyISt15_Deque_iteratorImRmPmES2_ET0_T_S5_S4_
0000000000125d60 w _ZNSt6vectorImSaImEE13_M_assign_auxISt15_Deque_iteratorImRmPmEEEvT_S7_St20forward_iterator_tag
0000000000126070 w _ZNSt10_HashtableIPN7rocksdb8MemTableES2_SaIS2_ENSt8__detail9_IdentityESt8equal_toIS2_ESt4hashIS2_ENS4_18_Mod_range_hashingENS4_20_Default_ranged_hashENS4_20_Prime_rehash_policyENS4_17_Hashtable_traitsILb0ELb1ELb1EEEE9_M_rehashEmRKm
0000000000126190 w _ZSt25__unguarded_linear_insertIN9__gnu_cxx17__normal_iteratorIPN7rocksdb10JobContext17CandidateFileInfoESt6vectorIS4_SaIS4_EEEENS0_5__ops14_Val_comp_iterIPFbRKS4_SD_EEEEvT_T0_
00000000001262f0 w _ZSt16__insertion_sortIN9__gnu_cxx17__normal_iteratorIPN7rocksdb10JobContext17CandidateFileInfoESt6vectorIS4_SaIS4_EEEENS0_5__ops15_Iter_comp_iterIPFbRKS4_SD_EEEEvT_SH_T0_
00000000001264f0 w _ZNSt10_HashtableImmSaImENSt8__detail9_IdentityESt8equal_toImESt4hashImENS1_18_Mod_range_hashingENS1_20_Default_ranged_hashENS1_20_Prime_rehash_policyENS1_17_Hashtable_traitsILb0ELb1ELb1EEEEC1IN9__gnu_cxx17__normal_iteratorIPmSt6vectorImS0_EEEEET_SK_mRKS6_RKS7_RKS8_RKS4_RKS2_RKS0_
0000000000126620 w _ZNSt10_HashtableIPN7rocksdb8MemTableES2_SaIS2_ENSt8__detail9_IdentityESt8equal_toIS2_ESt4hashIS2_ENS4_18_Mod_range_hashingENS4_20_Default_ranged_hashENS4_20_Prime_rehash_policyENS4_17_Hashtable_traitsILb0ELb1ELb1EEEE21_M_insert_unique_nodeEmmPNS4_10_Hash_nodeIS2_Lb0EEE
0000000000126730 w _ZSt13__adjust_heapIN9__gnu_cxx17__normal_iteratorIPN7rocksdb10JobContext17CandidateFileInfoESt6vectorIS4_SaIS4_EEEElS4_NS0_5__ops15_Iter_comp_iterIPFbRKS4_SD_EEEEvT_T0_SI_T1_T2_
0000000000126a80 w _ZSt11__make_heapIN9__gnu_cxx17__normal_iteratorIPN7rocksdb10JobContext17CandidateFileInfoESt6vectorIS4_SaIS4_EEEENS0_5__ops15_Iter_comp_iterIPFbRKS4_SD_EEEEvT_SH_RT0_
0000000000126d40 w _ZSt10__pop_heapIN9__gnu_cxx17__normal_iteratorIPN7rocksdb10JobContext17CandidateFileInfoESt6vectorIS4_SaIS4_EEEENS0_5__ops15_Iter_comp_iterIPFbRKS4_SD_EEEEvT_SH_SH_RT0_
0000000000126fa0 w _ZSt4swapIN7rocksdb10JobContext17CandidateFileInfoEENSt9enable_ifIXsrSt6__and_IJSt6__not_ISt15__is_tuple_likeIT_EESt21is_move_constructibleIS7_ESt18is_move_assignableIS7_EEE5valueEvE4typeERS7_SH_
00000000001270d0 w _ZSt16__introsort_loopIN9__gnu_cxx17__normal_iteratorIPN7rocksdb10JobContext17CandidateFileInfoESt6vectorIS4_SaIS4_EEEElNS0_5__ops15_Iter_comp_iterIPFbRKS4_SD_EEEEvT_SH_T0_T1_
00000000001275d0 w _ZNSt10_HashtableIPN7rocksdb16ColumnFamilyDataES2_SaIS2_ENSt8__detail9_IdentityESt8equal_toIS2_ESt4hashIS2_ENS4_18_Mod_range_hashingENS4_20_Default_ranged_hashENS4_20_Prime_rehash_policyENS4_17_Hashtable_traitsILb0ELb1ELb1EEEE9_M_rehashEmRKm
00000000001276f0 w _ZNSt10_HashtableIPN7rocksdb16ColumnFamilyDataES2_SaIS2_ENSt8__detail9_IdentityESt8equal_toIS2_ESt4hashIS2_ENS4_18_Mod_range_hashingENS4_20_Default_ranged_hashENS4_20_Prime_rehash_policyENS4_17_Hashtable_traitsILb0ELb1ELb1EEEE21_M_insert_unique_nodeEmmPNS4_10_Hash_nodeIS2_Lb0EEE
0000000000127800 w _ZNSt10_HashtableIPKN7rocksdb16ColumnFamilyDataES3_SaIS3_ENSt8__detail9_IdentityESt8equal_toIS3_ESt4hashIS3_ENS5_18_Mod_range_hashingENS5_20_Default_ranged_hashENS5_20_Prime_rehash_policyENS5_17_Hashtable_traitsILb0ELb1ELb1EEEE9_M_rehashEmRKm
0000000000127920 w _ZNSt10_HashtableIPKN7rocksdb16ColumnFamilyDataES3_SaIS3_ENSt8__detail9_IdentityESt8equal_toIS3_ESt4hashIS3_ENS5_18_Mod_range_hashingENS5_20_Default_ranged_hashENS5_20_Prime_rehash_policyENS5_17_Hashtable_traitsILb0ELb1ELb1EEEE21_M_insert_unique_nodeEmmPNS5_10_Hash_nodeIS3_Lb0EEE
0000000000127a30 w _ZNSt20__uninitialized_copyILb0EE13__uninit_copyIN9__gnu_cxx17__normal_iteratorIPKN7rocksdb19SuperVersionContext22WriteStallNotificationESt6vectorIS6_SaIS6_EEEEPS6_EET0_T_SF_SE_
0000000000127af0 t _ZZN7rocksdb6DBImpl15RecoverLogFilesERKSt6vectorImSaImEEPmbPbENKUlvE_clEv
0000000000127b90 t _ZZN7rocksdb6DBImpl15RecoverLogFilesERKSt6vectorImSaImEEPmbPbEN11LogReporterD2Ev
0000000000127ba0 t _ZZN7rocksdb6DBImpl15RecoverLogFilesERKSt6vectorImSaImEEPmbPbEN11LogReporterD0Ev
0000000000127bd0 t _ZNSt8__detail16_Hashtable_allocISaINS_10_Hash_nodeISt4pairIKmNSt7__cxx1112basic_stringIcSt11char_traitsIcESaIcEEEELb0EEEEE19_M_allocate_bucketsEm.isra.709
0000000000127c20 t _ZNKSt10_HashtableIiSt4pairIKiN7rocksdb11VersionEditEESaIS4_ENSt8__detail10_Select1stESt8equal_toIiESt4hashIiENS6_18_Mod_range_hashingENS6_20_Default_ranged_hashENS6_20_Prime_rehash_policyENS6_17_Hashtable_traitsILb0ELb0ELb1EEEE12_M_find_nodeEmRS1_m.isra.839
0000000000127c80 t _ZNSt16_Sp_counted_baseILN9__gnu_cxx12_Lock_policyE2EE10_M_releaseEv.part.91
0000000000127ce0 t _ZNSt7__cxx1112basic_stringIcSt11char_traitsIcESaIcEE12_M_constructIPKcEEvT_S8_St20forward_iterator_tag.isra.452
0000000000127db0 t _ZNSt7__cxx1112basic_stringIcSt11char_traitsIcESaIcEEC2EPKcRKS3_.isra.454
0000000000127e00 t _ZZN7rocksdb6DBImpl15RecoverLogFilesERKSt6vectorImSaImEEPmbPbEN11LogReporter10CorruptionEmRKNS_6StatusE
0000000000127f30 t _ZSt25__unguarded_linear_insertIN9__gnu_cxx17__normal_iteratorIPNSt7__cxx1112basic_stringIcSt11char_traitsIcESaIcEEESt6vectorIS7_SaIS7_EEEENS0_5__ops14_Val_less_iterEEvT_T0_.isra.638
0000000000128110 T _ZN7rocksdb6DBImpl15ValidateOptionsERKNS_9DBOptionsE
00000000001283c0 T _ZN7rocksdb6DBImpl15ValidateOptionsERKNS_9DBOptionsERKSt6vectorINS_22ColumnFamilyDescriptorESaIS5_EE
00000000001284f0 T _ZN7rocksdb6DBImpl21CreateAndNewDirectoryEPNS_10FileSystemERKNSt7__cxx1112basic_stringIcSt11char_traitsIcESaIcEEEPSt10unique_ptrINS_11FSDirectoryESt14default_deleteISC_EE
0000000000128610 T _ZN7rocksdb6DBImpl26GetLogSizeAndMaybeTruncateEmbPNS0_17LogFileNumberSizeE
0000000000128b20 T _ZN7rocksdb6DBImpl28InitPersistStatsColumnFamilyEv
0000000000128cb0 T _ZN7rocksdb6DBImpl9CreateWALEmmmPPNS_3log6WriterE
00000000001293e0 T _ZN7rocksdb15SanitizeOptionsERKNSt7__cxx1112basic_stringIcSt11char_traitsIcESaIcEEERKNS_9DBOptionsEb
000000000012a0b0 T _ZN7rocksdb15SanitizeOptionsERKNSt7__cxx1112basic_stringIcSt11char_traitsIcESaIcEEERKNS_7OptionsEb
000000000012a220 T _ZN7rocksdb6DBImpl5NewDBEPSt6vectorINSt7__cxx1112basic_stringIcSt11char_traitsIcESaIcEEESaIS7_EE
000000000012ad30 T _ZN7rocksdb11Directories14SetDirectoriesEPNS_10FileSystemERKNSt7__cxx1112basic_stringIcSt11char_traitsIcESaIcEEESA_RKSt6vectorINS_6DbPathESaISC_EE
000000000012b270 T _ZN7rocksdb6DBImpl20RestoreAliveLogFilesERKSt6vectorImSaImEE
000000000012b590 t _ZSt16__introsort_loopIN9__gnu_cxx17__normal_iteratorIPmSt6vectorImSaImEEEElNS0_5__ops15_Iter_less_iterEEvT_S9_T0_T1_.isra.809
000000000012b770 t _ZSt16__introsort_loopIN9__gnu_cxx17__normal_iteratorIPNSt7__cxx1112basic_stringIcSt11char_traitsIcESaIcEEESt6vectorIS7_SaIS7_EEEElNS0_5__ops15_Iter_less_iterEEvT_SF_T0_T1_.isra.812
000000000012bb80 T _ZN7rocksdb6DBImpl35PersistentStatsProcessFormatVersionEv
000000000012c270 T _ZN7rocksdb6DBImpl4OpenERKNS_9DBOptionsERKNSt7__cxx1112basic_stringIcSt11char_traitsIcESaIcEEERKSt6vectorINS_22ColumnFamilyDescriptorESaISD_EEPSC_IPNS_18ColumnFamilyHandleESaISJ_EEPPNS_2DBEbb
000000000012e010 T _ZN7rocksdb2DB4OpenERKNS_9DBOptionsERKNSt7__cxx1112basic_stringIcSt11char_traitsIcESaIcEEERKSt6vectorINS_22ColumnFamilyDescriptorESaISD_EEPSC_IPNS_18ColumnFamilyHandleESaISJ_EEPPS0_
000000000012e060 T _ZN7rocksdb2DB4OpenERKNS_7OptionsERKNSt7__cxx1112basic_stringIcSt11char_traitsIcESaIcEEEPPS0_
000000000012e3e0 T _ZN7rocksdb6DBImpl27WriteLevel0TableForRecoveryEiPNS_16ColumnFamilyDataEPNS_8MemTableEPNS_11VersionEditE
00000000001305d0 T _ZN7rocksdb6DBImpl15RecoverLogFilesERKSt6vectorImSaImEEPmbPb
0000000000134030 T _ZN7rocksdb6DBImpl7RecoverERKSt6vectorINS_22ColumnFamilyDescriptorESaIS2_EEbbbPm
0000000000136130 w _ZNK7rocksdb11MemTableRep24IsMergeOperatorSupportedEv
0000000000136140 w _ZN7rocksdb9WalFilter24ColumnFamilyLogNumberMapERKSt3mapIjmSt4lessIjESaISt4pairIKjmEEERKS1_INSt7__cxx1112basic_stringIcSt11char_traitsIcESaIcEEEjS2_ISG_ESaIS4_IKSG_jEEE
0000000000136150 w _ZNK7rocksdb9WalFilter9LogRecordERKNS_10WriteBatchEPS1_Pb
0000000000136160 w _ZNK7rocksdb18GenericRateLimiter17GetBytesPerSecondEv
0000000000136170 w _ZNSt15_Sp_counted_ptrIPN7rocksdb14SstFileManagerELN9__gnu_cxx12_Lock_policyE2EED2Ev
0000000000136180 w _ZNSt15_Sp_counted_ptrIPN7rocksdb14SstFileManagerELN9__gnu_cxx12_Lock_policyE2EE10_M_disposeEv
00000000001361a0 w _ZNSt15_Sp_counted_ptrIPN7rocksdb14SstFileManagerELN9__gnu_cxx12_Lock_policyE2EE14_M_get_deleterERKSt9type_info
00000000001361b0 w _ZNSt15_Sp_counted_ptrIPN7rocksdb14SstFileManagerELN9__gnu_cxx12_Lock_policyE2EED0Ev
00000000001361c0 w _ZNSt15_Sp_counted_ptrIPN7rocksdb14SstFileManagerELN9__gnu_cxx12_Lock_policyE2EE10_M_destroyEv
00000000001361d0 w _ZN7rocksdb9WalFilter14LogRecordFoundEyRKNSt7__cxx1112basic_stringIcSt11char_traitsIcESaIcEEERKNS_10WriteBatchEPS9_Pb
0000000000136200 w _ZN7rocksdb16BlobFileAdditionD2Ev
0000000000136250 w _ZNSt6vectorIN7rocksdb16BlobFileAdditionESaIS1_EED1Ev
0000000000136310 w _ZNSt10_HashtableImSt4pairIKmNSt7__cxx1112basic_stringIcSt11char_traitsIcESaIcEEEESaIS8_ENSt8__detail10_Select1stESt8equal_toImESt4hashImENSA_18_Mod_range_hashingENSA_20_Default_ranged_hashENSA_20_Prime_rehash_policyENSA_17_Hashtable_traitsILb0ELb0ELb1EEEED2Ev
00000000001363b0 w _ZNSt6vectorISt10unique_ptrIN7rocksdb32FragmentedRangeTombstoneIteratorESt14default_deleteIS2_EESaIS5_EED2Ev
0000000000136420 w _ZNSt5dequeIN7rocksdb6DBImpl15LogWriterNumberESaIS2_EE12emplace_backIJRmRPNS0_3log6WriterEEEEvDpOT_
0000000000136660 w _ZNSt10_HashtableINSt7__cxx1112basic_stringIcSt11char_traitsIcESaIcEEESt4pairIKS5_mESaIS8_ENSt8__detail10_Select1stESt8equal_toIS5_ESt4hashIS5_ENSA_18_Mod_range_hashingENSA_20_Default_ranged_hashENSA_20_Prime_rehash_policyENSA_17_Hashtable_traitsILb1ELb0ELb1EEEED1Ev
0000000000136700 w _ZN7rocksdb28FSWritableFileTracingWrapperD1Ev
0000000000136750 w _ZN7rocksdb28FSWritableFileTracingWrapperD0Ev
00000000001367a0 w _ZN7rocksdb17FSWritableFilePtrD2Ev
0000000000136830 w _ZNSt10unique_ptrIN7rocksdb18WritableFileWriterESt14default_deleteIS1_EED2Ev
0000000000136a20 w _ZNSt6vectorINSt7__cxx1112basic_stringIcSt11char_traitsIcESaIcEEESaIS5_EE12emplace_backIJRKS5_EEEvDpOT_
0000000000136a80 w _ZN7rocksdb18WritableFileWriterC1EOSt10unique_ptrINS_14FSWritableFileESt14default_deleteIS2_EERKNSt7__cxx1112basic_stringIcSt11char_traitsIcESaIcEEERKNS_11FileOptionsEPNS_11SystemClockERKSt10shared_ptrINS_8IOTracerEEPNS_10StatisticsERKSt6vectorISK_INS_13EventListenerEESaIST_EEPNS_22FileChecksumGenFactoryEbb
00000000001371e0 w _ZNSt6vectorIN7rocksdb16BlobFileAdditionESaIS1_EE17_M_realloc_insertIJS1_EEEvN9__gnu_cxx17__normal_iteratorIPS1_S3_EEDpOT_
0000000000137650 w _ZNSt10_HashtableIiSt4pairIKiN7rocksdb11VersionEditEESaIS4_ENSt8__detail10_Select1stESt8equal_toIiESt4hashIiENS6_18_Mod_range_hashingENS6_20_Default_ranged_hashENS6_20_Prime_rehash_policyENS6_17_Hashtable_traitsILb0ELb0ELb1EEEED1Ev
00000000001376e0 w _ZNSt6vectorIN7rocksdb6DbPathESaIS1_EE17_M_realloc_insertIJRKNSt7__cxx1112basic_stringIcSt11char_traitsIcESaIcEEEmEEEvN9__gnu_cxx17__normal_iteratorIPS1_S3_EEDpOT_
0000000000137a00 w _ZNSt6vectorISt10unique_ptrIN7rocksdb11FSDirectoryESt14default_deleteIS2_EESaIS5_EE17_M_realloc_insertIJDnEEEvN9__gnu_cxx17__normal_iteratorIPS5_S7_EEDpOT_
0000000000137bc0 w _ZNSt6vectorISt10unique_ptrIN7rocksdb11FSDirectoryESt14default_deleteIS2_EESaIS5_EE17_M_realloc_insertIJPS2_EEEvN9__gnu_cxx17__normal_iteratorIPS5_S7_EEDpOT_
0000000000137d80 w _ZNSt8_Rb_treeINSt7__cxx1112basic_stringIcSt11char_traitsIcESaIcEEESt4pairIKS5_jESt10_Select1stIS8_ESt4lessIS5_ESaIS8_EE8_M_eraseEPSt13_Rb_tree_nodeIS8_E
0000000000137de0 w _ZNSt8_Rb_treeIjSt4pairIKjmESt10_Select1stIS2_ESt4lessIjESaIS2_EE8_M_eraseEPSt13_Rb_tree_nodeIS2_E
0000000000137e30 w _ZNSt8_Rb_treeINSt7__cxx1112basic_stringIcSt11char_traitsIcESaIcEEESt4pairIKS5_jESt10_Select1stIS8_ESt4lessIS5_ESaIS8_EE17_M_emplace_uniqueIJS6_IS5_jEEEES6_ISt17_Rb_tree_iteratorIS8_EbEDpOT_
0000000000138010 w _ZNSt8_Rb_treeIjSt4pairIKjmESt10_Select1stIS2_ESt4lessIjESaIS2_EE17_M_emplace_uniqueIJS0_IjmEEEES0_ISt17_Rb_tree_iteratorIS2_EbEDpOT_
0000000000138120 w _ZNSt6vectorISt10unique_ptrIN7rocksdb32FragmentedRangeTombstoneIteratorESt14default_deleteIS2_EESaIS5_EE17_M_realloc_insertIJRPS2_EEEvN9__gnu_cxx17__normal_iteratorIPS5_S7_EEDpOT_
00000000001382e0 w _ZSt8__uniqueIN9__gnu_cxx17__normal_iteratorIPNSt7__cxx1112basic_stringIcSt11char_traitsIcESaIcEEESt6vectorIS7_SaIS7_EEEENS0_5__ops19_Iter_equal_to_iterEET_SF_SF_T0_
00000000001383b0 w _ZNSt6vectorIN7rocksdb22ColumnFamilyDescriptorESaIS1_EE12emplace_backIJS1_EEEvDpOT_
0000000000138b10 w _ZNSt6vectorIPN7rocksdb18ColumnFamilyHandleESaIS2_EE17_M_realloc_insertIJS2_EEEvN9__gnu_cxx17__normal_iteratorIPS2_S4_EEDpOT_
0000000000138c50 w _ZNSt10_HashtableImSt4pairIKmNSt7__cxx1112basic_stringIcSt11char_traitsIcESaIcEEEESaIS8_ENSt8__detail10_Select1stESt8equal_toImESt4hashImENSA_18_Mod_range_hashingENSA_20_Default_ranged_hashENSA_20_Prime_rehash_policyENSA_17_Hashtable_traitsILb0ELb0ELb1EEEE9_M_rehashEmRS1_
0000000000138d70 w _ZNSt10_HashtableImSt4pairIKmNSt7__cxx1112basic_stringIcSt11char_traitsIcESaIcEEEESaIS8_ENSt8__detail10_Select1stESt8equal_toImESt4hashImENSA_18_Mod_range_hashingENSA_20_Default_ranged_hashENSA_20_Prime_rehash_policyENSA_17_Hashtable_traitsILb0ELb0ELb1EEEE21_M_insert_unique_nodeEmmPNSA_10_Hash_nodeIS8_Lb0EEE
0000000000138ea0 w _ZSt16__insertion_sortIN9__gnu_cxx17__normal_iteratorIPmSt6vectorImSaImEEEENS0_5__ops15_Iter_less_iterEEvT_S9_T0_
0000000000138f50 w _ZNSt5dequeIN7rocksdb6DBImpl17LogFileNumberSizeESaIS2_EE17_M_reallocate_mapEmb
00000000001390e0 w _ZNSt5dequeIN7rocksdb6DBImpl17LogFileNumberSizeESaIS2_EE12emplace_backIJS2_EEEvDpOT_
00000000001391b0 w _ZNKSt10_HashtableINSt7__cxx1112basic_stringIcSt11char_traitsIcESaIcEEESt4pairIKS5_mESaIS8_ENSt8__detail10_Select1stESt8equal_toIS5_ESt4hashIS5_ENSA_18_Mod_range_hashingENSA_20_Default_ranged_hashENSA_20_Prime_rehash_policyENSA_17_Hashtable_traitsILb1ELb0ELb1EEEE19_M_find_before_nodeEmRS7_m
0000000000139260 w _ZNSt10_HashtableINSt7__cxx1112basic_stringIcSt11char_traitsIcESaIcEEESt4pairIKS5_mESaIS8_ENSt8__detail10_Select1stESt8equal_toIS5_ESt4hashIS5_ENSA_18_Mod_range_hashingENSA_20_Default_ranged_hashENSA_20_Prime_rehash_policyENSA_17_Hashtable_traitsILb1ELb0ELb1EEEE9_M_rehashEmRKm
0000000000139380 w _ZNSt10_HashtableINSt7__cxx1112basic_stringIcSt11char_traitsIcESaIcEEESt4pairIKS5_mESaIS8_ENSt8__detail10_Select1stESt8equal_toIS5_ESt4hashIS5_ENSA_18_Mod_range_hashingENSA_20_Default_ranged_hashENSA_20_Prime_rehash_policyENSA_17_Hashtable_traitsILb1ELb0ELb1EEEE21_M_insert_unique_nodeEmmPNSA_10_Hash_nodeIS8_Lb1EEE
00000000001394b0 w _ZNSt8__detail9_Map_baseINSt7__cxx1112basic_stringIcSt11char_traitsIcESaIcEEESt4pairIKS6_mESaIS9_ENS_10_Select1stESt8equal_toIS6_ESt4hashIS6_ENS_18_Mod_range_hashingENS_20_Default_ranged_hashENS_20_Prime_rehash_policyENS_17_Hashtable_traitsILb1ELb0ELb1EEELb1EEixERS8_
00000000001395a0 w _ZNSt10_HashtableIiSt4pairIKiN7rocksdb11VersionEditEESaIS4_ENSt8__detail10_Select1stESt8equal_toIiESt4hashIiENS6_18_Mod_range_hashingENS6_20_Default_ranged_hashENS6_20_Prime_rehash_policyENS6_17_Hashtable_traitsILb0ELb0ELb1EEEE9_M_rehashEmRKm
00000000001396c0 w _ZNSt10_HashtableIiSt4pairIKiN7rocksdb11VersionEditEESaIS4_ENSt8__detail10_Select1stESt8equal_toIiESt4hashIiENS6_18_Mod_range_hashingENS6_20_Default_ranged_hashENS6_20_Prime_rehash_policyENS6_17_Hashtable_traitsILb0ELb0ELb1EEEE21_M_insert_unique_nodeEmmPNS6_10_Hash_nodeIS4_Lb0EEE
00000000001397e0 w _ZSt13__adjust_heapIN9__gnu_cxx17__normal_iteratorIPmSt6vectorImSaImEEEElmNS0_5__ops15_Iter_less_iterEEvT_T0_SA_T1_T2_
0000000000139910 T _ZN7rocksdb14DBImplReadOnlyD2Ev
0000000000139920 T _ZN7rocksdb14DBImplReadOnlyD0Ev
0000000000139950 T _ZN7rocksdb14DBImplReadOnly11NewIteratorERKNS_11ReadOptionsEPNS_18ColumnFamilyHandleE
0000000000139b50 t _ZN7rocksdb12_GLOBAL__N_129OpenForReadOnlyCheckExistenceERKNS_9DBOptionsERKNSt7__cxx1112basic_stringIcSt11char_traitsIcESaIcEEE.isra.129
0000000000139d60 T _ZN7rocksdb14DBImplReadOnly3GetERKNS_11ReadOptionsEPNS_18ColumnFamilyHandleERKNS_5SliceEPNS_13PinnableSliceE
000000000013a4d0 T _ZN7rocksdb14DBImplReadOnlyC1ERKNS_9DBOptionsERKNSt7__cxx1112basic_stringIcSt11char_traitsIcESaIcEEE
000000000013a540 T _ZN7rocksdb14DBImplReadOnly12NewIteratorsERKNS_11ReadOptionsERKSt6vectorIPNS_18ColumnFamilyHandleESaIS6_EEPS4_IPNS_8IteratorESaISC_EE
000000000013a910 T _ZN7rocksdb14DBImplReadOnly27OpenForReadOnlyWithoutCheckERKNS_9DBOptionsERKNSt7__cxx1112basic_stringIcSt11char_traitsIcESaIcEEERKSt6vectorINS_22ColumnFamilyDescriptorESaISD_EEPSC_IPNS_18ColumnFamilyHandleESaISJ_EEPPNS_2DBEb
000000000013c8d0 T _ZN7rocksdb2DB15OpenForReadOnlyERKNS_9DBOptionsERKNSt7__cxx1112basic_stringIcSt11char_traitsIcESaIcEEERKSt6vectorINS_22ColumnFamilyDescriptorESaISD_EEPSC_IPNS_18ColumnFamilyHandleESaISJ_EEPPS0_b
000000000013c9c0 T _ZN7rocksdb2DB15OpenForReadOnlyERKNS_7OptionsERKNSt7__cxx1112basic_stringIcSt11char_traitsIcESaIcEEEPPS0_b
000000000013f600 w _ZN7rocksdb20InternalIteratorBaseINS_5SliceEE17SetPinnedItersMgrEPNS_22PinnedIteratorsManagerE
000000000013f610 w _ZN7rocksdb14DBImplReadOnly28CreateColumnFamilyWithImportERKNS_19ColumnFamilyOptionsERKNSt7__cxx1112basic_stringIcSt11char_traitsIcESaIcEEERKNS_25ImportColumnFamilyOptionsERKNS_25ExportImportFilesMetaDataEPPNS_18ColumnFamilyHandleE
000000000013f690 w _ZN7rocksdb14DBImplReadOnly18IngestExternalFileEPNS_18ColumnFamilyHandleERKSt6vectorINSt7__cxx1112basic_stringIcSt11char_traitsIcESaIcEEESaIS9_EERKNS_25IngestExternalFileOptionsE
000000000013f710 w _ZN7rocksdb14DBImplReadOnly19EnableFileDeletionsEb
000000000013f790 w _ZN7rocksdb14DBImplReadOnly20DisableFileDeletionsEv
000000000013f810 w _ZN7rocksdb14DBImplReadOnly7SyncWALEv
000000000013f890 w _ZN7rocksdb14DBImplReadOnly5FlushERKNS_12FlushOptionsEPNS_18ColumnFamilyHandleE
000000000013f910 w _ZN7rocksdb14DBImplReadOnly12CompactFilesERKNS_17CompactionOptionsEPNS_18ColumnFamilyHandleERKSt6vectorINSt7__cxx1112basic_stringIcSt11char_traitsIcESaIcEEESaISC_EEiiPSE_PNS_17CompactionJobInfoE
000000000013f990 w _ZN7rocksdb14DBImplReadOnly12CompactRangeERKNS_19CompactRangeOptionsEPNS_18ColumnFamilyHandleEPKNS_5SliceES8_
000000000013fa10 w _ZN7rocksdb14DBImplReadOnly5WriteERKNS_12WriteOptionsEPNS_10WriteBatchE
000000000013fa90 w _ZN7rocksdb14DBImplReadOnly5MergeERKNS_12WriteOptionsEPNS_18ColumnFamilyHandleERKNS_5SliceES8_
000000000013fb10 w _ZN7rocksdb14DBImplReadOnly12SingleDeleteERKNS_12WriteOptionsEPNS_18ColumnFamilyHandleERKNS_5SliceE
000000000013fb90 w _ZN7rocksdb14DBImplReadOnly6DeleteERKNS_12WriteOptionsEPNS_18ColumnFamilyHandleERKNS_5SliceE
000000000013fc10 w _ZN7rocksdb14DBImplReadOnly3PutERKNS_12WriteOptionsEPNS_18ColumnFamilyHandleERKNS_5SliceES8_
000000000013fc90 w _ZN7rocksdb14DBImplReadOnly12GetLiveFilesERSt6vectorINSt7__cxx1112basic_stringIcSt11char_traitsIcESaIcEEESaIS7_EEPmb
000000000013fce0 t _ZNSt8__detail16_Hashtable_allocISaINS_10_Hash_nodeISt4pairIKPN7rocksdb16ColumnFamilyDataEmELb0EEEEE19_M_allocate_bucketsEm.isra.593
000000000013fd30 t _ZNSt7__cxx1112basic_stringIcSt11char_traitsIcESaIcEE12_M_constructIPKcEEvT_S8_St20forward_iterator_tag.isra.405
000000000013fe00 t _ZN7rocksdb13PerfStepTimer4StopEv.part.30
000000000013fe60 T _ZN7rocksdb15DBImplSecondary7GetImplERKNS_11ReadOptionsEPNS_18ColumnFamilyHandleERKNS_5SliceEPNS_13PinnableSliceE
0000000000140920 T _ZN7rocksdb15DBImplSecondary3GetERKNS_11ReadOptionsEPNS_18ColumnFamilyHandleERKNS_5SliceEPNS_13PinnableSliceE
0000000000140960 T _ZN7rocksdb15DBImplSecondary15NewIteratorImplERKNS_11ReadOptionsEPNS_16ColumnFamilyDataEmPNS_12ReadCallbackEbb
0000000000140b40 T _ZN7rocksdb15DBImplSecondary11NewIteratorERKNS_11ReadOptionsEPNS_18ColumnFamilyHandleE
0000000000140d70 T _ZN7rocksdb15DBImplSecondaryC1ERKNS_9DBOptionsERKNSt7__cxx1112basic_stringIcSt11char_traitsIcESaIcEEES9_
0000000000140f80 T _ZN7rocksdb15DBImplSecondaryD2Ev
0000000000141080 T _ZN7rocksdb15DBImplSecondaryD0Ev
00000000001410a0 T _ZN7rocksdb15DBImplSecondary18MaybeInitLogReaderEmPPNS_3log22FragmentBufferedReaderE
0000000000141df0 T _ZN7rocksdb15DBImplSecondary12NewIteratorsERKNS_11ReadOptionsERKSt6vectorIPNS_18ColumnFamilyHandleESaIS6_EEPS4_IPNS_8IteratorESaISC_EE
00000000001420e0 T _ZN7rocksdb2DB15OpenAsSecondaryERKNS_9DBOptionsERKNSt7__cxx1112basic_stringIcSt11char_traitsIcESaIcEEESB_RKSt6vectorINS_22ColumnFamilyDescriptorESaISD_EEPSC_IPNS_18ColumnFamilyHandleESaISJ_EEPPS0_
00000000001431d0 T _ZN7rocksdb2DB15OpenAsSecondaryERKNS_7OptionsERKNSt7__cxx1112basic_stringIcSt11char_traitsIcESaIcEEESB_PPS0_
0000000000143430 t _ZNSt10_HashtableIjjSaIjENSt8__detail9_IdentityESt8equal_toIjESt4hashIjENS1_18_Mod_range_hashingENS1_20_Default_ranged_hashENS1_20_Prime_rehash_policyENS1_17_Hashtable_traitsILb0ELb1ELb1EEEE9_M_insertIRKjNS1_10_AllocNodeISaINS1_10_Hash_nodeIjLb0EEEEEEEESt4pairINS1_14_Node_iteratorIjLb1ELb0EEEbEOT_RKT0_St17integral_constantIbLb1EE.isra.697
00000000001434f0 t _ZSt16__introsort_loopIN9__gnu_cxx17__normal_iteratorIPmSt6vectorImSaImEEEElNS0_5__ops15_Iter_less_iterEEvT_S9_T0_T1_.isra.679
00000000001436d0 T _ZN7rocksdb15DBImplSecondary17FindNewLogNumbersEPSt6vectorImSaImEE
0000000000143ad0 T _ZN7rocksdb15DBImplSecondary15RecoverLogFilesERKSt6vectorImSaImEEPmPSt13unordered_setIPNS_16ColumnFamilyDataESt4hashIS9_ESt8equal_toIS9_ESaIS9_EEPNS_10JobContextE
0000000000144cd0 T _ZN7rocksdb15DBImplSecondary22FindAndRecoverLogFilesEPSt13unordered_setIPNS_16ColumnFamilyDataESt4hashIS3_ESt8equal_toIS3_ESaIS3_EEPNS_10JobContextE
0000000000144e10 T _ZN7rocksdb15DBImplSecondary7RecoverERKSt6vectorINS_22ColumnFamilyDescriptorESaIS2_EEbbbPm
0000000000145190 T _ZN7rocksdb15DBImplSecondary21TryCatchUpWithPrimaryEv
0000000000145710 T _ZN7rocksdb15DBImplSecondary16CheckConsistencyEv
00000000001460f0 T _ZN7rocksdb15DBImplSecondary26CompactWithoutInstallationEPNS_18ColumnFamilyHandleERKNS_22CompactionServiceInputEPNS_23CompactionServiceResultE
0000000000146f30 T _ZN7rocksdb2DB14OpenAndCompactERKNSt7__cxx1112basic_stringIcSt11char_traitsIcESaIcEEES8_S8_PS6_RKNS_32CompactionServiceOptionsOverrideE
0000000000147a70 w _ZN7rocksdb10WriteBatch7Handler3PutERKNS_5SliceES4_
0000000000147a80 w _ZN7rocksdb10WriteBatch7Handler6DeleteERKNS_5SliceE
0000000000147a90 w _ZN7rocksdb10WriteBatch7Handler12SingleDeleteERKNS_5SliceE
0000000000147aa0 w _ZN7rocksdb10WriteBatch7Handler5MergeERKNS_5SliceES4_
0000000000147ab0 w _ZNK7rocksdb10WriteBatch7Handler16WriteAfterCommitEv
0000000000147ac0 w _ZNK7rocksdb10WriteBatch7Handler18WriteBeforePrepareEv
0000000000147ad0 w _ZN7rocksdb15DBImplSecondary21ColumnFamilyCollector16MarkBeginPrepareEb
0000000000147af0 w _ZN7rocksdb15DBImplSecondary21ColumnFamilyCollector14MarkEndPrepareERKNS_5SliceE
0000000000147b10 w _ZN7rocksdb15DBImplSecondary21ColumnFamilyCollector12MarkRollbackERKNS_5SliceE
0000000000147b30 w _ZN7rocksdb15DBImplSecondary21ColumnFamilyCollector10MarkCommitERKNS_5SliceE
0000000000147b50 w _ZN7rocksdb15DBImplSecondary21ColumnFamilyCollector8MarkNoopEb
0000000000147b70 w _ZNK7rocksdb15DBImplSecondary16OwnTablesAndLogsEv
0000000000147b80 w _ZN7rocksdb18LogReaderContainer11LogReporterD2Ev
0000000000147bc0 w _ZN7rocksdb15DBImplSecondary18IngestExternalFileEPNS_18ColumnFamilyHandleERKSt6vectorINSt7__cxx1112basic_stringIcSt11char_traitsIcESaIcEEESaIS9_EERKNS_25IngestExternalFileOptionsE
0000000000147c40 w _ZN7rocksdb15DBImplSecondary12GetLiveFilesERSt6vectorINSt7__cxx1112basic_stringIcSt11char_traitsIcESaIcEEESaIS7_EEPmb
0000000000147cc0 w _ZN7rocksdb15DBImplSecondary19EnableFileDeletionsEb
0000000000147d40 w _ZN7rocksdb15DBImplSecondary20DisableFileDeletionsEv
0000000000147dc0 w _ZN7rocksdb15DBImplSecondary7SyncWALEv
0000000000147e40 w _ZN7rocksdb15DBImplSecondary5FlushERKNS_12FlushOptionsEPNS_18ColumnFamilyHandleE
0000000000147ec0 w _ZN7rocksdb15DBImplSecondary12CompactFilesERKNS_17CompactionOptionsEPNS_18ColumnFamilyHandleERKSt6vectorINSt7__cxx1112basic_stringIcSt11char_traitsIcESaIcEEESaISC_EEiiPSE_PNS_17CompactionJobInfoE
0000000000147f40 w _ZN7rocksdb15DBImplSecondary12SetDBOptionsERKSt13unordered_mapINSt7__cxx1112basic_stringIcSt11char_traitsIcESaIcEEES7_St4hashIS7_ESt8equal_toIS7_ESaISt4pairIKS7_S7_EEE
0000000000147fc0 w _ZN7rocksdb15DBImplSecondary10SetOptionsEPNS_18ColumnFamilyHandleERKSt13unordered_mapINSt7__cxx1112basic_stringIcSt11char_traitsIcESaIcEEES9_St4hashIS9_ESt8equal_toIS9_ESaISt4pairIKS9_S9_EEE
0000000000148040 w _ZN7rocksdb15DBImplSecondary12CompactRangeERKNS_19CompactRangeOptionsEPNS_18ColumnFamilyHandleEPKNS_5SliceES8_
00000000001480c0 w _ZN7rocksdb15DBImplSecondary5WriteERKNS_12WriteOptionsEPNS_10WriteBatchE
0000000000148140 w _ZN7rocksdb15DBImplSecondary5MergeERKNS_12WriteOptionsEPNS_18ColumnFamilyHandleERKNS_5SliceES8_
00000000001481c0 w _ZN7rocksdb15DBImplSecondary12SingleDeleteERKNS_12WriteOptionsEPNS_18ColumnFamilyHandleERKNS_5SliceE
0000000000148240 w _ZN7rocksdb15DBImplSecondary6DeleteERKNS_12WriteOptionsEPNS_18ColumnFamilyHandleERKNS_5SliceE
00000000001482c0 w _ZN7rocksdb15DBImplSecondary3PutERKNS_12WriteOptionsEPNS_18ColumnFamilyHandleERKNS_5SliceES8_
0000000000148340 w _ZN7rocksdb3log22FragmentBufferedReaderD0Ev
0000000000148390 w _ZN7rocksdb18LogReaderContainer11LogReporterD0Ev
00000000001483d0 w _ZN7rocksdb18LogReaderContainer11LogReporter10CorruptionEmRKNS_6StatusE
0000000000148500 w _ZN7rocksdb3log22FragmentBufferedReaderD2Ev
0000000000148540 w _ZN7rocksdb19SuperVersionContext15NewSuperVersionEv
0000000000148630 w _ZN7rocksdb23CompactionServiceResultD1Ev
0000000000148750 w _ZNSt6vectorIN7rocksdb6DbPathESaIS1_EEC1ERKS3_
0000000000148880 w _ZNSt10_HashtableIjjSaIjENSt8__detail9_IdentityESt8equal_toIjESt4hashIjENS1_18_Mod_range_hashingENS1_20_Default_ranged_hashENS1_20_Prime_rehash_policyENS1_17_Hashtable_traitsILb0ELb1ELb1EEEED1Ev
0000000000148900 w _ZN7rocksdb15DBImplSecondary21ColumnFamilyCollectorD1Ev
0000000000148930 w _ZN7rocksdb15DBImplSecondary21ColumnFamilyCollectorD0Ev
0000000000148970 w _ZNSt10_HashtableIPN7rocksdb16ColumnFamilyDataESt4pairIKS2_mESaIS5_ENSt8__detail10_Select1stESt8equal_toIS2_ESt4hashIS2_ENS7_18_Mod_range_hashingENS7_20_Default_ranged_hashENS7_20_Prime_rehash_policyENS7_17_Hashtable_traitsILb0ELb0ELb1EEEED1Ev
00000000001489f0 w _ZNSt10unique_ptrIN7rocksdb18LogReaderContainerESt14default_deleteIS1_EED1Ev
0000000000148aa0 w _ZNSt6vectorIjSaIjEE17_M_realloc_insertIJRKjEEEvN9__gnu_cxx17__normal_iteratorIPjS1_EEDpOT_
0000000000148be0 w _ZNSt8_Rb_treeImSt4pairIKmSt10unique_ptrIN7rocksdb18LogReaderContainerESt14default_deleteIS4_EEESt10_Select1stIS8_ESt4lessImESaIS8_EE8_M_eraseEPSt13_Rb_tree_nodeIS8_E
0000000000148ce0 w _ZNSt8_Rb_treeImSt4pairIKmSt10unique_ptrIN7rocksdb18LogReaderContainerESt14default_deleteIS4_EEESt10_Select1stIS8_ESt4lessImESaIS8_EE17_M_emplace_uniqueIJS0_ImS7_EEEES0_ISt17_Rb_tree_iteratorIS8_EbEDpOT_
0000000000148e10 w _ZNSt6vectorIN7rocksdb22ColumnFamilyDescriptorESaIS1_EE17_M_realloc_insertIJRKNSt7__cxx1112basic_stringIcSt11char_traitsIcESaIcEEERNS0_19ColumnFamilyOptionsEEEEvN9__gnu_cxx17__normal_iteratorIPS1_S3_EEDpOT_
0000000000149e70 w _ZNSt6vectorIN7rocksdb22ColumnFamilyDescriptorESaIS1_EE17_M_realloc_insertIJRKS1_EEEvN9__gnu_cxx17__normal_iteratorIPS1_S3_EEDpOT_
000000000014aed0 w _ZNSt8_Rb_treeImSt4pairIKmSt10unique_ptrIN7rocksdb18LogReaderContainerESt14default_deleteIS4_EEESt10_Select1stIS8_ESt4lessImESaIS8_EE12_M_erase_auxESt23_Rb_tree_const_iteratorIS8_E
000000000014afb0 w _ZNSt10_HashtableIPN7rocksdb16ColumnFamilyDataESt4pairIKS2_mESaIS5_ENSt8__detail10_Select1stESt8equal_toIS2_ESt4hashIS2_ENS7_18_Mod_range_hashingENS7_20_Default_ranged_hashENS7_20_Prime_rehash_policyENS7_17_Hashtable_traitsILb0ELb0ELb1EEEE9_M_rehashEmRKm
000000000014b0d0 w _ZNSt10_HashtableIPN7rocksdb16ColumnFamilyDataESt4pairIKS2_mESaIS5_ENSt8__detail10_Select1stESt8equal_toIS2_ESt4hashIS2_ENS7_18_Mod_range_hashingENS7_20_Default_ranged_hashENS7_20_Prime_rehash_policyENS7_17_Hashtable_traitsILb0ELb0ELb1EEEE21_M_insert_unique_nodeEmmPNS7_10_Hash_nodeIS5_Lb0EEE
000000000014b1e0 w _ZNSt10_HashtableIjjSaIjENSt8__detail9_IdentityESt8equal_toIjESt4hashIjENS1_18_Mod_range_hashingENS1_20_Default_ranged_hashENS1_20_Prime_rehash_policyENS1_17_Hashtable_traitsILb0ELb1ELb1EEEE9_M_rehashEmRKm
000000000014b300 w _ZNSt10_HashtableIjjSaIjENSt8__detail9_IdentityESt8equal_toIjESt4hashIjENS1_18_Mod_range_hashingENS1_20_Default_ranged_hashENS1_20_Prime_rehash_policyENS1_17_Hashtable_traitsILb0ELb1ELb1EEEE21_M_insert_unique_nodeEmmPNS1_10_Hash_nodeIjLb0EEE
000000000014b410 w _ZN7rocksdb15DBImplSecondary21ColumnFamilyCollector5PutCFEjRKNS_5SliceES4_
000000000014b4d0 w _ZN7rocksdb15DBImplSecondary21ColumnFamilyCollector13DeleteRangeCFEjRKNS_5SliceES4_
000000000014b590 w _ZN7rocksdb15DBImplSecondary21ColumnFamilyCollector7MergeCFEjRKNS_5SliceES4_
000000000014b650 w _ZN7rocksdb15DBImplSecondary21ColumnFamilyCollector14SingleDeleteCFEjRKNS_5SliceE
000000000014b710 w _ZN7rocksdb15DBImplSecondary21ColumnFamilyCollector14PutBlobIndexCFEjRKNS_5SliceES4_
000000000014b7d0 w _ZN7rocksdb15DBImplSecondary21ColumnFamilyCollector8DeleteCFEjRKNS_5SliceE
000000000014b890 t _ZN7rocksdb10RecordTickEPNS_10StatisticsEjm.part.20
000000000014b8a0 t _ZN7rocksdb11WriteThread6Writer21ShouldWriteToMemtableEv.part.35
000000000014b8c0 t _ZN7rocksdb6DBImpl25MemTableInsertStatusCheckERKNS_6StatusE.part.48
000000000014b910 t _ZN7rocksdb13PerfStepTimer4StopEv.part.23
000000000014b970 T _ZN7rocksdb6DBImpl37SetRecoverableStatePreReleaseCallbackEPNS_18PreReleaseCallbackE
000000000014b9a0 T _ZN7rocksdb6DBImpl24WriteStatusCheckOnLockedERKNS_6StatusE
000000000014ba00 T _ZN7rocksdb6DBImpl16WriteStatusCheckERKNS_6StatusE
000000000014ba70 T _ZN7rocksdb6DBImpl22UnorderedWriteMemtableERKNS_12WriteOptionsEPNS_10WriteBatchEPNS_13WriteCallbackEmmm
000000000014bfe0 T _ZN7rocksdb6DBImpl13IOStatusCheckERKNS_8IOStatusE
000000000014c050 T _ZN7rocksdb6DBImpl25MemTableInsertStatusCheckERKNS_6StatusE
000000000014c070 T _ZN7rocksdb6DBImpl10MergeBatchERKNS_11WriteThread10WriteGroupEPNS_10WriteBatchEPmPS6_
000000000014c1c0 T _ZN7rocksdb6DBImpl10WriteToWALERKNS_10WriteBatchEPNS_3log6WriterEPmS7_
000000000014c2f0 T _ZN7rocksdb6DBImpl20AssignAtomicFlushSeqERKNS_10autovectorIPNS_16ColumnFamilyDataELm8EEE
000000000014c380 T _ZNK7rocksdb6DBImpl18GetMaxTotalWalSizeEv
000000000014c3c0 T _ZN7rocksdb6DBImpl10DelayWriteEmRKNS_12WriteOptionsE
000000000014ca40 T _ZN7rocksdb6DBImpl29WriteBufferManagerStallWritesEv
000000000014cb40 T _ZN7rocksdb6DBImpl28ThrottleLowPriWritesIfNeededERKNS_12WriteOptionsEPNS_10WriteBatchE
000000000014ce10 T _ZNK7rocksdb6DBImpl26GetWalPreallocateBlockSizeEm
000000000014cea0 T _ZN7rocksdb6DBImpl22NotifyOnMemTableSealedEPNS_16ColumnFamilyDataERKNS_12MemTableInfoE
000000000014d020 T _ZN7rocksdb6DBImpl17MaybeFlushStatsCFEPNS_10autovectorIPNS_16ColumnFamilyDataELm8EEE
000000000014d1b0 T _ZN7rocksdb6DBImpl19TrimMemtableHistoryEPNS0_12WriteContextE
000000000014d590 T _ZN7rocksdb6DBImpl34SelectColumnFamiliesForAtomicFlushEPNS_10autovectorIPNS_16ColumnFamilyDataELm8EEE
000000000014d6e0 T _ZN7rocksdb6DBImpl10WriteToWALERKNS_11WriteThread10WriteGroupEPNS_3log6WriterEPmbbm
000000000014db90 T _ZN7rocksdb6DBImpl21WriteRecoverableStateEv
000000000014de40 T _ZN7rocksdb6DBImpl14SwitchMemtableEPNS_16ColumnFamilyDataEPNS0_12WriteContextE
000000000014f2c0 T _ZN7rocksdb6DBImpl9SwitchWALEPNS0_12WriteContextE
000000000014fb00 T _ZN7rocksdb6DBImpl29HandleWriteBufferManagerFlushEPNS0_12WriteContextE
00000000001502b0 T _ZN7rocksdb6DBImpl15ScheduleFlushesEPNS0_12WriteContextE
00000000001509c0 T _ZN7rocksdb6DBImpl15PreprocessWriteERKNS_12WriteOptionsEPbPNS0_12WriteContextE
0000000000151150 T _ZN7rocksdb6DBImpl18PipelinedWriteImplERKNS_12WriteOptionsEPNS_10WriteBatchEPNS_13WriteCallbackEPmmbS8_
0000000000151fb0 T _ZN7rocksdb6DBImpl20ConcurrentWriteToWALERKNS_11WriteThread10WriteGroupEPmS5_m
0000000000152270 T _ZN7rocksdb6DBImpl16WriteImplWALOnlyEPNS_11WriteThreadERKNS_12WriteOptionsEPNS_10WriteBatchEPNS_13WriteCallbackEPmmSA_mPNS_18PreReleaseCallbackENS0_11AssignOrderENS0_14PublishLastSeqEb
0000000000153130 T _ZN7rocksdb6DBImpl9WriteImplERKNS_12WriteOptionsEPNS_10WriteBatchEPNS_13WriteCallbackEPmmbS8_mPNS_18PreReleaseCallbackE
0000000000154cc0 T _ZN7rocksdb6DBImpl5WriteERKNS_12WriteOptionsEPNS_10WriteBatchE
0000000000154d20 T _ZN7rocksdb6DBImpl17WriteWithCallbackERKNS_12WriteOptionsEPNS_10WriteBatchEPNS_13WriteCallbackE
0000000000154d70 T _ZN7rocksdb2DB3PutERKNS_12WriteOptionsEPNS_18ColumnFamilyHandleERKNS_5SliceES8_
0000000000154fd0 T _ZN7rocksdb6DBImpl3PutERKNS_12WriteOptionsEPNS_18ColumnFamilyHandleERKNS_5SliceES8_
0000000000155010 T _ZN7rocksdb2DB6DeleteERKNS_12WriteOptionsEPNS_18ColumnFamilyHandleERKNS_5SliceE
0000000000155260 T _ZN7rocksdb6DBImpl6DeleteERKNS_12WriteOptionsEPNS_18ColumnFamilyHandleERKNS_5SliceE
00000000001552a0 T _ZN7rocksdb2DB12SingleDeleteERKNS_12WriteOptionsEPNS_18ColumnFamilyHandleERKNS_5SliceE
00000000001553d0 T _ZN7rocksdb6DBImpl12SingleDeleteERKNS_12WriteOptionsEPNS_18ColumnFamilyHandleERKNS_5SliceE
0000000000155410 T _ZN7rocksdb2DB11DeleteRangeERKNS_12WriteOptionsEPNS_18ColumnFamilyHandleERKNS_5SliceES8_
0000000000155550 T _ZN7rocksdb2DB5MergeERKNS_12WriteOptionsEPNS_18ColumnFamilyHandleERKNS_5SliceES8_
0000000000155690 T _ZN7rocksdb6DBImpl5MergeERKNS_12WriteOptionsEPNS_18ColumnFamilyHandleERKNS_5SliceES8_
0000000000155760 w _ZN7rocksdb11RateLimiter13IsRateLimitedENS0_6OpTypeE
0000000000155790 w _ZN7rocksdb11RateLimiter7RequestElNS_3Env10IOPriorityEPNS_10StatisticsENS0_6OpTypeE
0000000000155850 w _ZN7rocksdb18SystemClockWrapper20SleepForMicrosecondsEi
0000000000155900 w _ZN7rocksdb11WriteThread6Writer13CheckCallbackEPNS_2DBE
0000000000155980 w _ZN7rocksdb11WriteThread6Writer11FinalStatusEv
0000000000155a10 w _ZN7rocksdb16ColumnFamilyData7IsEmptyEv
0000000000155a50 w _ZN7rocksdb13InternalStats10AddDBStatsENS0_19InternalDBStatsTypeEmb
0000000000155a70 w _ZN7rocksdb6DBImpl20WaitForPendingWritesEv
0000000000155ba0 w _ZN7rocksdb10autovectorIPNS_16ColumnFamilyDataELm8EE9push_backERKS2_
0000000000155c10 t _ZSt25__unguarded_linear_insertIN9__gnu_cxx17__normal_iteratorIPNSt7__cxx1112basic_stringIcSt11char_traitsIcESaIcEEESt6vectorIS7_SaIS7_EEEENS0_5__ops14_Val_less_iterEEvT_T0_.isra.43
0000000000155f00 t _ZSt16__introsort_loopIN9__gnu_cxx17__normal_iteratorIPNSt7__cxx1112basic_stringIcSt11char_traitsIcESaIcEEESt6vectorIS7_SaIS7_EEEElNS0_5__ops15_Iter_less_iterEEvT_SF_T0_T1_.isra.49
00000000001564f0 T _ZN7rocksdb17DumpDBFileSummaryERKNS_18ImmutableDBOptionsERKNSt7__cxx1112basic_stringIcSt11char_traitsIcESaIcEEESA_
0000000000157bc0 t _ZSt25__unguarded_linear_insertIN9__gnu_cxx17__normal_iteratorIPSt4pairIPvPFvS3_EESt6vectorIS6_SaIS6_EEEENS0_5__ops14_Val_less_iterEEvT_T0_.isra.191
0000000000157c00 t _ZNSt7__cxx1112basic_stringIcSt11char_traitsIcESaIcEE12_M_constructIPKcEEvT_S8_St20forward_iterator_tag.isra.156
0000000000157cd0 T _ZN7rocksdb6DBIter11GetPropertyENSt7__cxx1112basic_stringIcSt11char_traitsIcESaIcEEEPS6_
0000000000158070 t _ZN7rocksdb13PerfStepTimer4StopEv.part.24
00000000001580d0 t _ZN7rocksdb6DBIter26TooManyInternalKeysSkippedEb.part.43
00000000001581a0 T _ZN7rocksdb6DBIter20SetBlobValueIfNeededERKNS_5SliceES3_
0000000000158440 T _ZN7rocksdb6DBIter5MergeEPKNS_5SliceERS2_
0000000000158600 T _ZN7rocksdb6DBIter26TooManyInternalKeysSkippedEb
0000000000158630 T _ZN7rocksdb6DBIter9IsVisibleEmRKNS_5SliceEPb
0000000000158700 T _ZN7rocksdb6DBIter23SetSavedKeyToSeekTargetERKNS_5SliceE
0000000000158a50 T _ZN7rocksdb6DBIter30SetSavedKeyToSeekForPrevTargetERKNS_5SliceE
0000000000158e80 T _ZN7rocksdb6DBIter8ParseKeyEPNS_17ParsedInternalKeyE
0000000000159310 T _ZN7rocksdb6DBIter16ReverseToForwardEv
00000000001596f0 T _ZN7rocksdb6DBIter25FindUserKeyBeforeSavedKeyEv
0000000000159c40 T _ZN7rocksdb6DBIter17ReverseToBackwardEv
0000000000159f30 T _ZN7rocksdb6DBIter19MergeValuesNewToOldEv
000000000015ada0 T _ZN7rocksdb6DBIter25FindNextUserEntryInternalEbPKNS_5SliceE
000000000015c0a0 T _ZN7rocksdb6DBIter17FindNextUserEntryEbPKNS_5SliceE
000000000015c230 T _ZN7rocksdb6DBIter31FindValueForCurrentKeyUsingSeekEv
000000000015d1e0 t _ZSt16__introsort_loopIN9__gnu_cxx17__normal_iteratorIPSt4pairIPvPFvS3_EESt6vectorIS6_SaIS6_EEEElNS0_5__ops15_Iter_less_iterEEvT_SE_T0_T1_.isra.253
000000000015d3a0 T _ZN7rocksdb6DBIterC1EPNS_3EnvERKNS_11ReadOptionsERKNS_16ImmutableOptionsERKNS_16MutableCFOptionsEPKNS_10ComparatorEPNS_20InternalIteratorBaseINS_5SliceEEEPKNS_7VersionEmbmPNS_12ReadCallbackEPNS_6DBImplEPNS_16ColumnFamilyDataEb
000000000015dbd0 T _ZN7rocksdb13NewDBIteratorEPNS_3EnvERKNS_11ReadOptionsERKNS_16ImmutableOptionsERKNS_16MutableCFOptionsEPKNS_10ComparatorEPNS_20InternalIteratorBaseINS_5SliceEEEPKNS_7VersionERKmmPNS_12ReadCallbackEPNS_6DBImplEPNS_16ColumnFamilyDataEb
000000000015dc80 T _ZN7rocksdb6DBIter4NextEv
000000000015e0e0 T _ZN7rocksdb6DBIter4SeekERKNS_5SliceE
000000000015ed30 T _ZN7rocksdb6DBIter11SeekToFirstEv
000000000015f660 T _ZN7rocksdb6DBIter22FindValueForCurrentKeyEv
0000000000160940 T _ZN7rocksdb6DBIter12PrevInternalEPKNS_5SliceE
0000000000160ca0 T _ZN7rocksdb6DBIter4PrevEv
0000000000161060 T _ZN7rocksdb6DBIter11SeekForPrevERKNS_5SliceE
0000000000161c90 T _ZN7rocksdb6DBIter10SeekToLastEv
0000000000162400 w _ZNK7rocksdb6DBIter5ValidEv
0000000000162410 w _ZN7rocksdb20InternalIteratorBaseINS_5SliceEE12PrepareValueEv
0000000000162420 w _ZN7rocksdb20InternalIteratorBaseINS_5SliceEE20MayBeOutOfLowerBoundEv
0000000000162430 w _ZN7rocksdb20InternalIteratorBaseINS_5SliceEE11GetPropertyENSt7__cxx1112basic_stringIcSt11char_traitsIcESaIcEEEPS8_
00000000001624a0 w _ZN7rocksdb8Iterator7RefreshEv
0000000000162520 w _ZNK7rocksdb6DBIter6statusEv
00000000001625b0 w _ZNK7rocksdb6DBIter3keyEv
00000000001625f0 w _ZNK7rocksdb6DBIter9timestampEv
0000000000162650 w _ZNK7rocksdb6DBIter5valueEv
00000000001626d0 w _ZNK7rocksdb25InternalKeySliceTransform9TransformERKNS_5SliceE
00000000001628b0 w _ZN7rocksdb7IterKey14SetInternalKeyERKNS_5SliceES3_mNS_9ValueTypeEPS2_
00000000001629e0 w _ZNSt6vectorISt10unique_ptrINSt7__cxx1112basic_stringIcSt11char_traitsIcESaIcEEESt14default_deleteIS6_EESaIS9_EE17_M_realloc_insertIJPS6_EEEvN9__gnu_cxx17__normal_iteratorIPS9_SB_EEDpOT_
0000000000162bb0 w _ZNSt6vectorISt10unique_ptrINSt7__cxx1112basic_stringIcSt11char_traitsIcESaIcEEESt14default_deleteIS6_EESaIS9_EE12emplace_backIJPS6_EEEvDpOT_
0000000000162be0 w _ZNSt8_Rb_treeImmSt9_IdentityImESt4lessImESaImEE8_M_eraseEPSt13_Rb_tree_nodeImE
0000000000162c30 w _ZNSt8_Rb_treeIPN7rocksdb25TruncatedRangeDelIteratorES2_St9_IdentityIS2_ENS0_16SeqMaxComparatorESaIS2_EE8_M_eraseEPSt13_Rb_tree_nodeIS2_E
0000000000162c80 w _ZN7rocksdb22ReadRangeDelAggregatorD1Ev
0000000000162e20 w _ZN7rocksdb22ReadRangeDelAggregatorD0Ev
0000000000162fc0 w _ZN7rocksdb19IteratorWrapperBaseINS_5SliceEE6UpdateEv
0000000000163000 w _ZN7rocksdb12MergeContext11PushOperandERKNS_5SliceEb
0000000000163290 w _ZSt16__insertion_sortIN9__gnu_cxx17__normal_iteratorIPSt4pairIPvPFvS3_EESt6vectorIS6_SaIS6_EEEENS0_5__ops15_Iter_less_iterEEvT_SE_T0_
0000000000163330 w _ZSt22__move_median_to_firstIN9__gnu_cxx17__normal_iteratorIPSt4pairIPvPFvS3_EESt6vectorIS6_SaIS6_EEEENS0_5__ops15_Iter_less_iterEEvT_SE_SE_SE_T0_
0000000000163400 w _ZSt13__adjust_heapIN9__gnu_cxx17__normal_iteratorIPSt4pairIPvPFvS3_EESt6vectorIS6_SaIS6_EEEElS6_NS0_5__ops15_Iter_less_iterEEvT_T0_SF_T1_T2_
0000000000163590 w _ZN7rocksdb22PinnedIteratorsManager17ReleasePinnedDataEv
0000000000163770 w _ZN7rocksdb6DBIterD0Ev
0000000000164090 w _ZN7rocksdb6DBIterD2Ev
00000000001649a0 T _ZNK7rocksdb21InternalKeyComparator4NameEv
00000000001649c0 t _ZNSt7__cxx1112basic_stringIcSt11char_traitsIcESaIcEE12_M_constructIPKcEEvT_S8_St20forward_iterator_tag.isra.39
0000000000164a90 T _ZNK7rocksdb21InternalKeyComparator21FindShortestSeparatorEPNSt7__cxx1112basic_stringIcSt11char_traitsIcESaIcEEERKNS_5SliceE
0000000000164c00 T _ZNK7rocksdb21InternalKeyComparator18FindShortSuccessorEPNSt7__cxx1112basic_stringIcSt11char_traitsIcESaIcEEE
0000000000164d60 T _ZN7rocksdb12GetEntryTypeENS_9ValueTypeE
0000000000164d80 T _ZN7rocksdb17AppendInternalKeyEPNSt7__cxx1112basic_stringIcSt11char_traitsIcESaIcEEERKNS_17ParsedInternalKeyE
0000000000164e30 T _ZN7rocksdb39AppendInternalKeyWithDifferentTimestampEPNSt7__cxx1112basic_stringIcSt11char_traitsIcESaIcEEERKNS_17ParsedInternalKeyERKNS_5SliceE
0000000000164f00 T _ZN7rocksdb23AppendInternalKeyFooterEPNSt7__cxx1112basic_stringIcSt11char_traitsIcESaIcEEEmNS_9ValueTypeE
0000000000164f70 T _ZN7rocksdb25AppendKeyWithMinTimestampEPNSt7__cxx1112basic_stringIcSt11char_traitsIcESaIcEEERKNS_5SliceEm
0000000000165070 T _ZN7rocksdb25AppendKeyWithMaxTimestampEPNSt7__cxx1112basic_stringIcSt11char_traitsIcESaIcEEERKNS_5SliceEm
0000000000165170 T _ZNK7rocksdb17ParsedInternalKey11DebugStringB5cxx11Ebb
0000000000165340 T _ZNK7rocksdb21InternalKeyComparator7CompareERKNS_17ParsedInternalKeyES3_
00000000001653d0 T _ZN7rocksdb9LookupKeyC1ERKNS_5SliceEmPS2_
00000000001654a0 T _ZN7rocksdb7IterKey13EnlargeBufferEm
0000000000165500 T _ZNK7rocksdb11InternalKey11DebugStringB5cxx11Eb
0000000000165a40 T _ZN7rocksdb12ParseFullKeyERKNS_5SliceEPNS_7FullKeyE
0000000000165e30 w _ZNK7rocksdb21InternalKeyComparator17GetRootComparatorEv
0000000000165e40 w _ZNK7rocksdb21InternalKeyComparator7CompareERKNS_5SliceES3_
0000000000165f10 w _ZNK7rocksdb21InternalKeyComparator13CompareKeySeqERKNS_5SliceES3_
0000000000165ff0 T _ZN7rocksdb12ErrorHandler29RecoverFromRetryableBGIOErrorEv
0000000000166400 T _ZN7rocksdb12ErrorHandler20OverrideNoSpaceErrorERKNS_6StatusEPb
0000000000166540 T _ZN7rocksdb12ErrorHandler18RecoverFromNoSpaceEv
00000000001665f0 T _ZN7rocksdb12ErrorHandler10SetBGErrorERKNS_6StatusENS_21BackgroundErrorReasonE
0000000000166b00 T _ZN7rocksdb12ErrorHandler12ClearBGErrorEv
0000000000166ce0 T _ZN7rocksdb12ErrorHandler18RecoverFromBGErrorEb
0000000000166ea0 T _ZN7rocksdb12ErrorHandler34StartRecoverFromRetryableBGIOErrorERKNS_8IOStatusE
0000000000167070 T _ZN7rocksdb12ErrorHandler10SetBGErrorERKNS_8IOStatusENS_21BackgroundErrorReasonE
0000000000167740 T _ZN7rocksdb12ErrorHandler15EndAutoRecoveryEv
00000000001677a0 T _ZN7rocksdb12ErrorHandler19CancelErrorRecoveryEv
0000000000167810 w _ZNSt6thread11_State_implINS_8_InvokerISt5tupleIJMN7rocksdb12ErrorHandlerEFvvEPS4_EEEEE6_M_runEv
0000000000167830 w _ZNSt6thread11_State_implINS_8_InvokerISt5tupleIJMN7rocksdb12ErrorHandlerEFvvEPS4_EEEEED2Ev
0000000000167840 w _ZNSt6thread11_State_implINS_8_InvokerISt5tupleIJMN7rocksdb12ErrorHandlerEFvvEPS4_EEEEED0Ev
0000000000167870 w _ZNSt8_Rb_treeISt5tupleIJN7rocksdb21BackgroundErrorReasonENS1_6Status4CodeENS3_7SubCodeEbEESt4pairIKS6_NS3_8SeverityEESt10_Select1stISA_ESt4lessIS6_ESaISA_EE8_M_eraseEPSt13_Rb_tree_nodeISA_E
00000000001678c0 w _ZNSt3mapISt5tupleIJN7rocksdb21BackgroundErrorReasonENS1_6Status4CodeENS3_7SubCodeEbEENS3_8SeverityESt4lessIS6_ESaISt4pairIKS6_S7_EEED1Ev
00000000001678d0 w _ZNSt8_Rb_treeISt5tupleIJN7rocksdb21BackgroundErrorReasonENS1_6Status4CodeEbEESt4pairIKS5_NS3_8SeverityEESt10_Select1stIS9_ESt4lessIS5_ESaIS9_EE8_M_eraseEPSt13_Rb_tree_nodeIS9_E
0000000000167920 w _ZNSt3mapISt5tupleIJN7rocksdb21BackgroundErrorReasonENS1_6Status4CodeEbEENS3_8SeverityESt4lessIS5_ESaISt4pairIKS5_S6_EEED1Ev
0000000000167930 w _ZNSt8_Rb_treeISt5tupleIJN7rocksdb21BackgroundErrorReasonEbEESt4pairIKS3_NS1_6Status8SeverityEESt10_Select1stIS8_ESt4lessIS3_ESaIS8_EE8_M_eraseEPSt13_Rb_tree_nodeIS8_E
0000000000167980 w _ZNSt3mapISt5tupleIJN7rocksdb21BackgroundErrorReasonEbEENS1_6Status8SeverityESt4lessIS3_ESaISt4pairIKS3_S5_EEED1Ev
0000000000167990 w _ZNSt8_Rb_treeISt5tupleIJN7rocksdb21BackgroundErrorReasonENS1_6Status4CodeENS3_7SubCodeEbEESt4pairIKS6_NS3_8SeverityEESt10_Select1stISA_ESt4lessIS6_ESaISA_EE24_M_get_insert_unique_posERS8_
0000000000167a90 w _ZNSt8_Rb_treeISt5tupleIJN7rocksdb21BackgroundErrorReasonENS1_6Status4CodeENS3_7SubCodeEbEESt4pairIKS6_NS3_8SeverityEESt10_Select1stISA_ESt4lessIS6_ESaISA_EE29_M_get_insert_hint_unique_posESt23_Rb_tree_const_iteratorISA_ERS8_
0000000000167c50 w _ZNSt8_Rb_treeISt5tupleIJN7rocksdb21BackgroundErrorReasonENS1_6Status4CodeEbEESt4pairIKS5_NS3_8SeverityEESt10_Select1stIS9_ESt4lessIS5_ESaIS9_EE24_M_get_insert_unique_posERS7_
0000000000167d30 w _ZNSt8_Rb_treeISt5tupleIJN7rocksdb21BackgroundErrorReasonENS1_6Status4CodeEbEESt4pairIKS5_NS3_8SeverityEESt10_Select1stIS9_ESt4lessIS5_ESaIS9_EE29_M_get_insert_hint_unique_posESt23_Rb_tree_const_iteratorIS9_ERS7_
0000000000167eb0 w _ZNSt8_Rb_treeISt5tupleIJN7rocksdb21BackgroundErrorReasonEbEESt4pairIKS3_NS1_6Status8SeverityEESt10_Select1stIS8_ESt4lessIS3_ESaIS8_EE24_M_get_insert_unique_posERS5_
0000000000167f70 w _ZNSt8_Rb_treeISt5tupleIJN7rocksdb21BackgroundErrorReasonEbEESt4pairIKS3_NS1_6Status8SeverityEESt10_Select1stIS8_ESt4lessIS3_ESaIS8_EE29_M_get_insert_hint_unique_posESt23_Rb_tree_const_iteratorIS8_ERS5_
00000000001680a0 t _ZNSt7__cxx1112basic_stringIcSt11char_traitsIcESaIcEE12_M_constructIPKcEEvT_S8_St20forward_iterator_tag.isra.90
0000000000168170 T _ZN7rocksdb12EventHelpers17AppendCurrentTimeEPNS_10JSONWriterE
0000000000168380 T _ZN7rocksdb12EventHelpers30NotifyTableFileCreationStartedERKSt6vectorISt10shared_ptrINS_13EventListenerEESaIS4_EERKNSt7__cxx1112basic_stringIcSt11char_traitsIcESaIcEEESG_SG_iNS_23TableFileCreationReasonE
0000000000168530 T _ZN7rocksdb12EventHelpers23NotifyOnBackgroundErrorERKSt6vectorISt10shared_ptrINS_13EventListenerEESaIS4_EENS_21BackgroundErrorReasonEPNS_6StatusEPNS_17InstrumentedMutexEPb
00000000001686e0 T _ZN7rocksdb12EventHelpers30NotifyOnErrorRecoveryCompletedERKSt6vectorISt10shared_ptrINS_13EventListenerEESaIS4_EENS_6StatusEPNS_17InstrumentedMutexE
0000000000168820 T _ZN7rocksdb12EventHelpers29LogAndNotifyTableFileDeletionEPNS_11EventLoggerEimRKNSt7__cxx1112basic_stringIcSt11char_traitsIcESaIcEEERKNS_6StatusESA_RKSt6vectorISt10shared_ptrINS_13EventListenerEESaISH_EE
0000000000169700 T _ZN7rocksdb13EventListener16CreateFromStringERKNS_13ConfigOptionsERKNSt7__cxx1112basic_stringIcSt11char_traitsIcESaIcEEEPSt10shared_ptrIS0_E
000000000016a3e0 T _ZN7rocksdb12EventHelpers37LogAndNotifyTableFileCreationFinishedEPNS_11EventLoggerERKSt6vectorISt10shared_ptrINS_13EventListenerEESaIS6_EERKNSt7__cxx1112basic_stringIcSt11char_traitsIcESaIcEEESI_SI_iRKNS_14FileDescriptorEmRKNS_15TablePropertiesENS_23TableFileCreationReasonERKNS_6StatusESI_SI_
000000000016d6a0 w _ZN7rocksdb13EventListener20OnErrorRecoveryBeginENS_21BackgroundErrorReasonENS_6StatusEPb
000000000016d6b0 w _ZN7rocksdb13EventListener24OnErrorRecoveryCompletedENS_6StatusE
000000000016d6c0 w _ZNSt15_Sp_counted_ptrIPN7rocksdb13EventListenerELN9__gnu_cxx12_Lock_policyE2EED2Ev
000000000016d6d0 w _ZNSt15_Sp_counted_ptrIPN7rocksdb13EventListenerELN9__gnu_cxx12_Lock_policyE2EE14_M_get_deleterERKSt9type_info
000000000016d6e0 w _ZNSt15_Sp_counted_ptrIPN7rocksdb13EventListenerELN9__gnu_cxx12_Lock_policyE2EED0Ev
000000000016d6f0 w _ZNSt15_Sp_counted_ptrIPN7rocksdb13EventListenerELN9__gnu_cxx12_Lock_policyE2EE10_M_destroyEv
000000000016d700 w _ZN7rocksdb13EventListenerD0Ev
000000000016d7a0 w _ZNSt15_Sp_counted_ptrIPN7rocksdb13EventListenerELN9__gnu_cxx12_Lock_policyE2EE10_M_disposeEv
000000000016d880 w _ZN7rocksdb13EventListenerD1Ev
000000000016d950 w _ZNSt7__cxx1115basic_stringbufIcSt11char_traitsIcESaIcEED1Ev
000000000016d9a0 w _ZNSt7__cxx1115basic_stringbufIcSt11char_traitsIcESaIcEED0Ev
000000000016d9f0 w _ZN7rocksdb21TableFileCreationInfoD1Ev
000000000016dbd0 t _ZN9__gnu_cxx5__ops15_Iter_comp_iterIZN7rocksdb27ExternalSstFileIngestionJob7PrepareERKSt6vectorINSt7__cxx1112basic_stringIcSt11char_traitsIcESaIcEEESaISA_EESE_SE_mPNS2_12SuperVersionEEUlPKNS2_16IngestedFileInfoESJ_E_EclINS2_10autovectorISJ_Lm8EE13iterator_implISO_SJ_EESQ_EEbT_T0_
000000000016dc50 t _ZN7rocksdb27ExternalSstFileIngestionJob22IngestedFileFitInLevelEPKNS_16IngestedFileInfoEi.part.51
000000000016dd00 t _ZSt13__adjust_heapIN7rocksdb10autovectorIPKNS0_16IngestedFileInfoELm8EE13iterator_implIS5_S4_EElS4_N9__gnu_cxx5__ops15_Iter_comp_iterIZNS0_27ExternalSstFileIngestionJob7PrepareERKSt6vectorINSt7__cxx1112basic_stringIcSt11char_traitsIcESaIcEEESaISI_EESM_SM_mPNS0_12SuperVersionEEUlS4_S4_E_EEEvT_T0_SS_T1_T2_
000000000016e0d0 t _ZSt25__unguarded_linear_insertIN7rocksdb10autovectorIPKNS0_16IngestedFileInfoELm8EE13iterator_implIS5_S4_EEN9__gnu_cxx5__ops14_Val_comp_iterIZNS0_27ExternalSstFileIngestionJob7PrepareERKSt6vectorINSt7__cxx1112basic_stringIcSt11char_traitsIcESaIcEEESaISI_EESM_SM_mPNS0_12SuperVersionEEUlS4_S4_E_EEEvT_T0_
000000000016e210 t _ZSt16__insertion_sortIN7rocksdb10autovectorIPKNS0_16IngestedFileInfoELm8EE13iterator_implIS5_S4_EEN9__gnu_cxx5__ops15_Iter_comp_iterIZNS0_27ExternalSstFileIngestionJob7PrepareERKSt6vectorINSt7__cxx1112basic_stringIcSt11char_traitsIcESaIcEEESaISI_EESM_SM_mPNS0_12SuperVersionEEUlS4_S4_E_EEEvT_SR_T0_
000000000016e3c0 t _ZNSt7__cxx1112basic_stringIcSt11char_traitsIcESaIcEE12_M_constructIPKcEEvT_S8_St20forward_iterator_tag.isra.219
000000000016e490 T _ZN7rocksdb27ExternalSstFileIngestionJob11UpdateStatsEv
000000000016eaf0 T _ZN7rocksdb27ExternalSstFileIngestionJob31CheckLevelForIngestedBehindFileEPNS_16IngestedFileInfoE
000000000016ec70 T _ZN7rocksdb27ExternalSstFileIngestionJob31GenerateChecksumForIngestedFileEPNS_16IngestedFileInfoE
000000000016ef30 T _ZN7rocksdb27ExternalSstFileIngestionJob22IngestedFileFitInLevelEPKNS_16IngestedFileInfoEi
000000000016ef50 T _ZN7rocksdb27ExternalSstFileIngestionJob7CleanupERKNS_6StatusE
000000000016f3f0 T _ZN7rocksdb27ExternalSstFileIngestionJob32AssignGlobalSeqnoForIngestedFileEPNS_16IngestedFileInfoEm
000000000016fb40 T _ZN7rocksdb27ExternalSstFileIngestionJob10NeedsFlushEPbPNS_12SuperVersionE
000000000016fed0 T _ZN7rocksdb27ExternalSstFileIngestionJob19GetIngestedFileInfoERKNSt7__cxx1112basic_stringIcSt11char_traitsIcESaIcEEEPNS_16IngestedFileInfoEPNS_12SuperVersionE
00000000001716d0 t _ZSt16__introsort_loopIN7rocksdb10autovectorIPKNS0_16IngestedFileInfoELm8EE13iterator_implIS5_S4_EElN9__gnu_cxx5__ops15_Iter_comp_iterIZNS0_27ExternalSstFileIngestionJob7PrepareERKSt6vectorINSt7__cxx1112basic_stringIcSt11char_traitsIcESaIcEEESaISI_EESM_SM_mPNS0_12SuperVersionEEUlS4_S4_E_EEEvT_SR_T0_T1_
0000000000171d00 T _ZN7rocksdb27ExternalSstFileIngestionJob7PrepareERKSt6vectorINSt7__cxx1112basic_stringIcSt11char_traitsIcESaIcEEESaIS7_EESB_SB_mPNS_12SuperVersionE
0000000000174390 T _ZN7rocksdb27ExternalSstFileIngestionJob34AssignLevelAndSeqnoForIngestedFileEPNS_12SuperVersionEbNS_15CompactionStyleEmPNS_16IngestedFileInfoEPm
00000000001748a0 T _ZN7rocksdb27ExternalSstFileIngestionJob3RunEv
00000000001753c0 w _ZNK7rocksdb32FragmentedRangeTombstoneIterator5valueEv
00000000001753d0 w _ZN7rocksdb11TableReader25NewRangeTombstoneIteratorERKNS_11ReadOptionsE
00000000001753e0 w _ZNK7rocksdb32FragmentedRangeTombstoneIterator3keyEv
00000000001754b0 w _ZN7rocksdb21FSWritableFileWrapper4SyncERKNS_9IOOptionsEPNS_14IODebugContextE
00000000001755a0 w _ZN7rocksdb11InternalKeyC2ERKNS_5SliceEmNS_9ValueTypeE
0000000000175630 w _ZN7rocksdb16ParseInternalKeyERKNS_5SliceEPNS_17ParsedInternalKeyEb
0000000000175990 w _ZN7rocksdb16IngestedFileInfoC2EOS0_
0000000000176550 w _ZN7rocksdb27ExternalSstFileIngestionJob16SyncIngestedFileINS_14FSWritableFileEEENS_6StatusEPT_
00000000001766a0 w _ZN7rocksdb16IngestedFileInfoD2Ev
0000000000176750 w _ZN7rocksdb21FSRandomAccessFilePtrC2EOSt10unique_ptrINS_18FSRandomAccessFileESt14default_deleteIS2_EERKSt10shared_ptrINS_8IOTracerEERKNSt7__cxx1112basic_stringIcSt11char_traitsIcESaIcEEE
0000000000176990 w _ZN7rocksdb17FSRandomRWFilePtrC1EOSt10unique_ptrINS_14FSRandomRWFileESt14default_deleteIS2_EESt10shared_ptrINS_8IOTracerEERKNSt7__cxx1112basic_stringIcSt11char_traitsIcESaIcEEE
0000000000176bd0 w _ZN7rocksdb17FSRandomRWFilePtrD1Ev
0000000000176c40 w _ZNKSt8_Rb_treeINSt7__cxx1112basic_stringIcSt11char_traitsIcESaIcEEESt4pairIKS5_S5_ESt10_Select1stIS8_ESt4lessIS5_ESaIS8_EE4findERS7_
0000000000176d60 w _ZNKSt8_Rb_treeINSt7__cxx1112basic_stringIcSt11char_traitsIcESaIcEEESt4pairIKS5_mESt10_Select1stIS8_ESt4lessIS5_ESaIS8_EE4findERS7_
0000000000176e80 w _ZNSt6vectorIPKN7rocksdb16IngestedFileInfoESaIS3_EE17_M_realloc_insertIJRKS3_EEEvN9__gnu_cxx17__normal_iteratorIPS3_S5_EEDpOT_
0000000000176fc0 w _ZNSt6vectorIN7rocksdb5RangeESaIS1_EE17_M_realloc_insertIJNS0_5SliceES5_EEEvN9__gnu_cxx17__normal_iteratorIPS1_S3_EEDpOT_
0000000000177150 w _ZNSt20__uninitialized_copyILb0EE13__uninit_copyIPKSt4pairIiN7rocksdb12FileMetaDataEEPS5_EET0_T_SA_S9_
00000000001773f0 w _ZSt9iter_swapIN7rocksdb10autovectorIPKNS0_16IngestedFileInfoELm8EE13iterator_implIS5_S4_EES7_EvT_T0_
0000000000177460 w _ZNSt20__uninitialized_copyILb0EE13__uninit_copyIPKN7rocksdb16IngestedFileInfoEPS3_EET0_T_S8_S7_
0000000000177ed0 w _ZNSt6vectorIN7rocksdb16IngestedFileInfoESaIS1_EE17_M_realloc_insertIJS1_EEEvN9__gnu_cxx17__normal_iteratorIPS1_S3_EEDpOT_
00000000001780d0 t __tcf_0
0000000000178110 t __tcf_1
0000000000178150 t __tcf_2
0000000000178190 t __tcf_4
00000000001781d0 t __tcf_3
0000000000178210 t _ZNSt7__cxx1112basic_stringIcSt11char_traitsIcESaIcEE12_M_constructIPKcEEvT_S8_St20forward_iterator_tag.isra.237
00000000001782e0 T _ZN7rocksdb20GetFlushReasonStringENS_11FlushReasonE
00000000001783e0 T _ZN7rocksdb8FlushJob18ReportStartedFlushEv
0000000000178440 T _ZN7rocksdb8FlushJob20ReportFlushInputSizeERKNS_10autovectorIPNS_8MemTableELm8EEE
00000000001784c0 T _ZN7rocksdb8FlushJob18RecordFlushIOStatsEv
0000000000178510 T _ZN7rocksdb8FlushJob12PickMemTableEv
0000000000178680 T _ZN7rocksdb8FlushJob6CancelEv
00000000001786b0 T _ZN7rocksdb8FlushJob15MemPurgeDeciderEv
0000000000179660 T _ZN7rocksdb8FlushJobD2Ev
0000000000179950 T _ZN7rocksdb8FlushJobC1ERKNSt7__cxx1112basic_stringIcSt11char_traitsIcESaIcEEEPNS_16ColumnFamilyDataERKNS_18ImmutableDBOptionsERKNS_16MutableCFOptionsEmRKNS_11FileOptionsEPNS_10VersionSetEPNS_17InstrumentedMutexEPSt6atomicIbESt6vectorImSaImEEmPNS_15SnapshotCheckerEPNS_10JobContextEPNS_9LogBufferEPNS_11FSDirectoryES11_NS_15CompressionTypeEPNS_10StatisticsEPNS_11EventLoggerEbbbNS_3Env8PriorityERKSt10shared_ptrINS_8IOTracerEES8_S8_S6_PNS_26BlobFileCompletionCallbackE
000000000017a280 T _ZNK7rocksdb8FlushJob15GetFlushJobInfoEv
000000000017a980 T _ZN7rocksdb8FlushJob8MemPurgeEv
000000000017c350 T _ZN7rocksdb8FlushJob16WriteLevel0TableEv
000000000017f420 T _ZN7rocksdb8FlushJob3RunEPNS_19LogsWithPrepTrackerEPNS_12FileMetaDataEPb
00000000001811a0 w _ZN7rocksdb11MemTableRep18UniqueRandomSampleEmmPSt13unordered_setIPKcSt4hashIS3_ESt8equal_toIS3_ESaIS3_EE
00000000001811b0 w _ZNK7rocksdb28CompactionRangeDelAggregator7IsEmptyEv
0000000000181210 w _ZN7rocksdb18FSDirectoryWrapper5FsyncERKNS_9IOOptionsEPNS_14IODebugContextE
0000000000181300 w _ZN7rocksdb11MergeHelperD1Ev
0000000000181550 w _ZNSt10_HashtableIPKcS1_SaIS1_ENSt8__detail9_IdentityESt8equal_toIS1_ESt4hashIS1_ENS3_18_Mod_range_hashingENS3_20_Default_ranged_hashENS3_20_Prime_rehash_policyENS3_17_Hashtable_traitsILb0ELb1ELb1EEEED1Ev
00000000001815d0 w _ZNSt8_Rb_treeImSt4pairIKmN7rocksdb18RangeDelAggregator9StripeRepEESt10_Select1stIS5_ESt4lessImESaIS5_EE8_M_eraseEPSt13_Rb_tree_nodeIS5_E
0000000000181780 w _ZN7rocksdb28CompactionRangeDelAggregatorD1Ev
0000000000181850 w _ZN7rocksdb28CompactionRangeDelAggregatorD0Ev
0000000000181920 w _ZNSt7__cxx1110_List_baseISt10unique_ptrIN7rocksdb12FlushJobInfoESt14default_deleteIS3_EESaIS6_EE8_M_clearEv
0000000000181ae0 w _ZNSt6vectorISt10unique_ptrIN7rocksdb32FragmentedRangeTombstoneIteratorESt14default_deleteIS2_EESaIS5_EE12emplace_backIJRPS2_EEEvDpOT_
0000000000181b10 w _ZNSt6vectorIPN7rocksdb20InternalIteratorBaseINS0_5SliceEEESaIS4_EE17_M_realloc_insertIJS4_EEEvN9__gnu_cxx17__normal_iteratorIPS4_S6_EEDpOT_
0000000000181c50 w _ZNSt6vectorIPN7rocksdb20InternalIteratorBaseINS0_5SliceEEESaIS4_EE12emplace_backIJS4_EEEvDpOT_
0000000000181c80 w _ZNSt6vectorIPN7rocksdb8MemTableESaIS2_EE17_M_realloc_insertIJRKS2_EEEvN9__gnu_cxx17__normal_iteratorIPS2_S4_EEDpOT_
0000000000181dc0 T _ZN7rocksdb14FlushScheduler12ScheduleWorkEPNS_16ColumnFamilyDataE
0000000000181e20 T _ZN7rocksdb14FlushScheduler20TakeNextColumnFamilyEv
0000000000181e70 T _ZN7rocksdb14FlushScheduler5EmptyEv
0000000000181e80 T _ZN7rocksdb14FlushScheduler5ClearEv
0000000000181eb0 T _ZNK7rocksdb15ForwardIterator5ValidEv
0000000000181ed0 T _ZNK7rocksdb15ForwardIterator3keyEv
0000000000181ee0 T _ZNK7rocksdb15ForwardIterator5valueEv
0000000000181ef0 T _ZNK7rocksdb15ForwardIterator6statusEv
0000000000182000 T _ZNK7rocksdb15ForwardIterator11IsKeyPinnedEv
0000000000182030 T _ZNK7rocksdb15ForwardIterator13IsValuePinnedEv
0000000000182060 t _ZNSt7__cxx1112basic_stringIcSt11char_traitsIcESaIcEE12_M_constructIPKcEEvT_S8_St20forward_iterator_tag.isra.253
0000000000182130 T _ZN7rocksdb15ForwardIterator12PrepareValueEv
00000000001821f0 T _ZNK7rocksdb15ForwardIterator16IsOverUpperBoundERKNS_5SliceE
0000000000182260 T _ZN7rocksdb15ForwardIterator28UpdateChildrenPinnedItersMgrEv
0000000000182380 T _ZN7rocksdb15ForwardIterator17SetPinnedItersMgrEPNS_22PinnedIteratorsManagerE
0000000000182390 T _ZN7rocksdb15ForwardIterator19NeedToSeekImmutableERKNS_5SliceE
0000000000182a20 T _ZN7rocksdb15ForwardIterator22TEST_CheckDeletedItersEPiS1_
0000000000182b30 T _ZN7rocksdb15ForwardIterator15FindFileInRangeERKSt6vectorIPNS_12FileMetaDataESaIS3_EERKNS_5SliceEjj
0000000000182cc0 T _ZN7rocksdb15ForwardIterator11GetPropertyENSt7__cxx1112basic_stringIcSt11char_traitsIcESaIcEEEPS6_
0000000000182e50 T _ZN7rocksdb15ForwardIterator14DeleteIteratorEPNS_20InternalIteratorBaseINS_5SliceEEEb
0000000000182f00 T _ZN7rocksdb15ForwardIterator17DeleteCurrentIterEv
0000000000183010 T _ZN7rocksdb15ForwardIterator24ResetIncompleteIteratorsEv
0000000000183300 T _ZN7rocksdb15ForwardIterator19BuildLevelIteratorsEPKNS_18VersionStorageInfoE
00000000001835e0 T _ZN7rocksdb15ForwardIterator13UpdateCurrentEv
0000000000183900 T _ZN7rocksdb15ForwardIterator9SVCleanupEPNS_6DBImplEPNS_12SuperVersionEb
00000000001848b0 T _ZN7rocksdb15ForwardIterator17DeferredSVCleanupEPv
00000000001848e0 T _ZN7rocksdb15ForwardIterator9SVCleanupEv
00000000001849b0 T _ZN7rocksdb15ForwardIterator7CleanupEb
0000000000184ac0 T _ZN7rocksdb15ForwardIterator16RebuildIteratorsEb
00000000001851d0 T _ZN7rocksdb15ForwardIterator12SeekInternalERKNS_5SliceEb
0000000000186530 T _ZN7rocksdb15ForwardIterator14RenewIteratorsEv
0000000000186e00 T _ZN7rocksdb15ForwardIterator11SeekToFirstEv
0000000000186eb0 T _ZN7rocksdb15ForwardIterator4SeekERKNS_5SliceE
0000000000186f30 T _ZN7rocksdb15ForwardIterator4NextEv
00000000001877c0 T _ZN7rocksdb15ForwardIteratorC1EPNS_6DBImplERKNS_11ReadOptionsEPNS_16ColumnFamilyDataEPNS_12SuperVersionEb
0000000000187be0 T _ZN7rocksdb15ForwardIteratorD2Ev
0000000000187cd0 T _ZN7rocksdb15ForwardIteratorD0Ev
0000000000187cf0 w _ZN7rocksdb22PinnedIteratorsManager23ReleaseInternalIteratorEPv
0000000000187d10 w _ZN7rocksdb22PinnedIteratorsManager28ReleaseArenaInternalIteratorEPv
0000000000187d20 w _ZNK7rocksdb20ForwardLevelIterator5ValidEv
0000000000187d30 w _ZNK7rocksdb20ForwardLevelIterator3keyEv
0000000000187d40 w _ZNK7rocksdb20ForwardLevelIterator5valueEv
0000000000187d50 w _ZN7rocksdb20ForwardLevelIterator12PrepareValueEv
0000000000187d80 w _ZN7rocksdb20ForwardLevelIterator17SetPinnedItersMgrEPNS_22PinnedIteratorsManagerE
0000000000187db0 w _ZNK7rocksdb20InternalIteratorBaseINS_5SliceEE11IsKeyPinnedEv
0000000000187dc0 w _ZNK7rocksdb20InternalIteratorBaseINS_5SliceEE13IsValuePinnedEv
0000000000187dd0 w _ZNK7rocksdb20InternalIteratorBaseINS_5SliceEE8user_keyEv
0000000000187de0 w _ZN7rocksdb20InternalIteratorBaseINS_5SliceEE21UpperBoundCheckResultEv
0000000000187df0 w _ZNK7rocksdb20ForwardLevelIterator6statusEv
0000000000187e90 w _ZN7rocksdb20InternalIteratorBaseINS_5SliceEE16NextAndGetResultEPNS_13IterateResultE
0000000000187ef0 w _ZN7rocksdb20ForwardLevelIterator11SeekToFirstEv
0000000000187f30 w _ZN7rocksdb20ForwardLevelIterator4SeekERKNS_5SliceE
0000000000187f70 w _ZNK7rocksdb20ForwardLevelIterator13IsValuePinnedEv
0000000000187fa0 w _ZNK7rocksdb20ForwardLevelIterator11IsKeyPinnedEv
0000000000187fd0 w _ZN7rocksdb20ForwardLevelIterator10SeekToLastEv
0000000000188090 w _ZN7rocksdb15ForwardIterator11SeekForPrevERKNS_5SliceE
0000000000188160 w _ZN7rocksdb15ForwardIterator10SeekToLastEv
0000000000188230 w _ZN7rocksdb15ForwardIterator4PrevEv
0000000000188300 w _ZN7rocksdb20ForwardLevelIterator4PrevEv
00000000001883c0 w _ZN7rocksdb20ForwardLevelIterator11SeekForPrevERKNS_5SliceE
0000000000188480 w _ZNSt6vectorISt4pairIPvPFvS1_EESaIS4_EE12emplace_backIJRS1_RS3_EEEvDpOT_
0000000000188610 w _ZN7rocksdb20ForwardLevelIteratorD1Ev
00000000001886c0 w _ZN7rocksdb20ForwardLevelIteratorD0Ev
0000000000188780 w _ZNSt6vectorISt10unique_ptrIN7rocksdb25TruncatedRangeDelIteratorESt14default_deleteIS2_EESaIS5_EED1Ev
0000000000188830 w _ZNSt6vectorIPN7rocksdb20InternalIteratorBaseINS0_5SliceEEESaIS4_EE7reserveEm
0000000000188910 w _ZNSt6vectorIPN7rocksdb20InternalIteratorBaseINS0_5SliceEEESaIS4_EEaSERKS6_
0000000000188a60 w _ZN7rocksdb23ForwardRangeDelIteratorD1Ev
0000000000188ae0 w _ZN7rocksdb20ForwardLevelIterator5ResetEv
0000000000188f80 w _ZN7rocksdb20ForwardLevelIterator4NextEv
0000000000189080 w _ZNSt6vectorIPN7rocksdb20InternalIteratorBaseINS0_5SliceEEESaIS4_EE17_M_realloc_insertIJRKS4_EEEvN9__gnu_cxx17__normal_iteratorIPS4_S6_EEDpOT_
00000000001891c0 w _ZSt11__push_heapIN9__gnu_cxx17__normal_iteratorIPPN7rocksdb20InternalIteratorBaseINS2_5SliceEEESt6vectorIS6_SaIS6_EEEElS6_NS0_5__ops14_Iter_comp_valINS2_17MinIterComparatorEEEEvT_T0_SH_T1_RT2_
0000000000189310 w _ZNSt6vectorIPN7rocksdb20ForwardLevelIteratorESaIS2_EE17_M_realloc_insertIJS2_EEEvN9__gnu_cxx17__normal_iteratorIPS2_S4_EEDpOT_
0000000000189450 w _ZNSt6vectorIPN7rocksdb20ForwardLevelIteratorESaIS2_EE12emplace_backIJS2_EEEvDpOT_
0000000000189480 w _ZSt13__adjust_heapIN9__gnu_cxx17__normal_iteratorIPPN7rocksdb20InternalIteratorBaseINS2_5SliceEEESt6vectorIS6_SaIS6_EEEElS6_NS0_5__ops15_Iter_comp_iterINS2_17MinIterComparatorEEEEvT_T0_SH_T1_T2_
0000000000189640 t _ZNSt7__cxx1112basic_stringIcSt11char_traitsIcESaIcEE12_M_constructIPKcEEvT_S8_St20forward_iterator_tag.isra.146
0000000000189710 t _ZSt25__unguarded_linear_insertIN7rocksdb10autovectorIPKNS0_16IngestedFileInfoELm8EE13iterator_implIS5_S4_EEN9__gnu_cxx5__ops14_Val_comp_iterIZNS0_21ImportColumnFamilyJob7PrepareEmPNS0_12SuperVersionEEUlS4_S4_E_EEEvT_T0_
0000000000189940 t _ZSt13__adjust_heapIN7rocksdb10autovectorIPKNS0_16IngestedFileInfoELm8EE13iterator_implIS5_S4_EElS4_N9__gnu_cxx5__ops15_Iter_comp_iterIZNS0_21ImportColumnFamilyJob7PrepareEmPNS0_12SuperVersionEEUlS4_S4_E_EEEvT_T0_SH_T1_T2_
0000000000189e60 t _ZSt16__insertion_sortIN7rocksdb10autovectorIPKNS0_16IngestedFileInfoELm8EE13iterator_implIS5_S4_EEN9__gnu_cxx5__ops15_Iter_comp_iterIZNS0_21ImportColumnFamilyJob7PrepareEmPNS0_12SuperVersionEEUlS4_S4_E_EEEvT_SG_T0_
000000000018a110 t _ZSt16__introsort_loopIN7rocksdb10autovectorIPKNS0_16IngestedFileInfoELm8EE13iterator_implIS5_S4_EElN9__gnu_cxx5__ops15_Iter_comp_iterIZNS0_21ImportColumnFamilyJob7PrepareEmPNS0_12SuperVersionEEUlS4_S4_E_EEEvT_SG_T0_T1_
000000000018aed0 T _ZN7rocksdb21ImportColumnFamilyJob7CleanupERKNS_6StatusE
000000000018b450 T _ZN7rocksdb21ImportColumnFamilyJob3RunEv
000000000018bd70 T _ZN7rocksdb21ImportColumnFamilyJob19GetIngestedFileInfoERKNSt7__cxx1112basic_stringIcSt11char_traitsIcESaIcEEEPNS_16IngestedFileInfoEPNS_12SuperVersionE
000000000018de10 T _ZN7rocksdb21ImportColumnFamilyJob7PrepareEmPNS_12SuperVersionE
00000000001910c0 w _ZNSt6vectorIN7rocksdb16IngestedFileInfoESaIS1_EE17_M_realloc_insertIJRKS1_EEEvN9__gnu_cxx17__normal_iteratorIPS1_S3_EEDpOT_
00000000001932f0 T _ZN7rocksdb13InternalStats27HandleNumRunningCompactionsEPmPNS_6DBImplEPNS_7VersionE
0000000000193300 T _ZN7rocksdb13InternalStats22HandleBackgroundErrorsEPmPNS_6DBImplEPNS_7VersionE
0000000000193310 T _ZN7rocksdb13InternalStats18HandleNumSnapshotsEPmPNS_6DBImplEPNS_7VersionE
0000000000193320 T _ZN7rocksdb13InternalStats24HandleOldestSnapshotTimeEPmPNS_6DBImplEPNS_7VersionE
0000000000193350 T _ZN7rocksdb13InternalStats28HandleIsFileDeletionsEnabledEPmPNS_6DBImplEPNS_7VersionE
0000000000193380 T _ZN7rocksdb13InternalStats15HandleBaseLevelEPmPNS_6DBImplEPNS_7VersionE
00000000001933a0 T _ZN7rocksdb13InternalStats36HandleEstimatePendingCompactionBytesEPmPNS_6DBImplEPNS_7VersionE
00000000001933c0 t _ZNSt14_Function_base13_Base_managerIZN7rocksdb13InternalStats19CacheEntryRoleStats16GetEntryCallbackEvEUlRKNS1_5SliceEPvmPFvS6_S7_EE_E10_M_managerERSt9_Any_dataRKSC_St18_Manager_operation
00000000001933e0 T _ZN7rocksdb13InternalStats23HandleNumRunningFlushesEPmPNS_6DBImplEPNS_7VersionE
0000000000193410 T _ZN7rocksdb13InternalStats21HandleNumFilesAtLevelEPNSt7__cxx1112basic_stringIcSt11char_traitsIcESaIcEEENS_5SliceE
0000000000193550 T _ZN7rocksdb13InternalStats26HandleNumImmutableMemTableEPmPNS_6DBImplEPNS_7VersionE
0000000000193580 T _ZN7rocksdb13InternalStats33HandleNumImmutableMemTableFlushedEPmPNS_6DBImplEPNS_7VersionE
00000000001935b0 T _ZN7rocksdb13InternalStats26HandleMemTableFlushPendingEPmPNS_6DBImplEPNS_7VersionE
00000000001935f0 T _ZN7rocksdb13InternalStats27HandleCurSizeActiveMemTableEPmPNS_6DBImplEPNS_7VersionE
0000000000193610 T _ZN7rocksdb13InternalStats30HandleNumEntriesActiveMemTableEPmPNS_6DBImplEPNS_7VersionE
0000000000193630 T _ZN7rocksdb13InternalStats30HandleNumDeletesActiveMemTableEPmPNS_6DBImplEPNS_7VersionE
0000000000193650 T _ZN7rocksdb13InternalStats31HandleCurrentSuperVersionNumberEPmPNS_6DBImplEPNS_7VersionE
0000000000193670 T _ZN7rocksdb13InternalStats25HandleCurSizeAllMemTablesEPmPNS_6DBImplEPNS_7VersionE
00000000001936b0 T _ZN7rocksdb13InternalStats22HandleSizeAllMemTablesEPmPNS_6DBImplEPNS_7VersionE
00000000001936f0 T _ZN7rocksdb13InternalStats28HandleNumEntriesImmMemTablesEPmPNS_6DBImplEPNS_7VersionE
0000000000193720 T _ZN7rocksdb13InternalStats28HandleNumDeletesImmMemTablesEPmPNS_6DBImplEPNS_7VersionE
0000000000193750 T _ZN7rocksdb13InternalStats21HandleEstimateNumKeysEPmPNS_6DBImplEPNS_7VersionE
00000000001937f0 T _ZN7rocksdb13InternalStats21HandleNumLiveVersionsEPmPNS_6DBImplEPNS_7VersionE
0000000000193820 T _ZN7rocksdb13InternalStats23HandleTotalSstFilesSizeEPmPNS_6DBImplEPNS_7VersionE
0000000000193850 T _ZN7rocksdb13InternalStats22HandleLiveSstFilesSizeEPmPNS_6DBImplEPNS_7VersionE
0000000000193880 T _ZN7rocksdb13InternalStats29HandleEstimateTableReadersMemEPmPNS_6DBImplEPNS_7VersionE
00000000001938b0 T _ZN7rocksdb13InternalStats26HandleEstimateLiveDataSizeEPmPNS_6DBImplEPNS_7VersionE
00000000001938e0 T _ZN7rocksdb13InternalStats24HandleMinLogNumberToKeepEPmPNS_6DBImplEPNS_7VersionE
0000000000193910 T _ZN7rocksdb13InternalStats32HandleMinObsoleteSstNumberToKeepEPmPNS_6DBImplEPNS_7VersionE
0000000000193940 T _ZN7rocksdb13InternalStats28HandleActualDelayedWriteRateEPmPNS_6DBImplEPNS_7VersionE
0000000000193970 T _ZN7rocksdb13InternalStats20HandleIsWriteStoppedEPmPNS_6DBImplEPNS_7VersionE
00000000001939a0 t _ZNSt8__detail16_Hashtable_allocISaINS_10_Hash_nodeISt4pairIKPFvRKN7rocksdb5SliceEPvENS3_14CacheEntryRoleEELb0EEEEE19_M_allocate_bucketsEm.isra.331
00000000001939f0 t _ZNSt17_Function_handlerIFvRKN7rocksdb5SliceEPvmPFvS3_S4_EEZNS0_13InternalStats19CacheEntryRoleStats16GetEntryCallbackEvEUlS3_S4_mS6_E_E9_M_invokeERKSt9_Any_dataS3_OS4_OmOS6_
0000000000193a90 T _ZN7rocksdb13InternalStats23HandleCompactionPendingEPmPNS_6DBImplEPNS_7VersionE
0000000000193af0 T _ZN7rocksdb13InternalStats28HandleOldestSnapshotSequenceEPmPNS_6DBImplEPNS_7VersionE
0000000000193b50 t _ZNSt7__cxx1112basic_stringIcSt11char_traitsIcESaIcEE12_M_constructIPKcEEvT_S8_St20forward_iterator_tag.isra.219
0000000000193c20 t _ZNSt7__cxx1112basic_stringIcSt11char_traitsIcESaIcEEC2EPKcRKS3_.isra.221
0000000000193c70 T _ZN7rocksdb13InternalStats16HandleLevelStatsEPNSt7__cxx1112basic_stringIcSt11char_traitsIcESaIcEEENS_5SliceE
0000000000193e90 T _ZN7rocksdb13InternalStats14HandleSsTablesEPNSt7__cxx1112basic_stringIcSt11char_traitsIcESaIcEEENS_5SliceE
0000000000193fc0 T _ZN7rocksdb13InternalStats19CacheEntryRoleStats16GetEntryCallbackEv
0000000000193fe0 T _ZN7rocksdb13InternalStats19CacheEntryRoleStats13EndCollectionEPNS_5CacheEPNS_11SystemClockEm
0000000000193ff0 T _ZN7rocksdb13InternalStats19CacheEntryRoleStats17SkippedCollectionEv
0000000000194000 T _ZNK7rocksdb13InternalStats19CacheEntryRoleStats21GetLastDurationMicrosEv
0000000000194030 T _ZN7rocksdb13InternalStats17GetStringPropertyERKNS_14DBPropertyInfoERKNS_5SliceEPNSt7__cxx1112basic_stringIcSt11char_traitsIcESaIcEEE
00000000001940b0 T _ZN7rocksdb13InternalStats14GetMapPropertyERKNS_14DBPropertyInfoERKNS_5SliceEPSt3mapINSt7__cxx1112basic_stringIcSt11char_traitsIcESaIcEEESD_St4lessISD_ESaISt4pairIKSD_SD_EEE
0000000000194130 T _ZN7rocksdb13InternalStats14GetIntPropertyERKNS_14DBPropertyInfoEPmPNS_6DBImplE
0000000000194180 T _ZN7rocksdb13InternalStats24GetIntPropertyOutOfMutexERKNS_14DBPropertyInfoEPNS_7VersionEPm
00000000001941b0 T _ZN7rocksdb13InternalStats21GetBlockCacheForStatsEPPNS_5CacheE
0000000000194270 T _ZN7rocksdb13InternalStats24HandleBlockCacheCapacityEPmPNS_6DBImplEPNS_7VersionE
00000000001942d0 T _ZN7rocksdb13InternalStats21HandleBlockCacheUsageEPmPNS_6DBImplEPNS_7VersionE
0000000000194330 T _ZN7rocksdb13InternalStats27HandleBlockCachePinnedUsageEPmPNS_6DBImplEPNS_7VersionE
0000000000194390 T _ZN7rocksdb13InternalStats11DumpDBStatsEPNSt7__cxx1112basic_stringIcSt11char_traitsIcESaIcEEE
0000000000194f00 T _ZN7rocksdb13InternalStats13HandleDBStatsEPNSt7__cxx1112basic_stringIcSt11char_traitsIcESaIcEEENS_5SliceE
0000000000194f10 T _ZN7rocksdb13InternalStats35HandleLiveSstFilesSizeAtTemperatureEPNSt7__cxx1112basic_stringIcSt11char_traitsIcESaIcEEENS_5SliceE
0000000000195040 T _ZN7rocksdb13InternalStats35HandleCompressionRatioAtLevelPrefixEPNSt7__cxx1112basic_stringIcSt11char_traitsIcESaIcEEENS_5SliceE
0000000000195120 T _ZN7rocksdb13InternalStats27HandleEstimateOldestKeyTimeEPmPNS_6DBImplEPNS_7VersionE
00000000001952e0 T _ZNK7rocksdb13InternalStats19CacheEntryRoleStats8ToStringB5cxx11EPNS_11SystemClockE
0000000000195980 T _ZN7rocksdb13InternalStats19DumpCFFileHistogramEPNSt7__cxx1112basic_stringIcSt11char_traitsIcESaIcEEE
0000000000195e40 T _ZN7rocksdb13InternalStats21HandleCFFileHistogramEPNSt7__cxx1112basic_stringIcSt11char_traitsIcESaIcEEENS_5SliceE
0000000000195e50 t _ZN7rocksdb12_GLOBAL__N_121PrintLevelStatsHeaderEPcmRKNSt7__cxx1112basic_stringIcSt11char_traitsIcESaIcEEES9_.constprop.466
00000000001963a0 t _ZN7rocksdb12_GLOBAL__N_115PrintLevelStatsEPcmRKNSt7__cxx1112basic_stringIcSt11char_traitsIcESaIcEEERKSt3mapINS_13LevelStatTypeEdSt4lessISB_ESaISt4pairIKSB_dEEE.constprop.465
00000000001968b0 T _ZN7rocksdb13InternalStats31HandleAggregatedTablePropertiesEPNSt7__cxx1112basic_stringIcSt11char_traitsIcESaIcEEENS_5SliceE
0000000000196a80 T _ZN7rocksdb13InternalStats38HandleAggregatedTablePropertiesAtLevelEPNSt7__cxx1112basic_stringIcSt11char_traitsIcESaIcEEENS_5SliceE
0000000000196ca0 T _ZN7rocksdb13InternalStats19CacheEntryRoleStats15BeginCollectionEPNS_5CacheEPNS_11SystemClockEm
00000000001972a0 T _ZN7rocksdb13InternalStatsC1EiPNS_11SystemClockEPNS_16ColumnFamilyDataE
00000000001979e0 T _ZN7rocksdb13InternalStats22CollectCacheEntryStatsEb
0000000000197a20 T _ZN7rocksdb13InternalStats27TEST_GetCacheEntryRoleStatsEPNS0_19CacheEntryRoleStatsEb
0000000000197ba0 T _ZN7rocksdb13InternalStats26HandleBlockCacheEntryStatsEPNSt7__cxx1112basic_stringIcSt11char_traitsIcESaIcEEENS_5SliceE
0000000000197e40 t _ZN7rocksdb12_GLOBAL__N_117PrepareLevelStatsEPSt3mapINS_13LevelStatTypeEdSt4lessIS2_ESaISt4pairIKS2_dEEEiidddRKNS_13InternalStats15CompactionStatsE
0000000000198520 T _ZNK7rocksdb13InternalStats19CacheEntryRoleStats5ToMapEPSt3mapINSt7__cxx1112basic_stringIcSt11char_traitsIcESaIcEEES8_St4lessIS8_ESaISt4pairIKS8_S8_EEEPNS_11SystemClockE
0000000000198d80 T _ZN7rocksdb13InternalStats29HandleBlockCacheEntryStatsMapEPSt3mapINSt7__cxx1112basic_stringIcSt11char_traitsIcESaIcEEES7_St4lessIS7_ESaISt4pairIKS7_S7_EEENS_5SliceE
0000000000198ff0 T _ZN7rocksdb13InternalStats22DumpCFMapStatsIOStallsEPSt3mapINSt7__cxx1112basic_stringIcSt11char_traitsIcESaIcEEES7_St4lessIS7_ESaISt4pairIKS7_S7_EEE
0000000000199500 t _ZNSt8_Rb_treeINSt7__cxx1112basic_stringIcSt11char_traitsIcESaIcEEESt4pairIKS5_S5_ESt10_Select1stIS8_ESt4lessIS5_ESaIS8_EE22_M_emplace_hint_uniqueIJRKSt21piecewise_construct_tSt5tupleIJRS7_EESJ_IJEEEEESt17_Rb_tree_iteratorIS8_ESt23_Rb_tree_const_iteratorIS8_EDpOT_.isra.410
0000000000199600 t _ZN7rocksdbL23MapUint64ValuesToStringERKSt3mapINSt7__cxx1112basic_stringIcSt11char_traitsIcESaIcEEEmSt4lessIS6_ESaISt4pairIKS6_mEEE
0000000000199930 T _ZN7rocksdb13InternalStats34HandleAggregatedTablePropertiesMapEPSt3mapINSt7__cxx1112basic_stringIcSt11char_traitsIcESaIcEEES7_St4lessIS7_ESaISt4pairIKS7_S7_EEENS_5SliceE
0000000000199af0 T _ZN7rocksdb13InternalStats41HandleAggregatedTablePropertiesAtLevelMapEPSt3mapINSt7__cxx1112basic_stringIcSt11char_traitsIcESaIcEEES7_St4lessIS7_ESaISt4pairIKS7_S7_EEENS_5SliceE
0000000000199d00 T _ZN7rocksdb15GetPropertyInfoERKNS_5SliceE
0000000000199e20 t _ZNSt8_Rb_treeIiSt4pairIKiSt3mapIN7rocksdb13LevelStatTypeEdSt4lessIS4_ESaIS0_IKS4_dEEEESt10_Select1stISB_ES5_IiESaISB_EE22_M_emplace_hint_uniqueIJRKSt21piecewise_construct_tSt5tupleIJRS1_EESL_IJEEEEESt17_Rb_tree_iteratorISB_ESt23_Rb_tree_const_iteratorISB_EDpOT_.isra.415
0000000000199ed0 t _ZNSt8_Rb_treeIiSt4pairIKiSt3mapIN7rocksdb13LevelStatTypeEdSt4lessIS4_ESaIS0_IKS4_dEEEESt10_Select1stISB_ES5_IiESaISB_EE22_M_emplace_hint_uniqueIJRKSt21piecewise_construct_tSt5tupleIJOiEESL_IJEEEEESt17_Rb_tree_iteratorISB_ESt23_Rb_tree_const_iteratorISB_EDpOT_.isra.425
0000000000199f80 T _ZN7rocksdb13InternalStats24DumpCFMapStatsByPriorityEPSt3mapIiS1_INS_13LevelStatTypeEdSt4lessIS2_ESaISt4pairIKS2_dEEES3_IiESaIS5_IKiS9_EEE
000000000019a100 T _ZN7rocksdb13InternalStats14DumpCFMapStatsEPKNS_18VersionStorageInfoEPSt3mapIiS4_INS_13LevelStatTypeEdSt4lessIS5_ESaISt4pairIKS5_dEEES6_IiESaIS8_IKiSC_EEEPNS0_15CompactionStatsE
000000000019a8d0 T _ZN7rocksdb13InternalStats14DumpCFMapStatsEPSt3mapINSt7__cxx1112basic_stringIcSt11char_traitsIcESaIcEEES7_St4lessIS7_ESaISt4pairIKS7_S7_EEE
000000000019b150 T _ZN7rocksdb13InternalStats16HandleCFMapStatsEPSt3mapINSt7__cxx1112basic_stringIcSt11char_traitsIcESaIcEEES7_St4lessIS7_ESaISt4pairIKS7_S7_EEENS_5SliceE
000000000019b160 T _ZN7rocksdb13InternalStats26DumpCFStatsNoFileHistogramEPNSt7__cxx1112basic_stringIcSt11char_traitsIcESaIcEEE
000000000019c840 T _ZN7rocksdb13InternalStats28HandleCFStatsNoFileHistogramEPNSt7__cxx1112basic_stringIcSt11char_traitsIcESaIcEEENS_5SliceE
000000000019c850 T _ZN7rocksdb13InternalStats11DumpCFStatsEPNSt7__cxx1112basic_stringIcSt11char_traitsIcESaIcEEE
000000000019c880 T _ZN7rocksdb13InternalStats13HandleCFStatsEPNSt7__cxx1112basic_stringIcSt11char_traitsIcESaIcEEENS_5SliceE
000000000019c8b0 T _ZN7rocksdb13InternalStats11HandleStatsEPNSt7__cxx1112basic_stringIcSt11char_traitsIcESaIcEEENS_5SliceE
000000000019c8f0 w _ZNK7rocksdb20NullCompactionPicker15NeedsCompactionEPKNS_18VersionStorageInfoE
000000000019c900 w _ZNSt19_Sp_counted_deleterIPN7rocksdb16CacheHandleGuardINS0_24CacheEntryStatsCollectorINS0_13InternalStats19CacheEntryRoleStatsEEEEENSt12__shared_ptrIS6_LN9__gnu_cxx12_Lock_policyE2EE8_DeleterISaIS6_EEESD_LSA_2EED2Ev
000000000019c910 w _ZNSt19_Sp_counted_deleterIPN7rocksdb16CacheHandleGuardINS0_24CacheEntryStatsCollectorINS0_13InternalStats19CacheEntryRoleStatsEEEEENSt12__shared_ptrIS6_LN9__gnu_cxx12_Lock_policyE2EE8_DeleterISaIS6_EEESD_LSA_2EE14_M_get_deleterERKSt9type_info
000000000019c920 w _ZNSt19_Sp_counted_deleterIPN7rocksdb16CacheHandleGuardINS0_24CacheEntryStatsCollectorINS0_13InternalStats19CacheEntryRoleStatsEEEEENSt12__shared_ptrIS6_LN9__gnu_cxx12_Lock_policyE2EE8_DeleterISaIS6_EEESD_LSA_2EED0Ev
000000000019c930 w _ZNSt19_Sp_counted_deleterIPN7rocksdb16CacheHandleGuardINS0_24CacheEntryStatsCollectorINS0_13InternalStats19CacheEntryRoleStatsEEEEENSt12__shared_ptrIS6_LN9__gnu_cxx12_Lock_policyE2EE8_DeleterISaIS6_EEESD_LSA_2EE10_M_destroyEv
000000000019c940 w _ZNSt19_Sp_counted_deleterIPN7rocksdb16CacheHandleGuardINS0_24CacheEntryStatsCollectorINS0_13InternalStats19CacheEntryRoleStatsEEEEENSt12__shared_ptrIS6_LN9__gnu_cxx12_Lock_policyE2EE8_DeleterISaIS6_EEESD_LSA_2EE10_M_disposeEv
000000000019c970 w _ZN7rocksdb9LevelStatD2Ev
000000000019c9b0 w _ZNKSt3mapIN7rocksdb13LevelStatTypeENS0_9LevelStatESt4lessIS1_ESaISt4pairIKS1_S2_EEE2atERS6_
000000000019ca10 w _ZNKSt3mapIN7rocksdb13LevelStatTypeEdSt4lessIS1_ESaISt4pairIKS1_dEEE2atERS5_
000000000019ca70 w _ZStplIcSt11char_traitsIcESaIcEENSt7__cxx1112basic_stringIT_T0_T1_EERKS8_SA_
000000000019cae0 w _ZNSt10_HashtableINSt7__cxx1112basic_stringIcSt11char_traitsIcESaIcEEESt4pairIKS5_N7rocksdb14DBPropertyInfoEESaISA_ENSt8__detail10_Select1stESt8equal_toIS5_ESt4hashIS5_ENSC_18_Mod_range_hashingENSC_20_Default_ranged_hashENSC_20_Prime_rehash_policyENSC_17_Hashtable_traitsILb1ELb0ELb1EEEED1Ev
000000000019cb80 w _ZNSt13unordered_mapINSt7__cxx1112basic_stringIcSt11char_traitsIcESaIcEEEN7rocksdb14DBPropertyInfoESt4hashIS5_ESt8equal_toIS5_ESaISt4pairIKS5_S7_EEED1Ev
000000000019cb90 w _ZNSt10_HashtableIPFvRKN7rocksdb5SliceEPvESt4pairIKS6_NS0_14CacheEntryRoleEESaISA_ENSt8__detail10_Select1stESt8equal_toIS6_ESt4hashIS6_ENSC_18_Mod_range_hashingENSC_20_Default_ranged_hashENSC_20_Prime_rehash_policyENSC_17_Hashtable_traitsILb0ELb0ELb1EEEE5clearEv
000000000019cbf0 w _ZNSt10_HashtableIPFvRKN7rocksdb5SliceEPvESt4pairIKS6_NS0_14CacheEntryRoleEESaISA_ENSt8__detail10_Select1stESt8equal_toIS6_ESt4hashIS6_ENSC_18_Mod_range_hashingENSC_20_Default_ranged_hashENSC_20_Prime_rehash_policyENSC_17_Hashtable_traitsILb0ELb0ELb1EEEED2Ev
000000000019cc30 w _ZN7rocksdb13InternalStats19CacheEntryRoleStatsD2Ev
000000000019cc70 w _ZN7rocksdb24CacheEntryStatsCollectorINS_13InternalStats19CacheEntryRoleStatsEE7DeleterERKNS_5SliceEPv
000000000019cce0 w _ZNSt10_HashtableIPFvRKN7rocksdb5SliceEPvESt4pairIKS6_NS0_14CacheEntryRoleEESaISA_ENSt8__detail10_Select1stESt8equal_toIS6_ESt4hashIS6_ENSC_18_Mod_range_hashingENSC_20_Default_ranged_hashENSC_20_Prime_rehash_policyENSC_17_Hashtable_traitsILb0ELb0ELb1EEEE14_M_move_assignEOSN_St17integral_constantIbLb1EE
000000000019cdc0 w _ZNSt8_Rb_treeIN7rocksdb13LevelStatTypeESt4pairIKS1_NS0_9LevelStatEESt10_Select1stIS5_ESt4lessIS1_ESaIS5_EE8_M_eraseEPSt13_Rb_tree_nodeIS5_E
000000000019ce40 w _ZNSt3mapIN7rocksdb13LevelStatTypeENS0_9LevelStatESt4lessIS1_ESaISt4pairIKS1_S2_EEED1Ev
000000000019ce50 w _ZNSt8_Rb_treeIN7rocksdb13LevelStatTypeESt4pairIKS1_dESt10_Select1stIS4_ESt4lessIS1_ESaIS4_EE8_M_eraseEPSt13_Rb_tree_nodeIS4_E
000000000019cea0 w _ZN7rocksdb26MakeSharedCacheHandleGuardINS_24CacheEntryStatsCollectorINS_13InternalStats19CacheEntryRoleStatsEEEEESt10shared_ptrIT_EPNS_5CacheEPNS8_6HandleE
000000000019cfc0 w _ZN7rocksdb24CacheEntryStatsCollectorINS_13InternalStats19CacheEntryRoleStatsEE9GetSharedEPNS_5CacheEPNS_11SystemClockEPSt10shared_ptrIS3_E
000000000019d3a0 w _ZNSt8_Rb_treeIiSt4pairIKiSt3mapIN7rocksdb13LevelStatTypeEdSt4lessIS4_ESaIS0_IKS4_dEEEESt10_Select1stISB_ES5_IiESaISB_EE8_M_eraseEPSt13_Rb_tree_nodeISB_E
000000000019d400 w _ZNSt10_HashtableIPFvRKN7rocksdb5SliceEPvESt4pairIKS6_NS0_14CacheEntryRoleEESaISA_ENSt8__detail10_Select1stESt8equal_toIS6_ESt4hashIS6_ENSC_18_Mod_range_hashingENSC_20_Default_ranged_hashENSC_20_Prime_rehash_policyENSC_17_Hashtable_traitsILb0ELb0ELb1EEEE9_M_assignIZNSN_aSERKSN_EUlPKNSC_10_Hash_nodeISA_Lb0EEEE0_EEvSQ_RKT_
000000000019d5c0 w _ZNSt10_HashtableIPFvRKN7rocksdb5SliceEPvESt4pairIKS6_NS0_14CacheEntryRoleEESaISA_ENSt8__detail10_Select1stESt8equal_toIS6_ESt4hashIS6_ENSC_18_Mod_range_hashingENSC_20_Default_ranged_hashENSC_20_Prime_rehash_policyENSC_17_Hashtable_traitsILb0ELb0ELb1EEEEaSERKSN_
000000000019d770 w _ZN7rocksdb24CacheEntryStatsCollectorINS_13InternalStats19CacheEntryRoleStatsEE12CollectStatsEii
000000000019dae0 w _ZNSt8_Rb_treeINSt7__cxx1112basic_stringIcSt11char_traitsIcESaIcEEESt4pairIKS5_S5_ESt10_Select1stIS8_ESt4lessIS5_ESaIS8_EE14_M_insert_nodeEPSt18_Rb_tree_node_baseSG_PSt13_Rb_tree_nodeIS8_E
000000000019db50 w _ZNSt8_Rb_treeIiSt4pairIKiSt3mapIN7rocksdb13LevelStatTypeEdSt4lessIS4_ESaIS0_IKS4_dEEEESt10_Select1stISB_ES5_IiESaISB_EE14_M_insert_nodeEPSt18_Rb_tree_node_baseSI_PSt13_Rb_tree_nodeISB_E
000000000019dba0 w _ZNSt8_Rb_treeIN7rocksdb13LevelStatTypeESt4pairIKS1_dESt10_Select1stIS4_ESt4lessIS1_ESaIS4_EE7_M_copyINSA_20_Reuse_or_alloc_nodeEEEPSt13_Rb_tree_nodeIS4_EPKSE_PSt18_Rb_tree_node_baseRT_
000000000019de40 w _ZNSt8_Rb_treeIN7rocksdb13LevelStatTypeESt4pairIKS1_dESt10_Select1stIS4_ESt4lessIS1_ESaIS4_EEaSERKSA_
000000000019df80 w _ZNSt8_Rb_treeIN7rocksdb13LevelStatTypeESt4pairIKS1_dESt10_Select1stIS4_ESt4lessIS1_ESaIS4_EE24_M_get_insert_unique_posERS3_
000000000019e010 w _ZNSt8_Rb_treeIN7rocksdb13LevelStatTypeESt4pairIKS1_dESt10_Select1stIS4_ESt4lessIS1_ESaIS4_EE29_M_get_insert_hint_unique_posESt23_Rb_tree_const_iteratorIS4_ERS3_
000000000019e0f0 w _ZNSt3mapIN7rocksdb13LevelStatTypeEdSt4lessIS1_ESaISt4pairIKS1_dEEEixEOS1_
000000000019e1f0 w _ZNSt8_Rb_treeINSt7__cxx1112basic_stringIcSt11char_traitsIcESaIcEEESt4pairIKS5_S5_ESt10_Select1stIS8_ESt4lessIS5_ESaIS8_EE24_M_get_insert_unique_posERS7_
000000000019e380 w _ZNSt8_Rb_treeINSt7__cxx1112basic_stringIcSt11char_traitsIcESaIcEEESt4pairIKS5_S5_ESt10_Select1stIS8_ESt4lessIS5_ESaIS8_EE29_M_get_insert_hint_unique_posESt23_Rb_tree_const_iteratorIS8_ERS7_
000000000019e4d0 w _ZNSt3mapINSt7__cxx1112basic_stringIcSt11char_traitsIcESaIcEEES5_St4lessIS5_ESaISt4pairIKS5_S5_EEEixEOS5_
000000000019e6e0 w _ZNKSt10_HashtableINSt7__cxx1112basic_stringIcSt11char_traitsIcESaIcEEESt4pairIKS5_N7rocksdb14DBPropertyInfoEESaISA_ENSt8__detail10_Select1stESt8equal_toIS5_ESt4hashIS5_ENSC_18_Mod_range_hashingENSC_20_Default_ranged_hashENSC_20_Prime_rehash_policyENSC_17_Hashtable_traitsILb1ELb0ELb1EEEE19_M_find_before_nodeEmRS7_m
000000000019e790 w _ZNSt10_HashtableINSt7__cxx1112basic_stringIcSt11char_traitsIcESaIcEEESt4pairIKS5_N7rocksdb14DBPropertyInfoEESaISA_ENSt8__detail10_Select1stESt8equal_toIS5_ESt4hashIS5_ENSC_18_Mod_range_hashingENSC_20_Default_ranged_hashENSC_20_Prime_rehash_policyENSC_17_Hashtable_traitsILb1ELb0ELb1EEEEC1IPKSA_EET_SR_mRKSH_RKSI_RKSJ_RKSF_RKSD_RKSB_
000000000019eb70 w _ZNSt8_Rb_treeIiSt4pairIKiSt3mapIN7rocksdb13LevelStatTypeEdSt4lessIS4_ESaIS0_IKS4_dEEEESt10_Select1stISB_ES5_IiESaISB_EE24_M_get_insert_unique_posERS1_
000000000019ec00 w _ZNSt8_Rb_treeIiSt4pairIKiSt3mapIN7rocksdb13LevelStatTypeEdSt4lessIS4_ESaIS0_IKS4_dEEEESt10_Select1stISB_ES5_IiESaISB_EE29_M_get_insert_hint_unique_posESt23_Rb_tree_const_iteratorISB_ERS1_
000000000019ece0 w _ZNSt8_Rb_treeIN7rocksdb13LevelStatTypeESt4pairIKS1_NS0_9LevelStatEESt10_Select1stIS5_ESt4lessIS1_ESaIS5_EE24_M_get_insert_unique_posERS3_
000000000019ed70 w _ZNSt8_Rb_treeIN7rocksdb13LevelStatTypeESt4pairIKS1_NS0_9LevelStatEESt10_Select1stIS5_ESt4lessIS1_ESaIS5_EE29_M_get_insert_hint_unique_posESt23_Rb_tree_const_iteratorIS5_ERS3_
000000000019ee50 w _ZNSt3mapIN7rocksdb13LevelStatTypeENS0_9LevelStatESt4lessIS1_ESaISt4pairIKS1_S2_EEEC2ESt16initializer_listIS7_ERKS4_RKS8_
000000000019efd0 T _ZN7rocksdb19LogsWithPrepTracker30MarkLogAsContainingPrepSectionEm
000000000019f1a0 T _ZN7rocksdb19LogsWithPrepTracker35FindMinLogContainingOutstandingPrepEv
000000000019f340 T _ZN7rocksdb19LogsWithPrepTracker33MarkLogAsHavingPrepSectionFlushedEm
000000000019f4b0 w _ZNSt6vectorIN7rocksdb19LogsWithPrepTracker6LogCntESaIS2_EE17_M_realloc_insertIJS2_EEEvN9__gnu_cxx17__normal_iteratorIPS2_S4_EEDpOT_
000000000019f5f0 w _ZNSt10_HashtableImSt4pairIKmmESaIS2_ENSt8__detail10_Select1stESt8equal_toImESt4hashImENS4_18_Mod_range_hashingENS4_20_Default_ranged_hashENS4_20_Prime_rehash_policyENS4_17_Hashtable_traitsILb0ELb0ELb1EEEE5eraseENS4_20_Node_const_iteratorIS2_Lb0ELb0EEE
000000000019f6b0 w _ZNSt10_HashtableImSt4pairIKmmESaIS2_ENSt8__detail10_Select1stESt8equal_toImESt4hashImENS4_18_Mod_range_hashingENS4_20_Default_ranged_hashENS4_20_Prime_rehash_policyENS4_17_Hashtable_traitsILb0ELb0ELb1EEEE9_M_rehashEmRS1_
000000000019f7f0 w _ZNSt10_HashtableImSt4pairIKmmESaIS2_ENSt8__detail10_Select1stESt8equal_toImESt4hashImENS4_18_Mod_range_hashingENS4_20_Default_ranged_hashENS4_20_Prime_rehash_policyENS4_17_Hashtable_traitsILb0ELb0ELb1EEEE21_M_insert_unique_nodeEmmPNS4_10_Hash_nodeIS2_Lb0EEE
000000000019f900 T _ZN7rocksdb3log6ReaderD2Ev
000000000019fb10 T _ZN7rocksdb3log6ReaderD0Ev
000000000019fb30 T _ZN7rocksdb3log6Reader8ReporterD2Ev
000000000019fb40 T _ZN7rocksdb3log6Reader8ReporterD0Ev
000000000019fb50 T _ZN7rocksdb3log6Reader16LastRecordOffsetEv
000000000019fb60 T _ZN7rocksdb3log6Reader13LastRecordEndEv
000000000019fb70 T _ZN7rocksdb3log6Reader17UnmarkEOFInternalEv
000000000019fce0 T _ZN7rocksdb3log6Reader9UnmarkEOFEv
000000000019fd00 T _ZN7rocksdb3log22FragmentBufferedReader9UnmarkEOFEv
000000000019fd20 T _ZN7rocksdb3log6Reader16ReportCorruptionEmPKc
000000000019fdf0 T _ZN7rocksdb3log6Reader10ReportDropEmRKNS_6StatusE
000000000019fe10 T _ZN7rocksdb3log6Reader8ReadMoreEPmPi
000000000019ff80 T _ZN7rocksdb3log6Reader18ReadPhysicalRecordEPNS_5SliceEPm
00000000001a0160 T _ZN7rocksdb3log6Reader10ReadRecordEPNS_5SliceEPNSt7__cxx1112basic_stringIcSt11char_traitsIcESaIcEEENS_15WALRecoveryModeE
00000000001a05c0 T _ZN7rocksdb3log22FragmentBufferedReader11TryReadMoreEPmPi
00000000001a0740 T _ZN7rocksdb3log22FragmentBufferedReader15TryReadFragmentEPNS_5SliceEPmPj
00000000001a09d0 T _ZN7rocksdb3log22FragmentBufferedReader10ReadRecordEPNS_5SliceEPNSt7__cxx1112basic_stringIcSt11char_traitsIcESaIcEEENS_15WALRecoveryModeE
00000000001a0df0 T _ZN7rocksdb3log6ReaderC2ESt10shared_ptrINS_6LoggerEEOSt10unique_ptrINS_20SequentialFileReaderESt14default_deleteIS6_EEPNS1_8ReporterEbm
00000000001a0ec0 w _ZNSt10unique_ptrIN7rocksdb20SequentialFileReaderESt14default_deleteIS1_EED2Ev
00000000001a1030 T _ZN7rocksdb3log6WriterC2EOSt10unique_ptrINS_18WritableFileWriterESt14default_deleteIS3_EEmbb
00000000001a1260 T _ZN7rocksdb3log6WriterD1Ev
00000000001a1560 T _ZN7rocksdb3log6Writer11WriteBufferEv
00000000001a15b0 T _ZN7rocksdb3log6Writer5CloseEv
00000000001a1930 T _ZN7rocksdb3log6Writer18TEST_BufferIsEmptyEv
00000000001a1940 T _ZN7rocksdb3log6Writer18EmitPhysicalRecordENS0_10RecordTypeEPKcm
00000000001a1ae0 T _ZN7rocksdb3log6Writer9AddRecordERKNS_5SliceE
00000000001a1e00 T _ZN7rocksdb15DumpMallocStatsEPNSt7__cxx1112basic_stringIcSt11char_traitsIcESaIcEEE
00000000001a1e10 T _ZN7rocksdb11MemTableRep8AllocateEmPPc
00000000001a1e30 T _ZN7rocksdb11MemTableRep18InsertConcurrentlyEPv
00000000001a1e80 t _ZNK7rocksdb12MergeContext19SetDirectionForwardEv.part.120
00000000001a1ed0 t _ZNSt7__cxx1112basic_stringIcSt11char_traitsIcESaIcEE12_M_constructIPKcEEvT_S8_St20forward_iterator_tag.isra.204
00000000001a1fa0 t _ZSt25__unguarded_linear_insertIN9__gnu_cxx17__normal_iteratorIPSt4pairIPvPFvS3_EESt6vectorIS6_SaIS6_EEEENS0_5__ops14_Val_less_iterEEvT_T0_.isra.253
00000000001a1fe0 t _ZN7rocksdb13PerfStepTimer4StopEv.part.30
00000000001a2040 T _ZN7rocksdb11MemTableRep3GetERKNS_9LookupKeyEPvPFbS4_PKcE
00000000001a2110 T _ZNK7rocksdb8MemTable13KeyComparatorclEPKcRKNS_5SliceE
00000000001a2220 T _ZNK7rocksdb11MemTableRep7UserKeyEPKc
00000000001a2280 T _ZNK7rocksdb8MemTable13KeyComparatorclEPKcS3_
00000000001a23e0 T _ZN7rocksdb24ImmutableMemTableOptionsC1ERKNS_16ImmutableOptionsERKNS_16MutableCFOptionsE
00000000001a2490 T _ZN7rocksdb8MemTable14ShouldFlushNowEv
00000000001a2650 T _ZN7rocksdb8MemTable16UpdateFlushStateEv
00000000001a26a0 T _ZN7rocksdb8MemTable19UpdateOldestKeyTimeEv
00000000001a27b0 T _ZN7rocksdb9EncodeKeyEPNSt7__cxx1112basic_stringIcSt11char_traitsIcESaIcEEERKNS_5SliceE
00000000001a2860 T _ZN7rocksdb8MemTable7GetLockERKNS_5SliceE
00000000001a28c0 T _ZN7rocksdb8MemTable16ApproximateStatsERKNS_5SliceES3_
00000000001a2990 T _ZN7rocksdb8MemTable18VerifyEncodedEntryENS_5SliceERKNS_19ProtectionInfoKVOTSImEE
00000000001a2d00 T _ZN7rocksdb8MemTable12GetFromTableERKNS_9LookupKeyEmbPNS_12ReadCallbackEPbPNSt7__cxx1112basic_stringIcSt11char_traitsIcESaIcEEESD_PNS_6StatusEPNS_12MergeContextEPmS6_S6_
00000000001a2e10 T _ZN7rocksdb8MemTable27CountSuccessiveMergeEntriesERKNS_9LookupKeyE
00000000001a2fb0 T _ZN7rocksdb8MemTable27RefLogContainingPrepSectionEm
00000000001a2fe0 T _ZN7rocksdb8MemTable30GetMinLogContainingPrepSectionEv
00000000001a2ff0 T _ZN7rocksdb8MemTable11NewIteratorERKNS_11ReadOptionsEPNS_5ArenaE
00000000001a31e0 t _ZN7rocksdbL9SaveValueEPvPKc
00000000001a41b0 T _ZN7rocksdb8MemTable22ApproximateMemoryUsageEv
00000000001a44e0 T _ZN7rocksdb8MemTable3AddEmNS_9ValueTypeERKNS_5SliceES4_PKNS_19ProtectionInfoKVOTSImEEbPNS_23MemTablePostProcessInfoEPPv
00000000001a4da0 T _ZN7rocksdb8MemTable6UpdateEmRKNS_5SliceES3_PKNS_19ProtectionInfoKVOTSImEE
00000000001a51b0 T _ZN7rocksdb8MemTable14UpdateCallbackEmRKNS_5SliceES3_PKNS_19ProtectionInfoKVOTSImEE
00000000001a5910 t _ZSt16__introsort_loopIN9__gnu_cxx17__normal_iteratorIPSt4pairIPvPFvS3_EESt6vectorIS6_SaIS6_EEEElNS0_5__ops15_Iter_less_iterEEvT_SE_T0_T1_.isra.344
00000000001a5ad0 T _ZN7rocksdb8MemTable25NewRangeTombstoneIteratorERKNS_11ReadOptionsEm
00000000001a5f60 T _ZN7rocksdb8MemTable3GetERKNS_9LookupKeyEPNSt7__cxx1112basic_stringIcSt11char_traitsIcESaIcEEESA_PNS_6StatusEPNS_12MergeContextEPmSF_RKNS_11ReadOptionsEPNS_12ReadCallbackEPbb
00000000001a64c0 T _ZN7rocksdb8MemTable8MultiGetERKNS_11ReadOptionsEPNS_15MultiGetContext5RangeEPNS_12ReadCallbackE
00000000001a7190 T _ZN7rocksdb8MemTableC1ERKNS_21InternalKeyComparatorERKNS_16ImmutableOptionsERKNS_16MutableCFOptionsEPNS_18WriteBufferManagerEmj
00000000001a7a90 T _ZN7rocksdb8MemTableD2Ev
00000000001a8080 w _ZN7rocksdb11MemTableRep9InsertKeyEPv
00000000001a80a0 w _ZN7rocksdb11MemTableRep14InsertWithHintEPvPS1_
00000000001a80b0 w _ZN7rocksdb11MemTableRep26InsertWithHintConcurrentlyEPvPS1_
00000000001a80c0 w _ZN7rocksdb11MemTableRep21InsertKeyConcurrentlyEPv
00000000001a80e0 w _ZN7rocksdb11MemTableRep12MarkReadOnlyEv
00000000001a80f0 w _ZN7rocksdb11MemTableRep11MarkFlushedEv
00000000001a8100 w _ZN7rocksdb11MemTableRep21ApproximateNumEntriesERKNS_5SliceES3_
00000000001a8110 w _ZN7rocksdb11MemTableRep24GetDynamicPrefixIteratorEPNS_5ArenaE
00000000001a8120 w _ZN7rocksdb18MemTableRepFactory17CreateMemTableRepERKNS_11MemTableRep13KeyComparatorEPNS_9AllocatorEPKNS_14SliceTransformEPNS_6LoggerEj
00000000001a8130 w _ZNK7rocksdb15ConcurrentArena9BlockSizeEv
00000000001a8140 w _ZNK7rocksdb16MemTableIterator5ValidEv
00000000001a8150 w _ZN7rocksdb16MemTableIterator11SeekToFirstEv
00000000001a8190 w _ZN7rocksdb16MemTableIterator10SeekToLastEv
00000000001a81d0 w _ZNK7rocksdb16MemTableIterator6statusEv
00000000001a81f0 w _ZNK7rocksdb16MemTableIterator11IsKeyPinnedEv
00000000001a8200 w _ZNK7rocksdb16MemTableIterator13IsValuePinnedEv
00000000001a8210 w _ZNSt19_Sp_counted_deleterIPN7rocksdb28FragmentedRangeTombstoneListENSt12__shared_ptrIS1_LN9__gnu_cxx12_Lock_policyE2EE8_DeleterISaIS1_EEES8_LS5_2EED1Ev
00000000001a8220 w _ZNSt19_Sp_counted_deleterIPN7rocksdb28FragmentedRangeTombstoneListENSt12__shared_ptrIS1_LN9__gnu_cxx12_Lock_policyE2EE8_DeleterISaIS1_EEES8_LS5_2EE14_M_get_deleterERKSt9type_info
00000000001a8230 w _ZNSt19_Sp_counted_deleterIPN7rocksdb28FragmentedRangeTombstoneListENSt12__shared_ptrIS1_LN9__gnu_cxx12_Lock_policyE2EE8_DeleterISaIS1_EEES8_LS5_2EED0Ev
00000000001a8240 w _ZNSt19_Sp_counted_deleterIPN7rocksdb28FragmentedRangeTombstoneListENSt12__shared_ptrIS1_LN9__gnu_cxx12_Lock_policyE2EE8_DeleterISaIS1_EEES8_LS5_2EE10_M_destroyEv
00000000001a8250 w _ZN7rocksdb16MemTableIterator4PrevEv
00000000001a82b0 w _ZN7rocksdb16MemTableIterator4NextEv
00000000001a8310 w _ZN7rocksdb11MemTableRep17InsertKeyWithHintEPvPS1_
00000000001a8350 w _ZN7rocksdb11MemTableRep29InsertKeyWithHintConcurrentlyEPvPS1_
00000000001a8390 w _ZN7rocksdb8MemTable13KeyComparatorD1Ev
00000000001a84e0 w _ZN7rocksdb16MemTableIteratorD0Ev
00000000001a8680 w _ZN7rocksdb8MemTable13KeyComparatorD0Ev
00000000001a87c0 w _ZN7rocksdb16MemTableIteratorD2Ev
00000000001a8950 w _ZNK7rocksdb11MemTableRep13KeyComparator10decode_keyEPKc
00000000001a89b0 w _ZNK7rocksdb16MemTableIterator3keyEv
00000000001a8a20 w _ZNK7rocksdb16MemTableIterator5valueEv
00000000001a8ac0 w _ZN7rocksdb16MemTableIterator16NextAndGetResultEPNS_13IterateResultE
00000000001a8bf0 w _ZNK7rocksdb25InternalKeySliceTransform8InDomainERKNS_5SliceE
00000000001a8dd0 w _ZN7rocksdb16MemTableIterator4SeekERKNS_5SliceE
00000000001a9200 w _ZN7rocksdb16MemTableIterator11SeekForPrevERKNS_5SliceE
00000000001a99d0 w _ZN7rocksdb22GetLengthPrefixedSliceEPKc
00000000001a9a30 w _ZNSt10_HashtableIN7rocksdb5SliceESt4pairIKS1_PvESaIS5_ENSt8__detail10_Select1stESt8equal_toIS1_ENS0_11SliceHasherENS7_18_Mod_range_hashingENS7_20_Default_ranged_hashENS7_20_Prime_rehash_policyENS7_17_Hashtable_traitsILb1ELb0ELb1EEEED1Ev
00000000001a9ab0 w _ZN7rocksdb19ProtectionInfoKVOTSImE7UpdateSEmm
00000000001a9b20 w _ZNSt10unique_ptrIN7rocksdb12FlushJobInfoESt14default_deleteIS1_EED2Ev
00000000001a9cc0 w _ZNSt11unique_lockIN7rocksdb9SpinMutexEE6unlockEv
00000000001a9cf0 w _ZN7rocksdb18ProtectionInfoKVOTImE7UpdateVERKNS_5SliceES4_
00000000001a9d50 w _ZNSt10_HashtableIN7rocksdb5SliceESt4pairIKS1_PvESaIS5_ENSt8__detail10_Select1stESt8equal_toIS1_ENS0_11SliceHasherENS7_18_Mod_range_hashingENS7_20_Default_ranged_hashENS7_20_Prime_rehash_policyENS7_17_Hashtable_traitsILb1ELb0ELb1EEEE9_M_rehashEmRKm
00000000001a9e90 w _ZNSt10_HashtableIN7rocksdb5SliceESt4pairIKS1_PvESaIS5_ENSt8__detail10_Select1stESt8equal_toIS1_ENS0_11SliceHasherENS7_18_Mod_range_hashingENS7_20_Default_ranged_hashENS7_20_Prime_rehash_policyENS7_17_Hashtable_traitsILb1ELb0ELb1EEEE21_M_insert_unique_nodeEmmPNS7_10_Hash_nodeIS5_Lb1EEE
00000000001a9fb0 w _ZNSt8__detail9_Map_baseIN7rocksdb5SliceESt4pairIKS2_PvESaIS6_ENS_10_Select1stESt8equal_toIS2_ENS1_11SliceHasherENS_18_Mod_range_hashingENS_20_Default_ranged_hashENS_20_Prime_rehash_policyENS_17_Hashtable_traitsILb1ELb0ELb1EEELb1EEixERS4_
00000000001aa0d0 w _ZNSt19_Sp_counted_deleterIPN7rocksdb28FragmentedRangeTombstoneListENSt12__shared_ptrIS1_LN9__gnu_cxx12_Lock_policyE2EE8_DeleterISaIS1_EEES8_LS5_2EE10_M_disposeEv
00000000001aa370 w _ZN7rocksdb28FragmentedRangeTombstoneListD1Ev
00000000001aa610 w _ZN7rocksdb15ConcurrentArenaD1Ev
00000000001aa650 w _ZN7rocksdb15ConcurrentArenaD0Ev
00000000001aa690 w _ZN7rocksdb15ConcurrentArena15AllocateAlignedEmmPNS_6LoggerE
00000000001aab00 w _ZN7rocksdb15ConcurrentArena8AllocateEm
00000000001aafb0 t __tcf_0
00000000001aaff0 t __tcf_1
00000000001ab030 t __tcf_2
00000000001ab070 t __tcf_4
00000000001ab0b0 t __tcf_3
00000000001ab0f0 t _ZNSt14_Function_base13_Base_managerIZN7rocksdb12MemTableList30TryInstallMemtableFlushResultsEPNS1_16ColumnFamilyDataERKNS1_16MutableCFOptionsERKNS1_10autovectorIPNS1_8MemTableELm8EEEPNS1_19LogsWithPrepTrackerEPNS1_10VersionSetEPNS1_17InstrumentedMutexEmPSB_PNS1_11FSDirectoryEPNS1_9LogBufferEPNSt7__cxx114listISt10unique_ptrINS1_12FlushJobInfoESt14default_deleteISS_EESaISV_EEEPNS1_8IOStatusEbEUlRKNS1_6StatusEE_E10_M_managerERSt9_Any_dataRKS16_St18_Manager_operation
00000000001ab170 t _ZSt25__unguarded_linear_insertIN7rocksdb10autovectorIPNS0_8MemTableELm8EE13iterator_implIS4_S3_EEN9__gnu_cxx5__ops14_Val_comp_iterIZNS0_12MemTableList20PickMemtablesToFlushEmPS4_EUlPKS2_SD_E_EEEvT_T0_.isra.291
00000000001ab240 t _ZSt13__adjust_heapIN7rocksdb10autovectorIPNS0_8MemTableELm8EE13iterator_implIS4_S3_EElS3_N9__gnu_cxx5__ops15_Iter_comp_iterIZNS0_12MemTableList20PickMemtablesToFlushEmPS4_EUlPKS2_SD_E_EEEvT_T0_SH_T1_T2_.isra.136
00000000001ab4d0 t _ZSt16__insertion_sortIN7rocksdb10autovectorIPNS0_8MemTableELm8EE13iterator_implIS4_S3_EEN9__gnu_cxx5__ops15_Iter_comp_iterIZNS0_12MemTableList20PickMemtablesToFlushEmPS4_EUlPKS2_SD_E_EEEvT_SG_T0_.isra.372
00000000001ab6b0 t _ZSt16__introsort_loopIN7rocksdb10autovectorIPNS0_8MemTableELm8EE13iterator_implIS4_S3_EElN9__gnu_cxx5__ops15_Iter_comp_iterIZNS0_12MemTableList20PickMemtablesToFlushEmPS4_EUlPKS2_SD_E_EEEvT_SG_T0_T1_
00000000001abc20 T _ZN7rocksdb19MemTableListVersion11AddMemTableEPNS_8MemTableE
00000000001abc70 T _ZN7rocksdb19MemTableListVersionC1EPmil
00000000001abcb0 T _ZN7rocksdb19MemTableListVersion3RefEv
00000000001abcc0 T _ZNK7rocksdb12MemTableList13NumNotFlushedEv
00000000001abcd0 T _ZNK7rocksdb12MemTableList10NumFlushedEv
00000000001abce0 T _ZN7rocksdb19MemTableListVersion8MultiGetERKNS_11ReadOptionsEPNS_15MultiGetContext5RangeEPNS_12ReadCallbackE
00000000001abd70 T _ZN7rocksdb19MemTableListVersion16GetMergeOperandsERKNS_9LookupKeyEPNS_6StatusEPNS_12MergeContextEPmRKNS_11ReadOptionsE
00000000001abe20 T _ZN7rocksdb19MemTableListVersion11GetFromListEPNSt7__cxx114listIPNS_8MemTableESaIS4_EEERKNS_9LookupKeyEPNS1_12basic_stringIcSt11char_traitsIcESaIcEEESG_PNS_6StatusEPNS_12MergeContextEPmSL_RKNS_11ReadOptionsEPNS_12ReadCallbackEPb
00000000001abf40 T _ZN7rocksdb19MemTableListVersion3GetERKNS_9LookupKeyEPNSt7__cxx1112basic_stringIcSt11char_traitsIcESaIcEEESA_PNS_6StatusEPNS_12MergeContextEPmSF_RKNS_11ReadOptionsEPNS_12ReadCallbackEPb
00000000001abf70 T _ZN7rocksdb19MemTableListVersion14GetFromHistoryERKNS_9LookupKeyEPNSt7__cxx1112basic_stringIcSt11char_traitsIcESaIcEEESA_PNS_6StatusEPNS_12MergeContextEPmSF_RKNS_11ReadOptionsEPb
00000000001abfb0 T _ZN7rocksdb19MemTableListVersion26AddRangeTombstoneIteratorsERKNS_11ReadOptionsEPNS_5ArenaEPNS_18RangeDelAggregatorE
00000000001ac0d0 T _ZN7rocksdb19MemTableListVersion12AddIteratorsERKNS_11ReadOptionsEPNS_20MergeIteratorBuilderE
00000000001ac120 T _ZNK7rocksdb19MemTableListVersion18GetTotalNumEntriesEv
00000000001ac160 T _ZN7rocksdb19MemTableListVersion16ApproximateStatsERKNS_5SliceES3_
00000000001ac1d0 T _ZNK7rocksdb19MemTableListVersion18GetTotalNumDeletesEv
00000000001ac210 T _ZNK7rocksdb19MemTableListVersion25GetEarliestSequenceNumberEb
00000000001ac250 T _ZNK7rocksdb19MemTableListVersion35ApproximateMemoryUsageExcludingLastEv
00000000001ac2d0 T _ZN7rocksdb19MemTableListVersion21MemtableLimitExceededEm
00000000001ac320 T _ZNK7rocksdb12MemTableList14IsFlushPendingEv
00000000001ac340 T _ZN7rocksdb12MemTableList21RollbackMemtableFlushERKNS_10autovectorIPNS_8MemTableELm8EEEm
00000000001ac420 T _ZN7rocksdb12MemTableList40ApproximateUnflushedMemTablesMemoryUsageEv
00000000001ac470 T _ZN7rocksdb12MemTableList22ApproximateMemoryUsageEv
00000000001ac480 T _ZNK7rocksdb12MemTableList35ApproximateMemoryUsageExcludingLastEv
00000000001ac490 T _ZNK7rocksdb12MemTableList10HasHistoryEv
00000000001ac4a0 T _ZN7rocksdb12MemTableList41UpdateCachedValuesFromMemTableListVersionEv
00000000001ac4e0 T _ZNK7rocksdb12MemTableList24ApproximateOldestKeyTimeEv
00000000001ac500 T _ZN7rocksdb12MemTableList37PrecomputeMinLogContainingPrepSectionEPKSt13unordered_setIPNS_8MemTableESt4hashIS3_ESt8equal_toIS3_ESaIS3_EE
00000000001ac5f0 T _ZN7rocksdb19MemTableListVersionC1EPmRKS0_
00000000001ac700 T _ZN7rocksdb19MemTableListVersion13UnrefMemTableEPNS_10autovectorIPNS_8MemTableELm8EEES3_
00000000001ac7d0 t _ZN7rocksdb19MemTableListVersion5UnrefEPNS_10autovectorIPNS_8MemTableELm8EEE.part.404
00000000001ac880 T _ZN7rocksdb19MemTableListVersion5UnrefEPNS_10autovectorIPNS_8MemTableELm8EEE
00000000001ac8a0 T _ZN7rocksdb12MemTableList17InstallNewVersionEv
00000000001ac930 T _ZN7rocksdb19MemTableListVersion11TrimHistoryEPNS_10autovectorIPNS_8MemTableELm8EEEm
00000000001ac9c0 T _ZN7rocksdb19MemTableListVersion3AddEPNS_8MemTableEPNS_10autovectorIS2_Lm8EEE
00000000001aca00 T _ZN7rocksdb12MemTableList3AddEPNS_8MemTableEPNS_10autovectorIS2_Lm8EEE
00000000001acad0 T _ZN7rocksdb12MemTableList11TrimHistoryEPNS_10autovectorIPNS_8MemTableELm8EEEm
00000000001acb50 T _ZN7rocksdb19MemTableListVersion6RemoveEPNS_8MemTableEPNS_10autovectorIS2_Lm8EEE
00000000001acc40 T _ZN7rocksdb12MemTableList29RemoveMemTablesOrRestoreFlagsERKNS_6StatusEPNS_16ColumnFamilyDataEmPNS_9LogBufferEPNS_10autovectorIPNS_8MemTableELm8EEEPNS_17InstrumentedMutexE
00000000001aceb0 t _ZNSt17_Function_handlerIFvRKN7rocksdb6StatusEEZNS0_12MemTableList30TryInstallMemtableFlushResultsEPNS0_16ColumnFamilyDataERKNS0_16MutableCFOptionsERKNS0_10autovectorIPNS0_8MemTableELm8EEEPNS0_19LogsWithPrepTrackerEPNS0_10VersionSetEPNS0_17InstrumentedMutexEmPSE_PNS0_11FSDirectoryEPNS0_9LogBufferEPNSt7__cxx114listISt10unique_ptrINS0_12FlushJobInfoESt14default_deleteISV_EESaISY_EEEPNS0_8IOStatusEbEUlS3_E_E9_M_invokeERKSt9_Any_dataS3_
00000000001acee0 T _ZN7rocksdb12MemTableList18RemoveOldMemTablesEmPNS_10autovectorIPNS_8MemTableELm8EEE
00000000001ad190 T _ZN7rocksdb12MemTableList20PickMemtablesToFlushEmPNS_10autovectorIPNS_8MemTableELm8EEE
00000000001ad420 T _ZN7rocksdb19MemTableListVersion12AddIteratorsERKNS_11ReadOptionsEPSt6vectorIPNS_20InternalIteratorBaseINS_5SliceEEESaIS8_EEPNS_5ArenaE
00000000001ad4e0 T _ZN7rocksdb12MemTableList30TryInstallMemtableFlushResultsEPNS_16ColumnFamilyDataERKNS_16MutableCFOptionsERKNS_10autovectorIPNS_8MemTableELm8EEEPNS_19LogsWithPrepTrackerEPNS_10VersionSetEPNS_17InstrumentedMutexEmPS9_PNS_11FSDirectoryEPNS_9LogBufferEPNSt7__cxx114listISt10unique_ptrINS_12FlushJobInfoESt14default_deleteISQ_EESaIST_EEEPNS_8IOStatusEb
00000000001aeb40 T _ZN7rocksdb33InstallMemtableAtomicFlushResultsEPKNS_10autovectorIPNS_12MemTableListELm8EEERKNS0_IPNS_16ColumnFamilyDataELm8EEERKNS0_IPKNS_16MutableCFOptionsELm8EEERKNS0_IPKNS0_IPNS_8MemTableELm8EEELm8EEEPNS_10VersionSetEPNS_19LogsWithPrepTrackerEPNS_17InstrumentedMutexERKNS0_IPNS_12FileMetaDataELm8EEERKNS0_IPNSt7__cxx114listISt10unique_ptrINS_12FlushJobInfoESt14default_deleteIS13_EESaIS16_EEELm8EEEPSJ_PNS_11FSDirectoryEPNS_9LogBufferE
00000000001b05a0 w _ZNSt8functionIFvRKN7rocksdb6StatusEEEC1ERKS5_
00000000001b0610 w _ZNSt7__cxx114listIPN7rocksdb8MemTableESaIS3_EE18_M_assign_dispatchISt20_List_const_iteratorIS3_EEEvT_S9_St12__false_type
00000000001b0770 w _ZNSt6vectorIPN7rocksdb11VersionEditESaIS2_EE17_M_realloc_insertIJS2_EEEvN9__gnu_cxx17__normal_iteratorIPS2_S4_EEDpOT_
00000000001b08b0 t _ZNSt7__cxx1112basic_stringIcSt11char_traitsIcESaIcEE12_M_constructIPKcEEvT_S8_St20forward_iterator_tag.isra.93
00000000001b0980 T _ZN7rocksdb11MergeHelper14TimedFullMergeEPKNS_13MergeOperatorERKNS_5SliceEPS5_RKSt6vectorIS4_SaIS4_EEPNSt7__cxx1112basic_stringIcSt11char_traitsIcESaIcEEEPNS_6LoggerEPNS_10StatisticsEPNS_11SystemClockEPS4_b
00000000001b0d80 T _ZN7rocksdb19MergeOutputIteratorC2EPKNS_11MergeHelperE
00000000001b0e30 T _ZN7rocksdb19MergeOutputIterator11SeekToFirstEv
00000000001b0ee0 T _ZN7rocksdb19MergeOutputIterator4NextEv
00000000001b0f20 T _ZN7rocksdb11MergeHelper11FilterMergeERKNS_5SliceES3_
00000000001b1100 T _ZN7rocksdb11MergeHelperC2EPNS_3EnvEPKNS_10ComparatorEPKNS_13MergeOperatorEPKNS_16CompactionFilterEPNS_6LoggerEbmPKNS_15SnapshotCheckerEiPNS_10StatisticsEPKSt6atomicIbE
00000000001b13a0 T _ZN7rocksdb11MergeHelper10MergeUntilEPNS_20InternalIteratorBaseINS_5SliceEEEPNS_28CompactionRangeDelAggregatorEmbbPNS_7VersionE
00000000001b4850 w _ZNK7rocksdb16CompactionFilter6FilterEiRKNS_5SliceES3_PNSt7__cxx1112basic_stringIcSt11char_traitsIcESaIcEEEPb
00000000001b4860 w _ZN7rocksdb13StopWatchNanoC1EPNS_11SystemClockEb
00000000001b4890 w _ZNSt5dequeINSt7__cxx1112basic_stringIcSt11char_traitsIcESaIcEEESaIS5_EED2Ev
00000000001b4a10 w _ZNSt5dequeINSt7__cxx1112basic_stringIcSt11char_traitsIcESaIcEEESaIS5_EE13emplace_frontIJS5_EEEvDpOT_
00000000001b4cc0 w _ZNSt11_Deque_baseIN7rocksdb5SliceESaIS1_EED2Ev
00000000001b4d30 w _ZNSt5dequeINSt7__cxx1112basic_stringIcSt11char_traitsIcESaIcEEESaIS5_EE8_M_eraseESt15_Deque_iteratorIS5_RS5_PS5_ESB_
00000000001b5910 w _ZNSt11_Deque_baseIN7rocksdb5SliceESaIS1_EE17_M_initialize_mapEm
00000000001b5a70 t _ZNSt14_Function_base13_Base_managerIZN7rocksdb21PeriodicWorkScheduler8RegisterEPNS1_6DBImplEjjEUlvE_E10_M_managerERSt9_Any_dataRKS7_St18_Manager_operation
00000000001b5a90 t _ZNSt14_Function_base13_Base_managerIZN7rocksdb21PeriodicWorkScheduler8RegisterEPNS1_6DBImplEjjEUlvE0_E10_M_managerERSt9_Any_dataRKS7_St18_Manager_operation
00000000001b5ab0 t _ZNSt14_Function_base13_Base_managerIZN7rocksdb21PeriodicWorkScheduler8RegisterEPNS1_6DBImplEjjEUlvE1_E10_M_managerERSt9_Any_dataRKS7_St18_Manager_operation
00000000001b5ad0 t _ZNSt17_Function_handlerIFvvEZN7rocksdb21PeriodicWorkScheduler8RegisterEPNS1_6DBImplEjjEUlvE_E9_M_invokeERKSt9_Any_data
00000000001b5ae0 t _ZNSt17_Function_handlerIFvvEZN7rocksdb21PeriodicWorkScheduler8RegisterEPNS1_6DBImplEjjEUlvE0_E9_M_invokeERKSt9_Any_data
00000000001b5af0 t _ZNSt17_Function_handlerIFvvEZN7rocksdb21PeriodicWorkScheduler8RegisterEPNS1_6DBImplEjjEUlvE1_E9_M_invokeERKSt9_Any_data
00000000001b5b00 t _ZNSt7__cxx1112basic_stringIcSt11char_traitsIcESaIcEE12_M_constructIPKcEEvT_S8_St20forward_iterator_tag.isra.95
00000000001b5bd0 T _ZN7rocksdb21PeriodicWorkScheduler11GetTaskNameEPNS_6DBImplERKNSt7__cxx1112basic_stringIcSt11char_traitsIcESaIcEEE
00000000001b5d60 T _ZN7rocksdb21PeriodicWorkScheduler10UnregisterEPNS_6DBImplE
00000000001b6350 T _ZN7rocksdb21PeriodicWorkSchedulerC2ERKSt10shared_ptrINS_11SystemClockEE
00000000001b6820 T _ZN7rocksdb21PeriodicWorkScheduler7DefaultEv
00000000001b68d0 T _ZN7rocksdb21PeriodicWorkScheduler8RegisterEPNS_6DBImplEjj
00000000001b7d20 w _ZNSt6thread11_State_implINS_8_InvokerISt5tupleIJMN7rocksdb5TimerEFvvEPS4_EEEEE6_M_runEv
00000000001b7d40 w _ZNSt6thread11_State_implINS_8_InvokerISt5tupleIJMN7rocksdb5TimerEFvvEPS4_EEEEED2Ev
00000000001b7d50 w _ZNSt6thread11_State_implINS_8_InvokerISt5tupleIJMN7rocksdb5TimerEFvvEPS4_EEEEED0Ev
00000000001b7d80 w _ZNSt10_HashtableINSt7__cxx1112basic_stringIcSt11char_traitsIcESaIcEEESt4pairIKS5_St10unique_ptrIN7rocksdb5Timer12FunctionInfoESt14default_deleteISB_EEESaISF_ENSt8__detail10_Select1stESt8equal_toIS5_ESt4hashIS5_ENSH_18_Mod_range_hashingENSH_20_Default_ranged_hashENSH_20_Prime_rehash_policyENSH_17_Hashtable_traitsILb1ELb0ELb1EEEE5clearEv
00000000001b7e30 w _ZNSt10_HashtableINSt7__cxx1112basic_stringIcSt11char_traitsIcESaIcEEESt4pairIKS5_St10unique_ptrIN7rocksdb5Timer12FunctionInfoESt14default_deleteISB_EEESaISF_ENSt8__detail10_Select1stESt8equal_toIS5_ESt4hashIS5_ENSH_18_Mod_range_hashingENSH_20_Default_ranged_hashENSH_20_Prime_rehash_policyENSH_17_Hashtable_traitsILb1ELb0ELb1EEEED1Ev
00000000001b7e70 w _ZNSt6vectorIPN7rocksdb5Timer12FunctionInfoESaIS3_EE17_M_realloc_insertIJRKS3_EEEvN9__gnu_cxx17__normal_iteratorIPS3_S5_EEDpOT_
00000000001b7fb0 w _ZNKSt10_HashtableINSt7__cxx1112basic_stringIcSt11char_traitsIcESaIcEEESt4pairIKS5_St10unique_ptrIN7rocksdb5Timer12FunctionInfoESt14default_deleteISB_EEESaISF_ENSt8__detail10_Select1stESt8equal_toIS5_ESt4hashIS5_ENSH_18_Mod_range_hashingENSH_20_Default_ranged_hashENSH_20_Prime_rehash_policyENSH_17_Hashtable_traitsILb1ELb0ELb1EEEE19_M_find_before_nodeEmRS7_m
00000000001b8060 w _ZNSt10_HashtableINSt7__cxx1112basic_stringIcSt11char_traitsIcESaIcEEESt4pairIKS5_St10unique_ptrIN7rocksdb5Timer12FunctionInfoESt14default_deleteISB_EEESaISF_ENSt8__detail10_Select1stESt8equal_toIS5_ESt4hashIS5_ENSH_18_Mod_range_hashingENSH_20_Default_ranged_hashENSH_20_Prime_rehash_policyENSH_17_Hashtable_traitsILb1ELb0ELb1EEEE4findERS7_
00000000001b80c0 w _ZNSt6vectorIPN7rocksdb5Timer12FunctionInfoESaIS3_EE17_M_realloc_insertIJS3_EEEvN9__gnu_cxx17__normal_iteratorIPS3_S5_EEDpOT_
00000000001b8200 w _ZSt13__adjust_heapIN9__gnu_cxx17__normal_iteratorIPPN7rocksdb5Timer12FunctionInfoESt6vectorIS5_SaIS5_EEEElS5_NS0_5__ops15_Iter_comp_iterINS3_12RunTimeOrderEEEEvT_T0_SG_T1_T2_
00000000001b8340 w _ZN7rocksdb5Timer3RunEv
00000000001b8960 w _ZN7rocksdb21PeriodicWorkSchedulerD1Ev
00000000001b8b50 w _ZNSt10_HashtableINSt7__cxx1112basic_stringIcSt11char_traitsIcESaIcEEESt4pairIKS5_St10unique_ptrIN7rocksdb5Timer12FunctionInfoESt14default_deleteISB_EEESaISF_ENSt8__detail10_Select1stESt8equal_toIS5_ESt4hashIS5_ENSH_18_Mod_range_hashingENSH_20_Default_ranged_hashENSH_20_Prime_rehash_policyENSH_17_Hashtable_traitsILb1ELb0ELb1EEEE9_M_rehashEmRKm
00000000001b8c90 w _ZNSt10_HashtableINSt7__cxx1112basic_stringIcSt11char_traitsIcESaIcEEESt4pairIKS5_St10unique_ptrIN7rocksdb5Timer12FunctionInfoESt14default_deleteISB_EEESaISF_ENSt8__detail10_Select1stESt8equal_toIS5_ESt4hashIS5_ENSH_18_Mod_range_hashingENSH_20_Default_ranged_hashENSH_20_Prime_rehash_policyENSH_17_Hashtable_traitsILb1ELb0ELb1EEEE21_M_insert_unique_nodeEmmPNSH_10_Hash_nodeISF_Lb1EEE
00000000001b8e00 w _ZNSt10_HashtableINSt7__cxx1112basic_stringIcSt11char_traitsIcESaIcEEESt4pairIKS5_St10unique_ptrIN7rocksdb5Timer12FunctionInfoESt14default_deleteISB_EEESaISF_ENSt8__detail10_Select1stESt8equal_toIS5_ESt4hashIS5_ENSH_18_Mod_range_hashingENSH_20_Default_ranged_hashENSH_20_Prime_rehash_policyENSH_17_Hashtable_traitsILb1ELb0ELb1EEEE10_M_emplaceIJS6_IS5_SE_EEEES6_INSH_14_Node_iteratorISF_Lb0ELb1EEEbESt17integral_constantIbLb1EEDpOT_
00000000001b8f60 t _ZNK7rocksdb12_GLOBAL__N_128TruncatedRangeDelMergingIter6statusEv
00000000001b8f80 t _ZN7rocksdb12_GLOBAL__N_128TruncatedRangeDelMergingIter4PrevEv
00000000001b8f90 t _ZN7rocksdb12_GLOBAL__N_128TruncatedRangeDelMergingIter4SeekERKNS_5SliceE
00000000001b8fa0 t _ZN7rocksdb12_GLOBAL__N_128TruncatedRangeDelMergingIterD2Ev
00000000001b9030 t _ZSt25__unguarded_linear_insertIN9__gnu_cxx17__normal_iteratorIPSt4pairIPvPFvS3_EESt6vectorIS6_SaIS6_EEEENS0_5__ops14_Val_less_iterEEvT_T0_.isra.218
00000000001b9070 t _ZN7rocksdb12_GLOBAL__N_128TruncatedRangeDelMergingIterD0Ev
00000000001b9100 t _ZNK7rocksdb12_GLOBAL__N_128TruncatedRangeDelMergingIter5valueEv
00000000001b91a0 t _ZNK7rocksdb12_GLOBAL__N_128TruncatedRangeDelMergingIter3keyEv
00000000001b92a0 t _ZNK7rocksdb12_GLOBAL__N_128TruncatedRangeDelMergingIter5ValidEv
00000000001b93e0 T _ZNK7rocksdb25TruncatedRangeDelIterator5ValidEv
00000000001b94c0 t _ZN7rocksdb12_GLOBAL__N_128TruncatedRangeDelMergingIter4NextEv
00000000001b9ef0 T _ZN7rocksdb25TruncatedRangeDelIterator4NextEv
00000000001b9f00 T _ZN7rocksdb25TruncatedRangeDelIterator4PrevEv
00000000001b9f10 T _ZN7rocksdb25TruncatedRangeDelIterator12InternalNextEv
00000000001b9f20 T _ZN7rocksdb25TruncatedRangeDelIterator4SeekERKNS_5SliceE
00000000001ba010 T _ZN7rocksdb25TruncatedRangeDelIterator11SeekForPrevERKNS_5SliceE
00000000001ba100 T _ZN7rocksdb25TruncatedRangeDelIterator11SeekToFirstEv
00000000001ba120 T _ZN7rocksdb25TruncatedRangeDelIterator10SeekToLastEv
00000000001ba140 T _ZN7rocksdb23ForwardRangeDelIteratorC1EPKNS_21InternalKeyComparatorE
00000000001ba200 T _ZN7rocksdb23ReverseRangeDelIteratorC1EPKNS_21InternalKeyComparatorE
00000000001ba2c0 T _ZN7rocksdb25TruncatedRangeDelIteratorC2ESt10unique_ptrINS_32FragmentedRangeTombstoneIteratorESt14default_deleteIS2_EEPKNS_21InternalKeyComparatorEPKNS_11InternalKeyESB_
00000000001bab10 T _ZN7rocksdb23ForwardRangeDelIterator10InvalidateEv
00000000001babb0 T _ZN7rocksdb23ReverseRangeDelIterator10InvalidateEv
00000000001bac50 T _ZN7rocksdb18RangeDelAggregator9StripeRep17IsRangeOverlappedERKNS_5SliceES4_
00000000001bb130 T _ZN7rocksdb22ReadRangeDelAggregator17IsRangeOverlappedERKNS_5SliceES3_
00000000001bb190 T _ZN7rocksdb25TruncatedRangeDelIterator15SplitBySnapshotERKSt6vectorImSaImEE
00000000001bb4f0 T _ZN7rocksdb22ReadRangeDelAggregator13AddTombstonesESt10unique_ptrINS_32FragmentedRangeTombstoneIteratorESt14default_deleteIS2_EEPKNS_11InternalKeyES8_
00000000001bb630 T _ZN7rocksdb28CompactionRangeDelAggregator13AddTombstonesESt10unique_ptrINS_32FragmentedRangeTombstoneIteratorESt14default_deleteIS2_EEPKNS_11InternalKeyES8_
00000000001bbcb0 t _ZN7rocksdb12_GLOBAL__N_128TruncatedRangeDelMergingIter11SeekToFirstEv
00000000001bc150 T _ZN7rocksdb23ReverseRangeDelIterator12ShouldDeleteERKNS_17ParsedInternalKeyE
00000000001bdfd0 T _ZN7rocksdb23ForwardRangeDelIterator12ShouldDeleteERKNS_17ParsedInternalKeyE
00000000001bfe40 T _ZN7rocksdb18RangeDelAggregator9StripeRep12ShouldDeleteERKNS_17ParsedInternalKeyENS_23RangeDelPositioningModeE
00000000001c0ff0 T _ZN7rocksdb22ReadRangeDelAggregator16ShouldDeleteImplERKNS_17ParsedInternalKeyENS_23RangeDelPositioningModeE
00000000001c1000 T _ZN7rocksdb28CompactionRangeDelAggregator12ShouldDeleteERKNS_17ParsedInternalKeyENS_23RangeDelPositioningModeE
00000000001c1060 t _ZSt16__introsort_loopIN9__gnu_cxx17__normal_iteratorIPSt4pairIPvPFvS3_EESt6vectorIS6_SaIS6_EEEElNS0_5__ops15_Iter_less_iterEEvT_SE_T0_T1_.isra.331
00000000001c1220 T _ZN7rocksdb28CompactionRangeDelAggregator11NewIteratorEPKNS_5SliceES3_b
00000000001c1830 w _ZNK7rocksdb22ReadRangeDelAggregator7IsEmptyEv
00000000001c1840 w _ZNSt10unique_ptrIN7rocksdb25TruncatedRangeDelIteratorESt14default_deleteIS1_EED1Ev
00000000001c18b0 w _ZNSt8_Rb_treeIPN7rocksdb25TruncatedRangeDelIteratorES2_St9_IdentityIS2_ENS0_16SeqMaxComparatorESaIS2_EE15_M_insert_equalIRKS2_EESt17_Rb_tree_iteratorIS2_EOT_
00000000001c1990 w _ZN7rocksdb28CompactionRangeDelAggregator30InvalidateRangeDelMapPositionsEv
00000000001c19e0 w _ZN7rocksdb22ReadRangeDelAggregator30InvalidateRangeDelMapPositionsEv
00000000001c1a20 w _ZN7rocksdb18RangeDelAggregator9StripeRepD1Ev
00000000001c1b90 w _ZNSt8_Rb_treeImSt4pairIKmSt10unique_ptrIN7rocksdb32FragmentedRangeTombstoneIteratorESt14default_deleteIS4_EEESt10_Select1stIS8_ESt4lessImESaIS8_EE8_M_eraseEPSt13_Rb_tree_nodeIS8_E
00000000001c1bf0 w _ZNSt8_Rb_treeImSt4pairIKmSt10unique_ptrIN7rocksdb25TruncatedRangeDelIteratorESt14default_deleteIS4_EEESt10_Select1stIS8_ESt4lessImESaIS8_EE8_M_eraseEPSt13_Rb_tree_nodeIS8_E
00000000001c1c80 w _ZNSt6vectorISt10unique_ptrIN7rocksdb25TruncatedRangeDelIteratorESt14default_deleteIS2_EESaIS5_EE17_M_realloc_insertIJPS2_EEEvN9__gnu_cxx17__normal_iteratorIPS5_S7_EEDpOT_
00000000001c1e90 w _ZNSt8_Rb_treeImSt4pairIKmN7rocksdb18RangeDelAggregator9StripeRepEESt10_Select1stIS5_ESt4lessImESaIS5_EE17_M_emplace_uniqueIJRS1_S4_EEES0_ISt17_Rb_tree_iteratorIS5_EbEDpOT_
00000000001c2a40 w _ZNSt6vectorISt10unique_ptrIN7rocksdb25TruncatedRangeDelIteratorESt14default_deleteIS2_EESaIS5_EE17_M_realloc_insertIJS5_EEEvN9__gnu_cxx17__normal_iteratorIPS5_S7_EEDpOT_
00000000001c2c60 w _ZNSt6vectorISt10unique_ptrIN7rocksdb25TruncatedRangeDelIteratorESt14default_deleteIS2_EESaIS5_EE12emplace_backIJS5_EEEvDpOT_
00000000001c2ca0 w _ZNSt6vectorISt23_Rb_tree_const_iteratorIPN7rocksdb25TruncatedRangeDelIteratorEESaIS4_EE17_M_realloc_insertIJRKS4_EEEvN9__gnu_cxx17__normal_iteratorIPS4_S6_EEDpOT_
00000000001c2e00 w _ZNSt6vectorIPN7rocksdb25TruncatedRangeDelIteratorESaIS2_EE17_M_realloc_insertIJRKS2_EEEvN9__gnu_cxx17__normal_iteratorIPS2_S4_EEDpOT_
00000000001c2f40 w _ZN7rocksdb22ReadRangeDelAggregator12ShouldDeleteERKNS_17ParsedInternalKeyENS_23RangeDelPositioningModeE
00000000001c2f60 T _ZN7rocksdb32FragmentedRangeTombstoneIterator11SeekToFirstEv
00000000001c2f80 T _ZN7rocksdb32FragmentedRangeTombstoneIterator10SeekToLastEv
00000000001c2fa0 T _ZN7rocksdb32FragmentedRangeTombstoneIterator4NextEv
00000000001c2fe0 T _ZN7rocksdb32FragmentedRangeTombstoneIterator4PrevEv
00000000001c3060 T _ZNK7rocksdb32FragmentedRangeTombstoneIterator5ValidEv
00000000001c3080 t _ZNSt7__cxx1112basic_stringIcSt11char_traitsIcESaIcEE12_M_constructIPKcEEvT_S8_St20forward_iterator_tag.isra.171
00000000001c3150 t _ZSt25__unguarded_linear_insertIN9__gnu_cxx17__normal_iteratorIPSt4pairIPvPFvS3_EESt6vectorIS6_SaIS6_EEEENS0_5__ops14_Val_less_iterEEvT_T0_.isra.200
00000000001c3190 t _ZNSt8_Rb_treeImmSt9_IdentityImESt4lessImESaImEE10_M_insert_IRKmNS5_11_Alloc_nodeEEESt17_Rb_tree_iteratorImEPSt18_Rb_tree_node_baseSD_OT_RT0_.isra.304
00000000001c3220 T _ZNK7rocksdb28FragmentedRangeTombstoneList13ContainsRangeEmm
00000000001c3270 T _ZN7rocksdb32FragmentedRangeTombstoneIteratorC1EPKNS_28FragmentedRangeTombstoneListERKNS_21InternalKeyComparatorEmm
00000000001c3360 T _ZN7rocksdb32FragmentedRangeTombstoneIteratorC1ERKSt10shared_ptrIKNS_28FragmentedRangeTombstoneListEERKNS_21InternalKeyComparatorEmm
00000000001c3480 T _ZN7rocksdb32FragmentedRangeTombstoneIterator23SeekToCoveringTombstoneERKNS_5SliceE
00000000001c35e0 T _ZN7rocksdb32FragmentedRangeTombstoneIterator30SeekForPrevToCoveringTombstoneERKNS_5SliceE
00000000001c37d0 T _ZN7rocksdb32FragmentedRangeTombstoneIterator29ScanForwardToVisibleTombstoneEv
00000000001c38e0 T _ZN7rocksdb32FragmentedRangeTombstoneIterator14SeekToTopFirstEv
00000000001c39a0 T _ZN7rocksdb32FragmentedRangeTombstoneIterator4SeekERKNS_5SliceE
00000000001c3a00 T _ZN7rocksdb32FragmentedRangeTombstoneIterator30ScanBackwardToVisibleTombstoneEv
00000000001c3b10 T _ZN7rocksdb32FragmentedRangeTombstoneIterator13SeekToTopLastEv
00000000001c3be0 T _ZN7rocksdb32FragmentedRangeTombstoneIterator11SeekForPrevERKNS_5SliceE
00000000001c3c40 T _ZN7rocksdb32FragmentedRangeTombstoneIterator7TopNextEv
00000000001c3cf0 T _ZN7rocksdb32FragmentedRangeTombstoneIterator7TopPrevEv
00000000001c3dc0 T _ZN7rocksdb32FragmentedRangeTombstoneIterator26MaxCoveringTombstoneSeqnumERKNS_5SliceE
00000000001c3e90 T _ZN7rocksdb32FragmentedRangeTombstoneIterator15SplitBySnapshotERKSt6vectorImSaImEE
00000000001c4060 T _ZN7rocksdb28FragmentedRangeTombstoneList18FragmentTombstonesESt10unique_ptrINS_20InternalIteratorBaseINS_5SliceEEESt14default_deleteIS4_EERKNS_21InternalKeyComparatorEbRKSt6vectorImSaImEE
00000000001c53d0 T _ZN7rocksdb28FragmentedRangeTombstoneListC1ESt10unique_ptrINS_20InternalIteratorBaseINS_5SliceEEESt14default_deleteIS4_EERKNS_21InternalKeyComparatorEbRKSt6vectorImSaImEE
00000000001c5e30 w _ZNK7rocksdb32FragmentedRangeTombstoneIterator11IsKeyPinnedEv
00000000001c5e40 w _ZNK7rocksdb32FragmentedRangeTombstoneIterator13IsValuePinnedEv
00000000001c5e50 w _ZNK7rocksdb32FragmentedRangeTombstoneIterator6statusEv
00000000001c5e70 w _ZNK7rocksdb14VectorIterator5ValidEv
00000000001c5ea0 w _ZN7rocksdb14VectorIterator11SeekToFirstEv
00000000001c5eb0 w _ZN7rocksdb14VectorIterator10SeekToLastEv
00000000001c5ed0 w _ZN7rocksdb14VectorIterator4NextEv
00000000001c5ee0 w _ZN7rocksdb14VectorIterator4PrevEv
00000000001c5ef0 w _ZNK7rocksdb14VectorIterator3keyEv
00000000001c5f10 w _ZNK7rocksdb14VectorIterator5valueEv
00000000001c5f30 w _ZNK7rocksdb14VectorIterator6statusEv
00000000001c5f50 w _ZNK7rocksdb14VectorIterator11IsKeyPinnedEv
00000000001c5f60 w _ZNK7rocksdb14VectorIterator13IsValuePinnedEv
00000000001c5f70 w _ZN7rocksdb32FragmentedRangeTombstoneIteratorD0Ev
00000000001c6040 w _ZN7rocksdb32FragmentedRangeTombstoneIteratorD2Ev
00000000001c6100 w _ZN7rocksdb14VectorIteratorD0Ev
00000000001c61e0 w _ZN7rocksdb14VectorIteratorD2Ev
00000000001c62b0 w _ZNSt6vectorINSt7__cxx1112basic_stringIcSt11char_traitsIcESaIcEEESaIS5_EE7reserveEm
00000000001c6410 w _ZSt13__lower_boundIN9__gnu_cxx17__normal_iteratorIPmSt6vectorImSaImEEEEN7rocksdb5SliceENS0_5__ops14_Iter_comp_valINS7_14VectorIterator20IndexedKeyComparatorEEEET_SE_SE_RKT0_T1_
00000000001c6570 w _ZN7rocksdb14VectorIterator11SeekForPrevERKNS_5SliceE
00000000001c6640 w _ZN7rocksdb14VectorIterator4SeekERKNS_5SliceE
00000000001c6680 w _ZNSt6vectorINSt7__cxx1112basic_stringIcSt11char_traitsIcESaIcEEESaIS5_EE17_M_realloc_insertIJPKcmEEEvN9__gnu_cxx17__normal_iteratorIPS5_S7_EEDpOT_
00000000001c6930 w _ZNSt6vectorINSt7__cxx1112basic_stringIcSt11char_traitsIcESaIcEEESaIS5_EE12emplace_backIJPKcmEEEvDpOT_
00000000001c6990 w _ZNSt8_Rb_treeIN7rocksdb17ParsedInternalKeyES1_St9_IdentityIS1_ENS0_27ParsedInternalKeyComparatorESaIS1_EE8_M_eraseEPSt13_Rb_tree_nodeIS1_E
00000000001c69e0 w _ZNSt6vectorIN7rocksdb28FragmentedRangeTombstoneList19RangeTombstoneStackESaIS2_EE17_M_realloc_insertIJRNS0_5SliceES7_RmS8_EEEvN9__gnu_cxx17__normal_iteratorIPS2_S4_EEDpOT_
00000000001c6bf0 w _ZNSt8_Rb_treeIN7rocksdb17ParsedInternalKeyES1_St9_IdentityIS1_ENS0_27ParsedInternalKeyComparatorESaIS1_EE17_M_emplace_uniqueIJRNS0_5SliceERmNS0_9ValueTypeEEEESt4pairISt17_Rb_tree_iteratorIS1_EbEDpOT_
00000000001c6da0 w _ZNSt8_Rb_treeImSt4pairIKmSt10unique_ptrIN7rocksdb32FragmentedRangeTombstoneIteratorESt14default_deleteIS4_EEESt10_Select1stIS8_ESt4lessImESaIS8_EE17_M_emplace_uniqueIJRmS7_EEES0_ISt17_Rb_tree_iteratorIS8_EbEDpOT_
00000000001c6ed0 w _ZNSt8_Rb_treeImmSt9_IdentityImESt4lessImESaImEE24_M_get_insert_unique_posERKm
00000000001c6f60 w _ZNSt6vectorImSaImEE15_M_range_insertIN7rocksdb10autovectorImLm8EE13iterator_implIS5_mEEEEvN9__gnu_cxx17__normal_iteratorIPmS1_EET_SC_St20forward_iterator_tag
00000000001c7360 w _ZNSt8_Rb_treeImmSt9_IdentityImESt4lessImESaImEE29_M_get_insert_hint_unique_posESt23_Rb_tree_const_iteratorImERKm
00000000001c7440 w _ZSt25__unguarded_linear_insertIN9__gnu_cxx17__normal_iteratorIPmSt6vectorImSaImEEEENS0_5__ops14_Val_comp_iterIN7rocksdb14VectorIterator20IndexedKeyComparatorEEEEvT_T0_
00000000001c7560 w _ZSt16__insertion_sortIN9__gnu_cxx17__normal_iteratorIPmSt6vectorImSaImEEEENS0_5__ops15_Iter_comp_iterIN7rocksdb14VectorIterator20IndexedKeyComparatorEEEEvT_SD_T0_
00000000001c76f0 w _ZSt22__move_median_to_firstIN7rocksdb10autovectorImLm8EE13iterator_implIS2_mEEN9__gnu_cxx5__ops15_Iter_comp_iterISt7greaterImEEEEvT_SB_SB_SB_T0_
00000000001c7940 w _ZSt25__unguarded_linear_insertIN7rocksdb10autovectorImLm8EE13iterator_implIS2_mEEN9__gnu_cxx5__ops14_Val_comp_iterISt7greaterImEEEEvT_T0_
00000000001c7a00 w _ZSt16__insertion_sortIN7rocksdb10autovectorImLm8EE13iterator_implIS2_mEEN9__gnu_cxx5__ops15_Iter_comp_iterISt7greaterImEEEEvT_SB_T0_
00000000001c7bd0 t _ZSt16__introsort_loopIN9__gnu_cxx17__normal_iteratorIPSt4pairIPvPFvS3_EESt6vectorIS6_SaIS6_EEEElNS0_5__ops15_Iter_less_iterEEvT_SE_T0_T1_.isra.287
00000000001c7d90 w _ZN7rocksdb22PinnedIteratorsManagerD1Ev
00000000001c7f80 w _ZSt13__adjust_heapIN9__gnu_cxx17__normal_iteratorIPmSt6vectorImSaImEEEElmNS0_5__ops15_Iter_comp_iterIN7rocksdb14VectorIterator20IndexedKeyComparatorEEEEvT_T0_SE_T1_T2_
00000000001c83c0 w _ZSt16__introsort_loopIN9__gnu_cxx17__normal_iteratorIPmSt6vectorImSaImEEEElNS0_5__ops15_Iter_comp_iterIN7rocksdb14VectorIterator20IndexedKeyComparatorEEEEvT_SD_T0_T1_
00000000001c8b10 w _ZSt11__push_heapIN7rocksdb10autovectorImLm8EE13iterator_implIS2_mEElmN9__gnu_cxx5__ops14_Iter_comp_valISt7greaterImEEEEvT_T0_SC_T1_RT2_
00000000001c8bd0 w _ZSt13__adjust_heapIN7rocksdb10autovectorImLm8EE13iterator_implIS2_mEElmN9__gnu_cxx5__ops15_Iter_comp_iterISt7greaterImEEEEvT_T0_SC_T1_T2_
00000000001c8da0 w _ZSt13__heap_selectIN7rocksdb10autovectorImLm8EE13iterator_implIS2_mEEN9__gnu_cxx5__ops15_Iter_comp_iterISt7greaterImEEEEvT_SB_SB_T0_
00000000001c8f60 w _ZSt16__introsort_loopIN7rocksdb10autovectorImLm8EE13iterator_implIS2_mEElN9__gnu_cxx5__ops15_Iter_comp_iterISt7greaterImEEEEvT_SB_T0_T1_
00000000001c9350 T _ZN7rocksdb15ManagedSnapshotC2EPNS_2DBE
00000000001c9380 T _ZN7rocksdb15ManagedSnapshotC2EPNS_2DBEPKNS_8SnapshotE
00000000001c9390 T _ZN7rocksdb15ManagedSnapshotD2Ev
00000000001c93b0 T _ZN7rocksdb15ManagedSnapshot8snapshotEv
00000000001c93c0 t _ZN7rocksdb12_GLOBAL__N_1L10UnrefEntryEPvS1_
00000000001c93e0 t _ZZN7rocksdb10TableCache15GetFromRowCacheERKNS_5SliceERNS_7IterKeyEmPNS_10GetContextEENUlPvS8_E_4_FUNES8_S8_
00000000001c9400 t _ZN7rocksdb12_GLOBAL__N_1L11DeleteEntryINSt7__cxx1112basic_stringIcSt11char_traitsIcESaIcEEEEEvRKNS_5SliceEPv
00000000001c9450 t _ZN7rocksdb12_GLOBAL__N_1L11DeleteEntryINS_11TableReaderEEEvRKNS_5SliceEPv
00000000001c9480 t _ZNSt7__cxx1112basic_stringIcSt11char_traitsIcESaIcEE12_M_constructIPKcEEvT_S8_St20forward_iterator_tag.isra.118
00000000001c9560 t _ZN7rocksdb12_GLOBAL__N_114AppendVarint64EPNS_7IterKeyEm
00000000001c96c0 T _ZN7rocksdb10TableCacheD2Ev
00000000001c97f0 T _ZN7rocksdb10TableCache24GetTableReaderFromHandleEPNS_5Cache6HandleE
00000000001c9810 T _ZN7rocksdb10TableCache13ReleaseHandleEPNS_5Cache6HandleE
00000000001c9830 T _ZN7rocksdb10TableCache11EraseHandleERKNS_14FileDescriptorEPNS_5Cache6HandleE
00000000001c98c0 T _ZN7rocksdb10TableCache23CreateRowCacheKeyPrefixERKNS_11ReadOptionsERKNS_14FileDescriptorERKNS_5SliceEPNS_10GetContextERNS_7IterKeyE
00000000001c9a50 T _ZN7rocksdb10TableCache15GetFromRowCacheERKNS_5SliceERNS_7IterKeyEmPNS_10GetContextE
00000000001c9cf0 T _ZN7rocksdb10TableCache5EvictEPNS_5CacheEm
00000000001c9d50 T _ZN7rocksdb10TableCacheC1ERKNS_16ImmutableOptionsEPKNS_11FileOptionsEPNS_5CacheEPNS_16BlockCacheTracerERKSt10shared_ptrINS_8IOTracerEERKNSt7__cxx1112basic_stringIcSt11char_traitsIcESaIcEEE
00000000001ca050 T _ZN7rocksdb10TableCache14GetTableReaderERKNS_11ReadOptionsERKNS_11FileOptionsERKNS_21InternalKeyComparatorERKNS_14FileDescriptorEbbPNS_13HistogramImplEPSt10unique_ptrINS_11TableReaderESt14default_deleteISG_EEPKNS_14SliceTransformEbibm
00000000001cb6c0 T _ZN7rocksdb10TableCache9FindTableERKNS_11ReadOptionsERKNS_11FileOptionsERKNS_21InternalKeyComparatorERKNS_14FileDescriptorEPPNS_5Cache6HandleEPKNS_14SliceTransformEbbPNS_13HistogramImplEbibm
00000000001cbc00 T _ZN7rocksdb10TableCache25GetRangeTombstoneIteratorERKNS_11ReadOptionsERKNS_21InternalKeyComparatorERKNS_12FileMetaDataEPSt10unique_ptrINS_32FragmentedRangeTombstoneIteratorESt14default_deleteISB_EE
00000000001cbdb0 T _ZN7rocksdb10TableCache3GetERKNS_11ReadOptionsERKNS_21InternalKeyComparatorERKNS_12FileMetaDataERKNS_5SliceEPNS_10GetContextEPKNS_14SliceTransformEPNS_13HistogramImplEbimb
00000000001cc5a0 T _ZN7rocksdb10TableCache18GetTablePropertiesERKNS_11FileOptionsERKNS_21InternalKeyComparatorERKNS_14FileDescriptorEPSt10shared_ptrIKNS_15TablePropertiesEEPKNS_14SliceTransformEb
00000000001cca20 T _ZN7rocksdb10TableCache27GetMemoryUsageByTableReaderERKNS_11FileOptionsERKNS_21InternalKeyComparatorERKNS_14FileDescriptorEPKNS_14SliceTransformE
00000000001ccbf0 T _ZN7rocksdb10TableCache19ApproximateOffsetOfERKNS_5SliceERKNS_14FileDescriptorENS_17TableReaderCallerERKNS_21InternalKeyComparatorEPKNS_14SliceTransformE
00000000001ccdd0 T _ZN7rocksdb10TableCache15ApproximateSizeERKNS_5SliceES3_RKNS_14FileDescriptorENS_17TableReaderCallerERKNS_21InternalKeyComparatorEPKNS_14SliceTransformE
00000000001ccfc0 T _ZN7rocksdb10TableCache11NewIteratorERKNS_11ReadOptionsERKNS_11FileOptionsERKNS_21InternalKeyComparatorERKNS_12FileMetaDataEPNS_18RangeDelAggregatorEPKNS_14SliceTransformEPPNS_11TableReaderEPNS_13HistogramImplENS_17TableReaderCallerEPNS_5ArenaEbimPKNS_11InternalKeyESS_b
00000000001cd6e0 T _ZN7rocksdb10TableCache8MultiGetERKNS_11ReadOptionsERKNS_21InternalKeyComparatorERKNS_12FileMetaDataEPKNS_15MultiGetContext5RangeEPKNS_14SliceTransformEPNS_13HistogramImplEbi
00000000001ce5e0 w _ZNSt17_Function_handlerIFmRKN7rocksdb5SliceEEPS4_E9_M_invokeERKSt9_Any_dataS3_
00000000001ce600 w _ZNSt14_Function_base13_Base_managerIPFmRKN7rocksdb5SliceEEE10_M_managerERSt9_Any_dataRKS8_St18_Manager_operation
00000000001ce630 w _ZN7rocksdb7StripedINS_4port5MutexENS_5SliceEED1Ev
00000000001ce6b0 w _ZN7rocksdb7StripedINS_4port5MutexENS_5SliceEED0Ev
00000000001ce730 w _ZN7rocksdb11TableReader8MultiGetERKNS_11ReadOptionsEPKNS_15MultiGetContext5RangeEPKNS_14SliceTransformEb
00000000001ce8d0 w _ZNSt8_Rb_treeImmSt9_IdentityImESt4lessImESaImEE16_M_insert_uniqueIRKmEESt4pairISt17_Rb_tree_iteratorImEbEOT_
00000000001ce9f0 w _ZNSt6vectorINSt7__cxx1112basic_stringIcSt11char_traitsIcESaIcEEESaIS5_EE17_M_realloc_insertIJEEEvN9__gnu_cxx17__normal_iteratorIPS5_S7_EEDpOT_
00000000001cec40 T _ZN7rocksdb20TrimHistoryScheduler20TakeNextColumnFamilyEv
00000000001ced50 T _ZN7rocksdb20TrimHistoryScheduler5EmptyEv
00000000001ced60 T _ZN7rocksdb20TrimHistoryScheduler5ClearEv
00000000001ced90 T _ZN7rocksdb20TrimHistoryScheduler12ScheduleWorkEPNS_16ColumnFamilyDataE
00000000001cee90 t _ZNSt7__cxx1112basic_stringIcSt11char_traitsIcESaIcEE12_M_constructIPKcEEvT_S8_St20forward_iterator_tag.isra.109
00000000001cef60 T _ZN7rocksdb23PackFileNumberAndPathIdEmm
00000000001cef70 T _ZN7rocksdb11VersionEdit8GetLevelEPNS_5SliceEPiPPKc
00000000001cf030 T _ZNK7rocksdb11VersionEdit9DebugJSONB5cxx11Eib
00000000001d20e0 T _ZN7rocksdb12FileMetaData16UpdateBoundariesERKNS_5SliceES3_mNS_9ValueTypeE
00000000001d25e0 T _ZNK7rocksdb11VersionEdit11DebugStringB5cxx11Eb
00000000001d3370 t _ZN7rocksdbL14GetInternalKeyEPNS_5SliceEPNS_11InternalKeyE
00000000001d37c0 T _ZNK7rocksdb11VersionEdit8EncodeToEPNSt7__cxx1112basic_stringIcSt11char_traitsIcESaIcEEE
00000000001d5860 T _ZN7rocksdb11VersionEdit5ClearEv
00000000001d5b10 T _ZN7rocksdb11VersionEdit18DecodeNewFile4FromEPNS_5SliceE
00000000001d6750 T _ZN7rocksdb11VersionEdit10DecodeFromERKNS_5SliceE
00000000001d8e80 w _ZNSt6vectorIN7rocksdb15BlobFileGarbageESaIS1_EE17_M_realloc_insertIJS1_EEEvN9__gnu_cxx17__normal_iteratorIPS1_S3_EEDpOT_
00000000001d9020 w _ZNSt8_Rb_treeISt4pairIimES1_St9_IdentityIS1_ESt4lessIS1_ESaIS1_EE16_M_insert_uniqueIS1_EES0_ISt17_Rb_tree_iteratorIS1_EbEOT_
00000000001d9190 w _ZNSt6vectorIN7rocksdb11WalAdditionESaIS1_EE17_M_realloc_insertIJS1_EEEvN9__gnu_cxx17__normal_iteratorIPS1_S3_EEDpOT_
00000000001d9300 w _ZNSt6vectorIN7rocksdb11WalAdditionESaIS1_EE12emplace_backIJS1_EEEvDpOT_
00000000001d9330 w _ZNSt6vectorISt4pairIiN7rocksdb12FileMetaDataEESaIS3_EE17_M_realloc_insertIJS3_EEEvN9__gnu_cxx17__normal_iteratorIPS3_S5_EEDpOT_
00000000001d9d10 w _ZNSt6vectorISt4pairIiN7rocksdb12FileMetaDataEESaIS3_EE12emplace_backIJS3_EEEvDpOT_
00000000001d9fd0 t _ZNK7rocksdb12_GLOBAL__N_113LevelIterator5ValidEv
00000000001d9ff0 t _ZNK7rocksdb12_GLOBAL__N_113LevelIterator3keyEv
00000000001da010 t _ZNK7rocksdb12_GLOBAL__N_113LevelIterator5valueEv
00000000001da030 t _ZNK7rocksdb12_GLOBAL__N_113LevelIterator6statusEv
00000000001da0a0 t _ZN7rocksdb12_GLOBAL__N_113LevelIterator21UpperBoundCheckResultEv
00000000001da0c0 t _ZN7rocksdb12_GLOBAL__N_113LevelIterator17SetPinnedItersMgrEPNS_22PinnedIteratorsManagerE
00000000001da100 t _ZN7rocksdb12_GLOBAL__N_132CompareCompensatedSizeDescendingERKNS0_5FsizeES3_
00000000001da120 t _ZNSt17_Function_handlerIFvRKN7rocksdb6StatusEEZNS0_10VersionSet11LogAndApplyERKNS0_10autovectorIPNS0_16ColumnFamilyDataELm8EEERKNS6_IPKNS0_16MutableCFOptionsELm8EEERKNS6_INS6_IPNS0_11VersionEditELm8EEELm8EEEPNS0_17InstrumentedMutexEPNS0_11FSDirectoryEbPKNS0_19ColumnFamilyOptionsERKSt6vectorISt8functionIS4_ESaISX_EEEUlS3_E_E9_M_invokeERKSt9_Any_dataS3_
00000000001da130 t _ZNSt14_Function_base13_Base_managerIZN7rocksdb10VersionSet11LogAndApplyERKNS1_10autovectorIPNS1_16ColumnFamilyDataELm8EEERKNS3_IPKNS1_16MutableCFOptionsELm8EEERKNS3_INS3_IPNS1_11VersionEditELm8EEELm8EEEPNS1_17InstrumentedMutexEPNS1_11FSDirectoryEbPKNS1_19ColumnFamilyOptionsERKSt6vectorISt8functionIFvRKNS1_6StatusEEESaISY_EEEUlSW_E_E10_M_managerERSt9_Any_dataRKS15_St18_Manager_operation
00000000001da150 t _ZSt13__adjust_heapIN9__gnu_cxx17__normal_iteratorIPN7rocksdb12_GLOBAL__N_15FsizeESt6vectorIS4_SaIS4_EEEElS4_NS0_5__ops15_Iter_comp_iterIPFbRKS4_SD_EEEEvT_T0_SI_T1_T2_
00000000001da370 t _ZNSt8_Rb_treeIPN7rocksdb11InternalKeyESt4pairIKS2_PNS0_12FileMetaDataEESt10_Select1stIS7_EZNKS0_18VersionStorageInfo20EstimateLiveDataSizeEvEUlS2_S2_E_SaIS7_EE8_M_eraseEPSt13_Rb_tree_nodeIS7_E
00000000001da3c0 t _ZSt13__adjust_heapIN9__gnu_cxx17__normal_iteratorIPN7rocksdb12_GLOBAL__N_15FsizeESt6vectorIS4_SaIS4_EEEElS4_NS0_5__ops15_Iter_comp_iterIZNS2_18VersionStorageInfo26UpdateFilesByCompactionPriENS2_13CompactionPriEEUlRKS4_SF_E_EEEvT_T0_SJ_T1_T2_.isra.70
00000000001da540 t _ZSt16__introsort_loopIN9__gnu_cxx17__normal_iteratorIPN7rocksdb12_GLOBAL__N_15FsizeESt6vectorIS4_SaIS4_EEEElNS0_5__ops15_Iter_comp_iterIZNS2_18VersionStorageInfo26UpdateFilesByCompactionPriENS2_13CompactionPriEEUlRKS4_SF_E_EEEvT_SI_T0_T1_
00000000001da770 t _ZSt13__adjust_heapIN9__gnu_cxx17__normal_iteratorIPN7rocksdb12_GLOBAL__N_15FsizeESt6vectorIS4_SaIS4_EEEElS4_NS0_5__ops15_Iter_comp_iterIZNS2_18VersionStorageInfo26UpdateFilesByCompactionPriENS2_13CompactionPriEEUlRKS4_SF_E0_EEEvT_T0_SJ_T1_T2_.isra.78
00000000001da8f0 t _ZSt16__introsort_loopIN9__gnu_cxx17__normal_iteratorIPN7rocksdb12_GLOBAL__N_15FsizeESt6vectorIS4_SaIS4_EEEElNS0_5__ops15_Iter_comp_iterIZNS2_18VersionStorageInfo26UpdateFilesByCompactionPriENS2_13CompactionPriEEUlRKS4_SF_E0_EEEvT_SI_T0_T1_
00000000001dab20 t _ZSt16__insertion_sortIN9__gnu_cxx17__normal_iteratorIPN7rocksdb12_GLOBAL__N_15FsizeESt6vectorIS4_SaIS4_EEEENS0_5__ops15_Iter_comp_iterIZNS2_18VersionStorageInfo26UpdateFilesByCompactionPriENS2_13CompactionPriEEUlRKS4_SF_E_EEEvT_SI_T0_.isra.93
00000000001dac00 t _ZSt16__insertion_sortIN9__gnu_cxx17__normal_iteratorIPN7rocksdb12_GLOBAL__N_15FsizeESt6vectorIS4_SaIS4_EEEENS0_5__ops15_Iter_comp_iterIZNS2_18VersionStorageInfo26UpdateFilesByCompactionPriENS2_13CompactionPriEEUlRKS4_SF_E0_EEEvT_SI_T0_.isra.95
00000000001dace0 t _ZN7rocksdbL9AfterFileEPKNS_10ComparatorEPKNS_5SliceEPKNS_14FdWithKeyRangeE.part.146
00000000001dad50 t _ZN7rocksdbL10BeforeFileEPKNS_10ComparatorEPKNS_5SliceEPKNS_14FdWithKeyRangeE.part.147
00000000001dadc0 t _ZN7rocksdb7Version15IsFilterSkippedEib.part.211
00000000001dade0 t _ZN7rocksdb12_GLOBAL__N_113LevelIterator12PrepareValueEv
00000000001dae40 t _ZN7rocksdb12_GLOBAL__N_113LevelIterator20MayBeOutOfLowerBoundEv
00000000001dae80 t _ZNK7rocksdb12_GLOBAL__N_113LevelIterator11IsKeyPinnedEv
00000000001daec0 t _ZNK7rocksdb12_GLOBAL__N_113LevelIterator13IsValuePinnedEv
00000000001daf00 t _ZN7rocksdb18VersionStorageInfo29EstimateCompactionBytesNeededERKNS_16MutableCFOptionsE.part.324
00000000001db190 t _ZSt25__unguarded_linear_insertIN9__gnu_cxx17__normal_iteratorIPSt4pairIPvPFvS3_EESt6vectorIS6_SaIS6_EEEENS0_5__ops14_Val_less_iterEEvT_T0_.isra.1028
00000000001db1e0 t _ZNSt8__detail16_Hashtable_allocISaINS_10_Hash_nodeISt4pairIKjN7rocksdb10VersionSet14MutableCFStateEELb0EEEEE18_M_deallocate_nodeEPS8_.isra.1241
00000000001db220 t _ZNSt8__detail16_Hashtable_allocISaINS_10_Hash_nodeISt4pairIKNSt7__cxx1112basic_stringIcSt11char_traitsIcESaIcEEESt10shared_ptrIKN7rocksdb15TablePropertiesEEELb1EEEEE19_M_allocate_bucketsEm.isra.1328
00000000001db270 t _ZNSt16_Sp_counted_baseILN9__gnu_cxx12_Lock_policyE2EE10_M_releaseEv.part.282
00000000001db2d0 t _ZNSt7__cxx1112basic_stringIcSt11char_traitsIcESaIcEE12_M_constructIPKcEEvT_S8_St20forward_iterator_tag.isra.943
00000000001db3b0 t _ZNSt7__cxx1112basic_stringIcSt11char_traitsIcESaIcEEC2EPKcRKS3_.isra.945
00000000001db400 t _ZSt25__unguarded_linear_insertIN9__gnu_cxx17__normal_iteratorIPNSt7__cxx1112basic_stringIcSt11char_traitsIcESaIcEEESt6vectorIS7_SaIS7_EEEENS0_5__ops14_Val_comp_iterIZN7rocksdb12_GLOBAL__N_114ManifestPickerC4ERKS7_RKSB_EUlSJ_SJ_E_EEEvT_T0_.isra.1251
00000000001db560 t _ZN7rocksdb12_GLOBAL__N_113LevelIterator25CheckMayBeOutOfLowerBoundEv
00000000001db630 t _ZSt13__adjust_heapIN9__gnu_cxx17__normal_iteratorIPNSt7__cxx1112basic_stringIcSt11char_traitsIcESaIcEEESt6vectorIS7_SaIS7_EEEElS7_NS0_5__ops15_Iter_comp_iterIZN7rocksdb12_GLOBAL__N_114ManifestPickerC4ERKS7_RKSB_EUlSJ_SJ_E_EEEvT_T0_SP_T1_T2_.isra.701
00000000001db9b0 t _ZN7rocksdb12_GLOBAL__N_113LevelIteratorD0Ev
00000000001dbaa0 t _ZN7rocksdb12_GLOBAL__N_113LevelIteratorD2Ev
00000000001dbb90 t _ZSt16__introsort_loopIN9__gnu_cxx17__normal_iteratorIPNSt7__cxx1112basic_stringIcSt11char_traitsIcESaIcEEESt6vectorIS7_SaIS7_EEEElNS0_5__ops15_Iter_comp_iterIZN7rocksdb12_GLOBAL__N_114ManifestPickerC4ERKS7_RKSB_EUlSJ_SJ_E_EEEvT_SO_T0_T1_
00000000001dc230 t _ZSt16__insertion_sortIN9__gnu_cxx17__normal_iteratorIPNSt7__cxx1112basic_stringIcSt11char_traitsIcESaIcEEESt6vectorIS7_SaIS7_EEEENS0_5__ops15_Iter_comp_iterIZN7rocksdb12_GLOBAL__N_114ManifestPickerC4ERKS7_RKSB_EUlSJ_SJ_E_EEEvT_SO_T0_.isra.1536
00000000001dc4e0 t _ZN7rocksdb12_GLOBAL__N_114ManifestPicker15GetNextManifestEPmPNSt7__cxx1112basic_stringIcSt11char_traitsIcESaIcEEE.constprop.1679
00000000001dc610 t _ZSt13__lower_boundIPN7rocksdb14FdWithKeyRangeENS0_5SliceEN9__gnu_cxx5__ops14_Iter_comp_valIZNS0_12_GLOBAL__N_115FindFileInRangeERKNS0_21InternalKeyComparatorERKNS0_15LevelFilesBriefERKS3_jjEUlRKS1_SF_E_EEET_SK_SK_RKT0_T1_
00000000001dc6b0 t _ZN7rocksdb12_GLOBAL__N_110FilePicker16PrepareNextLevelEv
00000000001dc800 t _ZN7rocksdb12_GLOBAL__N_118FilePickerMultiGet16PrepareNextLevelEv.part.575
00000000001dcd50 t _ZN7rocksdb12_GLOBAL__N_118FilePickerMultiGet16PrepareNextLevelEv
00000000001dcf30 t _ZN7rocksdb12_GLOBAL__N_118FilePickerMultiGet11GetNextFileEv
00000000001ddca0 t _ZN7rocksdb12_GLOBAL__N_110FilePicker11GetNextFileEv
00000000001de080 t _ZSt13__adjust_heapIN9__gnu_cxx17__normal_iteratorIPN7rocksdb14FdWithKeyRangeESt6vectorIS3_SaIS3_EEEElS3_NS0_5__ops15_Iter_comp_iterIZNS2_18VersionStorageInfo28GenerateLevel0NonOverlappingEvEUlRKS3_SD_E_EEEvT_T0_SH_T1_T2_
00000000001de420 t _ZSt25__unguarded_linear_insertIN9__gnu_cxx17__normal_iteratorIPN7rocksdb14FdWithKeyRangeESt6vectorIS3_SaIS3_EEEENS0_5__ops14_Val_comp_iterIZNS2_18VersionStorageInfo28GenerateLevel0NonOverlappingEvEUlRKS3_SD_E_EEEvT_T0_
00000000001de570 t _ZSt16__introsort_loopIN9__gnu_cxx17__normal_iteratorIPN7rocksdb14FdWithKeyRangeESt6vectorIS3_SaIS3_EEEElNS0_5__ops15_Iter_comp_iterIZNS2_18VersionStorageInfo28GenerateLevel0NonOverlappingEvEUlRKS3_SD_E_EEEvT_SG_T0_T1_
00000000001deee0 t _ZSt16__insertion_sortIN9__gnu_cxx17__normal_iteratorIPN7rocksdb14FdWithKeyRangeESt6vectorIS3_SaIS3_EEEENS0_5__ops15_Iter_comp_iterIZNS2_18VersionStorageInfo28GenerateLevel0NonOverlappingEvEUlRKS3_SD_E_EEEvT_SG_T0_
00000000001df080 t _ZNSt8_Rb_treeIPN7rocksdb11InternalKeyESt4pairIKS2_PNS0_12FileMetaDataEESt10_Select1stIS7_EZNKS0_18VersionStorageInfo20EstimateLiveDataSizeEvEUlS2_S2_E_SaIS7_EE24_M_get_insert_unique_posERS4_
00000000001df1d0 T _ZN7rocksdb8FindFileERKNS_21InternalKeyComparatorERKNS_15LevelFilesBriefERKNS_5SliceE
00000000001df220 T _ZN7rocksdb25DoGenerateLevelFilesBriefEPNS_15LevelFilesBriefERKSt6vectorIPNS_12FileMetaDataESaIS4_EEPNS_5ArenaE
00000000001df420 T _ZN7rocksdb21SomeFileOverlapsRangeERKNS_21InternalKeyComparatorEbRKNS_15LevelFilesBriefEPKNS_5SliceES8_
00000000001df620 t _ZN7rocksdb18VersionStorageInfo14OverlapInLevelEiPKNS_5SliceES3_.part.673
00000000001df680 T _ZN7rocksdb7Version27TablesRangeTombstoneSummaryEiPNSt7__cxx1112basic_stringIcSt11char_traitsIcESaIcEEE
00000000001dfd30 T _ZN7rocksdb7Version28GetMemoryUsageByTableReadersEv
00000000001dfe20 T _ZN7rocksdb7Version15GetSstFilesSizeEv
00000000001dfe90 T _ZN7rocksdb7Version27GetCreationTimeOfOldestFileEPm
00000000001e0100 T _ZNK7rocksdb18VersionStorageInfo22GetEstimatedActiveKeysEv
00000000001e0250 T _ZNK7rocksdb18VersionStorageInfo35GetEstimatedCompressionRatioAtLevelEi
00000000001e0320 T _ZNK7rocksdb7Version7GetBlobERKNS_11ReadOptionsERKNS_5SliceERKNS_9BlobIndexEPNS_13PinnableSliceEPm
00000000001e05a0 T _ZN7rocksdb7Version15IsFilterSkippedEib
00000000001e05d0 T _ZN7rocksdb18VersionStorageInfo22UpdateAccumulatedStatsEPNS_12FileMetaDataE
00000000001e0660 T _ZN7rocksdb18VersionStorageInfo18RemoveCurrentStatsEPNS_12FileMetaDataE
00000000001e06b0 T _ZN7rocksdb18VersionStorageInfo23ComputeCompensatedSizesEv
00000000001e0780 T _ZNK7rocksdb18VersionStorageInfo13MaxInputLevelEv
00000000001e07a0 T _ZNK7rocksdb18VersionStorageInfo14MaxOutputLevelEb
00000000001e07c0 T _ZN7rocksdb18VersionStorageInfo29EstimateCompactionBytesNeededERKNS_16MutableCFOptionsE
00000000001e07f0 T _ZN7rocksdb18VersionStorageInfo12SetFinalizedEv
00000000001e0810 T _ZN7rocksdb18VersionStorageInfo23UpdateNumNonEmptyLevelsEv
00000000001e0870 T _ZN7rocksdb18VersionStorageInfo28GenerateLevel0NonOverlappingEv
00000000001e0ae0 T _ZN7rocksdb7Version3RefEv
00000000001e0b00 T _ZN7rocksdb18VersionStorageInfo14OverlapInLevelEiPKNS_5SliceES3_
00000000001e0b20 T _ZNK7rocksdb18VersionStorageInfo13NumLevelBytesEi
00000000001e0b50 T _ZNK7rocksdb18VersionStorageInfo12LevelSummaryEPNS0_19LevelSummaryStorageE
00000000001e0d20 T _ZNK7rocksdb18VersionStorageInfo16LevelFileSummaryEPNS0_18FileSummaryStorageEi
00000000001e0e90 T _ZNK7rocksdb18VersionStorageInfo16MaxBytesForLevelEi
00000000001e0eb0 T _ZN7rocksdb18VersionStorageInfo18CalculateBaseBytesERKNS_16ImmutableOptionsERKNS_16MutableCFOptionsE
00000000001e16a0 T _ZNK7rocksdb18VersionStorageInfo20EstimateLiveDataSizeEv
00000000001e1dc0 T _ZN7rocksdb18VersionStorageInfo29RangeMightExistAfterSortedRunERKNS_5SliceES3_ii
00000000001e1ea0 T _ZN7rocksdb18VersionStorageInfo23GenerateBottommostFilesEv
00000000001e21f0 T _ZNK7rocksdb21AtomicGroupReadBuffer6IsFullEv
00000000001e2220 T _ZNK7rocksdb21AtomicGroupReadBuffer7IsEmptyEv
00000000001e2240 T _ZN7rocksdb10VersionSet5ResetEv
00000000001e24d0 T _ZN7rocksdb10VersionSet28WakeUpWaitingManifestWritersEv
00000000001e2510 T _ZN7rocksdb10VersionSet19LogAndApplyCFHelperEPNS_11VersionEditE
00000000001e2580 T _ZN7rocksdb10VersionSet17LogAndApplyHelperEPNS_16ColumnFamilyDataEPNS_14VersionBuilderEPNS_11VersionEditEPNS_17InstrumentedMutexE
00000000001e2660 T _ZN7rocksdb10VersionSet22GetCurrentManifestPathERKNSt7__cxx1112basic_stringIcSt11char_traitsIcESaIcEEEPNS_10FileSystemEPS6_Pm
00000000001e2960 T _ZN7rocksdb10VersionSet24GetLiveFilesChecksumInfoEPNS_16FileChecksumListE
00000000001e2e10 T _ZN7rocksdb10VersionSet18MarkFileNumberUsedEm
00000000001e2e40 T _ZN7rocksdb10VersionSet25MarkMinLogNumberToKeep2PCEm
00000000001e2e70 T _ZN7rocksdb10VersionSet19ApproximateOffsetOfEPNS_7VersionERKNS_14FdWithKeyRangeERKNS_5SliceENS_17TableReaderCallerE
00000000001e2f30 T _ZN7rocksdb10VersionSet15ApproximateSizeEPNS_7VersionERKNS_14FdWithKeyRangeERKNS_5SliceES8_NS_17TableReaderCallerE
00000000001e3070 T _ZN7rocksdb10VersionSet18GetMetadataForFileEmPiPPNS_12FileMetaDataEPPNS_16ColumnFamilyDataE
00000000001e31f0 T _ZN7rocksdb10VersionSet18GetNumLiveVersionsEPNS_7VersionE
00000000001e3230 T _ZN7rocksdb18ReactiveVersionSet13replay_bufferEv
00000000001e3250 T _ZNK7rocksdb7Version11DebugStringB5cxx11Ebb
00000000001e39a0 T _ZN7rocksdb10VersionSet20GetTotalSstFilesSizeEPNS_7VersionE
00000000001e3df0 t _ZN7rocksdb7Version20AddIteratorsForLevelERKNS_11ReadOptionsERKNS_11FileOptionsEPNS_20MergeIteratorBuilderEiPNS_18RangeDelAggregatorEb.part.721
00000000001e42d0 T _ZN7rocksdb7Version20AddIteratorsForLevelERKNS_11ReadOptionsERKNS_11FileOptionsEPNS_20MergeIteratorBuilderEiPNS_18RangeDelAggregatorEb
00000000001e4300 T _ZN7rocksdb7Version12AddIteratorsERKNS_11ReadOptionsERKNS_11FileOptionsEPNS_20MergeIteratorBuilderEPNS_18RangeDelAggregatorEb
00000000001e4380 T _ZN7rocksdb10VersionSet17MakeInputIteratorERKNS_11ReadOptionsEPKNS_10CompactionEPNS_18RangeDelAggregatorERKNS_11FileOptionsE
00000000001e47e0 t _ZN7rocksdb12_GLOBAL__N_119OverlapWithIteratorEPKNS_10ComparatorERKNS_5SliceES6_PNS_20InternalIteratorBaseIS4_EEPb
00000000001e4a80 T _ZNK7rocksdb7Version7GetBlobERKNS_11ReadOptionsERKNS_5SliceES6_PNS_13PinnableSliceEPm
00000000001e4f70 t _ZN7rocksdb12_GLOBAL__N_113LevelIterator15SetFileIteratorEPNS_20InternalIteratorBaseINS_5SliceEEE
00000000001e50d0 t _ZN7rocksdb12_GLOBAL__N_113LevelIterator16InitFileIteratorEm
00000000001e5300 t _ZN7rocksdb12_GLOBAL__N_113LevelIterator21SkipEmptyFileBackwardEv
00000000001e5420 t _ZN7rocksdb12_GLOBAL__N_113LevelIterator4PrevEv
00000000001e5490 t _ZN7rocksdb12_GLOBAL__N_113LevelIterator11SeekForPrevERKNS_5SliceE
00000000001e5550 t _ZN7rocksdb12_GLOBAL__N_113LevelIterator10SeekToLastEv
00000000001e56a0 T _ZNK7rocksdb7Version12AddLiveFilesEPSt6vectorImSaImEES4_
00000000001e57d0 T _ZNK7rocksdb10VersionSet12AddLiveFilesEPSt6vectorImSaImEES4_
00000000001e5990 T _ZNK7rocksdb10VersionSet18VerifyFileMetadataERKNSt7__cxx1112basic_stringIcSt11char_traitsIcESaIcEEERKNS_12FileMetaDataE
00000000001e5bc0 t _ZNKSt14default_deleteIN7rocksdb20SequentialFileReaderEEclEPS1_.isra.686.part.687
00000000001e5c40 T _ZNK7rocksdb7Version18GetTablePropertiesEPSt10shared_ptrIKNS_15TablePropertiesEEPKNS_12FileMetaDataEPKNSt7__cxx1112basic_stringIcSt11char_traitsIcESaIcEEE
00000000001e63c0 T _ZN7rocksdb7Version27MaybeInitializeFileMetaDataEPNS_12FileMetaDataE
00000000001e6590 T _ZN7rocksdb7Version22UpdateAccumulatedStatsEb
00000000001e6770 T _ZN7rocksdb18VersionStorageInfo39ComputeFilesMarkedForPeriodicCompactionERKNS_16ImmutableOptionsEm
00000000001e6ce0 T _ZN7rocksdb18VersionStorageInfo31ComputeFilesMarkedForCompactionEv
00000000001e6ec0 T _ZN7rocksdb18VersionStorageInfo22ComputeExpiredTtlFilesERKNS_16ImmutableOptionsEm
00000000001e71f0 T _ZN7rocksdb21AtomicGroupReadBuffer5ClearEv
00000000001e7280 T _ZN7rocksdb18ReactiveVersionSet19MaybeSwitchManifestEPNS_3log6Reader8ReporterEPSt10unique_ptrINS1_22FragmentBufferedReaderESt14default_deleteIS6_EE
00000000001e7a80 T _ZN7rocksdb18ReactiveVersionSet7RecoverERKSt6vectorINS_22ColumnFamilyDescriptorESaIS2_EEPSt10unique_ptrINS_3log22FragmentBufferedReaderESt14default_deleteIS9_EEPS7_INS8_6Reader8ReporterESA_ISF_EEPS7_INS_6StatusESA_ISJ_EE
00000000001e7d60 T _ZN7rocksdb18ReactiveVersionSet12ReadAndApplyEPNS_17InstrumentedMutexEPSt10unique_ptrINS_3log22FragmentBufferedReaderESt14default_deleteIS5_EEPNS_6StatusEPSt13unordered_setIPNS_16ColumnFamilyDataESt4hashISE_ESt8equal_toISE_ESaISE_EE
00000000001e7f70 T _ZN7rocksdb10VersionSet27WriteCurrentStateToManifestERKSt13unordered_mapIjNS0_14MutableCFStateESt4hashIjESt8equal_toIjESaISt4pairIKjS2_EEERKNS_11VersionEditEPNS_3log6WriterERNS_8IOStatusE
00000000001e96d0 t _ZN7rocksdb12_GLOBAL__N_113LevelIterator20SkipEmptyFileForwardEv
00000000001e9890 t _ZN7rocksdb12_GLOBAL__N_113LevelIterator16NextAndGetResultEPNS_13IterateResultE
00000000001e9940 t _ZN7rocksdb12_GLOBAL__N_113LevelIterator4NextEv
00000000001e9980 t _ZN7rocksdb12_GLOBAL__N_113LevelIterator11SeekToFirstEv
00000000001e9ac0 t _ZN7rocksdb12_GLOBAL__N_113LevelIterator4SeekERKNS_5SliceE
00000000001e9cd0 T _ZNK7rocksdb18VersionStorageInfo37GetOverlappingInputsRangeBinarySearchEiPKNS_11InternalKeyES3_PSt6vectorIPNS_12FileMetaDataESaIS6_EEiPibPPS1_
00000000001ea170 T _ZNK7rocksdb18VersionStorageInfo28GetCleanInputsWithinIntervalEiPKNS_11InternalKeyES3_PSt6vectorIPNS_12FileMetaDataESaIS6_EEiPi
00000000001ea1f0 T _ZNK7rocksdb18VersionStorageInfo20GetOverlappingInputsEiPKNS_11InternalKeyES3_PSt6vectorIPNS_12FileMetaDataESaIS6_EEiPibPPS1_
00000000001ea6e0 T _ZN7rocksdb18VersionStorageInfo28MaxNextLevelOverlappingBytesEv
00000000001ea820 T _ZN7rocksdb10VersionSetD2Ev
00000000001eab80 T _ZN7rocksdb10VersionSetD0Ev
00000000001eabb0 T _ZN7rocksdb18ReactiveVersionSetD1Ev
00000000001eabf0 T _ZN7rocksdb18ReactiveVersionSetD0Ev
00000000001eac20 T _ZN7rocksdb10VersionSetC2ERKNSt7__cxx1112basic_stringIcSt11char_traitsIcESaIcEEEPKNS_18ImmutableDBOptionsERKNS_11FileOptionsEPNS_5CacheEPNS_18WriteBufferManagerEPNS_15WriteControllerEPNS_16BlockCacheTracerERKSt10shared_ptrINS_8IOTracerEES8_
00000000001eb480 T _ZN7rocksdb18ReactiveVersionSetC2ERKNSt7__cxx1112basic_stringIcSt11char_traitsIcESaIcEEEPKNS_18ImmutableDBOptionsERKNS_11FileOptionsEPNS_5CacheEPNS_18WriteBufferManagerEPNS_15WriteControllerERKSt10shared_ptrINS_8IOTracerEE
00000000001eb580 T _ZN7rocksdb10VersionSet20GetLiveFilesMetaDataEPSt6vectorINS_16LiveFileMetaDataESaIS2_EE
00000000001ec3f0 T _ZN7rocksdb10VersionSet16GetObsoleteFilesEPSt6vectorINS_16ObsoleteFileInfoESaIS2_EEPS1_INS_20ObsoleteBlobFileInfoESaIS6_EEPS1_INSt7__cxx1112basic_stringIcSt11char_traitsIcESaIcEEESaISF_EEm
00000000001ec720 T _ZN7rocksdb18VersionStorageInfo23GenerateLevelFilesBriefEv
00000000001ec8c0 T _ZN7rocksdb18VersionStorageInfo41ComputeBottommostFilesMarkedForCompactionEv
00000000001eca80 T _ZN7rocksdb18VersionStorageInfo22ComputeCompactionScoreERKNS_16ImmutableOptionsERKNS_16MutableCFOptionsE
00000000001ed0f0 T _ZN7rocksdb18VersionStorageInfo20UpdateOldestSnapshotEm
00000000001ed120 T _ZN7rocksdb10VersionSet15ApproximateSizeERKNS_24SizeApproximationOptionsEPNS_7VersionERKNS_5SliceES8_iiNS_17TableReaderCallerE
00000000001ed990 T _ZN7rocksdb21AtomicGroupReadBuffer7AddEditEPNS_11VersionEditE
00000000001edc60 t _ZZN7rocksdb12_GLOBAL__N_126SortFileByOverlappingRatioERKNS_21InternalKeyComparatorERKSt6vectorIPNS_12FileMetaDataESaIS6_EESA_PS4_INS0_5FsizeESaISB_EEENKUlRKSB_SG_E_clESG_SG_.isra.1643
00000000001edcf0 t _ZSt25__unguarded_linear_insertIN9__gnu_cxx17__normal_iteratorIPN7rocksdb12_GLOBAL__N_15FsizeESt6vectorIS4_SaIS4_EEEENS0_5__ops14_Val_comp_iterIZNS3_26SortFileByOverlappingRatioERKNS2_21InternalKeyComparatorERKS6_IPNS2_12FileMetaDataESaISG_EESK_PS8_EUlRKS4_SN_E_EEEvT_T0_
00000000001eddd0 t _ZSt13__adjust_heapIN9__gnu_cxx17__normal_iteratorIPN7rocksdb12_GLOBAL__N_15FsizeESt6vectorIS4_SaIS4_EEEElS4_NS0_5__ops15_Iter_comp_iterIZNS3_26SortFileByOverlappingRatioERKNS2_21InternalKeyComparatorERKS6_IPNS2_12FileMetaDataESaISG_EESK_PS8_EUlRKS4_SN_E_EEEvT_T0_SR_T1_T2_
00000000001ee0a0 t _ZSt16__insertion_sortIN9__gnu_cxx17__normal_iteratorIPN7rocksdb12_GLOBAL__N_15FsizeESt6vectorIS4_SaIS4_EEEENS0_5__ops15_Iter_comp_iterIZNS3_26SortFileByOverlappingRatioERKNS2_21InternalKeyComparatorERKS6_IPNS2_12FileMetaDataESaISG_EESK_PS8_EUlRKS4_SN_E_EEEvT_SQ_T0_
00000000001ee1d0 t _ZSt16__introsort_loopIN9__gnu_cxx17__normal_iteratorIPN7rocksdb12_GLOBAL__N_15FsizeESt6vectorIS4_SaIS4_EEEElNS0_5__ops15_Iter_comp_iterIZNS3_26SortFileByOverlappingRatioERKNS2_21InternalKeyComparatorERKS6_IPNS2_12FileMetaDataESaISG_EESK_PS8_EUlRKS4_SN_E_EEEvT_SQ_T0_T1_
00000000001ee600 T _ZN7rocksdb18VersionStorageInfo26UpdateFilesByCompactionPriENS_13CompactionPriE
00000000001ef310 T _ZN7rocksdb7Version12PrepareApplyERKNS_16MutableCFOptionsEb
00000000001ef400 T _ZN7rocksdb18VersionStorageInfo7AddFileEiPNS_12FileMetaDataE
00000000001ef550 T _ZN7rocksdb7Version24GetPropertiesOfAllTablesEPSt13unordered_mapINSt7__cxx1112basic_stringIcSt11char_traitsIcESaIcEEESt10shared_ptrIKNS_15TablePropertiesEESt4hashIS7_ESt8equal_toIS7_ESaISt4pairIKS7_SB_EEEi
00000000001ef850 T _ZN7rocksdb7Version24GetPropertiesOfAllTablesEPSt13unordered_mapINSt7__cxx1112basic_stringIcSt11char_traitsIcESaIcEEESt10shared_ptrIKNS_15TablePropertiesEESt4hashIS7_ESt8equal_toIS7_ESaISt4pairIKS7_SB_EEE
00000000001ef9c0 T _ZN7rocksdb7Version28GetAggregatedTablePropertiesEPSt10shared_ptrIKNS_15TablePropertiesEEi
00000000001efd10 T _ZNK7rocksdb7Version28GetPropertiesOfTablesInRangeEPKNS_5RangeEmPSt13unordered_mapINSt7__cxx1112basic_stringIcSt11char_traitsIcESaIcEEESt10shared_ptrIKNS_15TablePropertiesEESt4hashISA_ESt8equal_toISA_ESaISt4pairIKSA_SE_EEE
00000000001f0450 T _ZN7rocksdb18VersionStorageInfo11AddBlobFileESt10shared_ptrINS_16BlobFileMetaDataEE
00000000001f05d0 T _ZN7rocksdb7Version23GetColumnFamilyMetaDataEPNS_20ColumnFamilyMetaDataE
00000000001f28c0 T _ZN7rocksdb7Version3GetERKNS_11ReadOptionsERKNS_9LookupKeyEPNS_13PinnableSliceEPNSt7__cxx1112basic_stringIcSt11char_traitsIcESaIcEEEPNS_6StatusEPNS_12MergeContextEPmPbSL_SK_PNS_12ReadCallbackESL_b
00000000001f39e0 T _ZN7rocksdb7Version8MultiGetERKNS_11ReadOptionsEPNS_15MultiGetContext5RangeEPNS_12ReadCallbackE
00000000001f5b00 T _ZN7rocksdb18VersionStorageInfoD2Ev
00000000001f5da0 T _ZN7rocksdb7VersionD1Ev
00000000001f5f50 T _ZN7rocksdb10VersionSet13AppendVersionEPNS_16ColumnFamilyDataEPNS_7VersionE
00000000001f6010 T _ZN7rocksdb7Version5UnrefEv
00000000001f6050 T _ZN7rocksdb18VersionStorageInfoC1EPKNS_21InternalKeyComparatorEPKNS_10ComparatorEiNS_15CompactionStyleEPS0_b
00000000001f6990 T _ZN7rocksdb7VersionC2EPNS_16ColumnFamilyDataEPNS_10VersionSetERKNS_11FileOptionsENS_16MutableCFOptionsERKSt10shared_ptrINS_8IOTracerEEm
00000000001f6bc0 T _ZN7rocksdb10VersionSet18CreateColumnFamilyERKNS_19ColumnFamilyOptionsEPKNS_11VersionEditE
00000000001f7030 T _ZN7rocksdb10VersionSet21ProcessManifestWritesERSt5dequeINS0_14ManifestWriterESaIS2_EEPNS_17InstrumentedMutexEPNS_11FSDirectoryEbPKNS_19ColumnFamilyOptionsE
00000000001fa1d0 T _ZN7rocksdb10VersionSet11LogAndApplyERKNS_10autovectorIPNS_16ColumnFamilyDataELm8EEERKNS1_IPKNS_16MutableCFOptionsELm8EEERKNS1_INS1_IPNS_11VersionEditELm8EEELm8EEEPNS_17InstrumentedMutexEPNS_11FSDirectoryEbPKNS_19ColumnFamilyOptionsERKSt6vectorISt8functionIFvRKNS_6StatusEEESaISW_EE
00000000001fa9f0 T _ZN7rocksdb7Version24OverlapWithLevelIteratorERKNS_11ReadOptionsERKNS_11FileOptionsERKNS_5SliceES9_iPb
00000000001fb5a0 T _ZN7rocksdb10VersionSet7RecoverERKSt6vectorINS_22ColumnFamilyDescriptorESaIS2_EEbPNSt7__cxx1112basic_stringIcSt11char_traitsIcESaIcEEE
00000000001fbc60 T _ZN7rocksdb10VersionSet20ReduceNumberOfLevelsERKNSt7__cxx1112basic_stringIcSt11char_traitsIcESaIcEEEPKNS_7OptionsERKNS_11FileOptionsEi
00000000001fc870 T _ZN7rocksdb10VersionSet18ListColumnFamiliesEPSt6vectorINSt7__cxx1112basic_stringIcSt11char_traitsIcESaIcEEESaIS7_EERKS7_PNS_10FileSystemE
00000000001fd240 T _ZN7rocksdb10VersionSet12DumpManifestERNS_7OptionsERNSt7__cxx1112basic_stringIcSt11char_traitsIcESaIcEEEbbb
00000000001fd940 T _ZN7rocksdb10VersionSet25TryRecoverFromOneManifestERKNSt7__cxx1112basic_stringIcSt11char_traitsIcESaIcEEERKSt6vectorINS_22ColumnFamilyDescriptorESaISA_EEbPS6_Pb
00000000001fde90 T _ZN7rocksdb10VersionSet10TryRecoverERKSt6vectorINS_22ColumnFamilyDescriptorESaIS2_EEbRKS1_INSt7__cxx1112basic_stringIcSt11char_traitsIcESaIcEEESaISC_EEPSC_Pb
00000000001fe420 w _ZN7rocksdb11TableReader7PrepareERKNS_5SliceE
00000000001fe430 w _ZN7rocksdb22VersionEditHandlerBase10InitializeEv
00000000001fe460 w _ZN7rocksdb22VersionEditHandlerBase20CheckIterationResultERKNS_3log6ReaderEPNS_6StatusE
00000000001fe470 w _ZNSt15_Sp_counted_ptrIPN7rocksdb15TablePropertiesELN9__gnu_cxx12_Lock_policyE2EED1Ev
00000000001fe480 w _ZNSt15_Sp_counted_ptrIPN7rocksdb15TablePropertiesELN9__gnu_cxx12_Lock_policyE2EE14_M_get_deleterERKSt9type_info
00000000001fe490 w _ZNSt15_Sp_counted_ptrIPN7rocksdb15TablePropertiesELN9__gnu_cxx12_Lock_policyE2EED0Ev
00000000001fe4a0 w _ZNSt15_Sp_counted_ptrIPN7rocksdb15TablePropertiesELN9__gnu_cxx12_Lock_policyE2EE10_M_destroyEv
00000000001fe4b0 w _ZN7rocksdb18ReactiveVersionSet11LogAndApplyERKNS_10autovectorIPNS_16ColumnFamilyDataELm8EEERKNS1_IPKNS_16MutableCFOptionsELm8EEERKNS1_INS1_IPNS_11VersionEditELm8EEELm8EEEPNS_17InstrumentedMutexEPNS_11FSDirectoryEbPKNS_19ColumnFamilyOptionsERKSt6vectorISt8functionIFvRKNS_6StatusEEESaISW_EE
00000000001fe530 w _ZN7rocksdb10VersionSet11LogReporterD2Ev
00000000001fe550 w _ZN7rocksdb10VersionSet11LogReporterD0Ev
00000000001fe580 w _ZN7rocksdb10VersionSet11LogReporter10CorruptionEmRKNS_6StatusE
00000000001fe5e0 w _ZNSt6vectorIN7rocksdb15SstFileMetaDataESaIS1_EEC2ERKS3_
00000000001fe940 w _ZNSt10_HashtableIjSt4pairIKjNSt7__cxx1112basic_stringIcSt11char_traitsIcESaIcEEEESaIS8_ENSt8__detail10_Select1stESt8equal_toIjESt4hashIjENSA_18_Mod_range_hashingENSA_20_Default_ranged_hashENSA_20_Prime_rehash_policyENSA_17_Hashtable_traitsILb0ELb0ELb1EEEED2Ev
00000000001fe9e0 w _ZNSt6vectorIN7rocksdb16ObsoleteFileInfoESaIS1_EED2Ev
00000000001fea70 w _ZNSt6vectorIN7rocksdb20ObsoleteBlobFileInfoESaIS1_EED1Ev
00000000001feb00 w _ZNSt10_HashtableImSt4pairIKmN7rocksdb18VersionStorageInfo12FileLocationEESaIS5_ENSt8__detail10_Select1stESt8equal_toImESt4hashImENS7_18_Mod_range_hashingENS7_20_Default_ranged_hashENS7_20_Prime_rehash_policyENS7_17_Hashtable_traitsILb0ELb0ELb1EEEED1Ev
00000000001feb80 w _ZNSt6vectorImSaImEE12emplace_backIJmEEEvDpOT_
00000000001fece0 w _ZNSt6vectorIN7rocksdb15BlobFileGarbageESaIS1_EEaSERKS3_
00000000001feed0 w _ZNSt6vectorIN7rocksdb11WalAdditionESaIS1_EEaSERKS3_
00000000001ff050 w _ZNSt10_HashtableIjSt4pairIKjN7rocksdb10VersionSet14MutableCFStateEESaIS5_ENSt8__detail10_Select1stESt8equal_toIjESt4hashIjENS7_18_Mod_range_hashingENS7_20_Default_ranged_hashENS7_20_Prime_rehash_policyENS7_17_Hashtable_traitsILb0ELb0ELb1EEEED1Ev
00000000001ff0d0 w _ZNSt6vectorIPN7rocksdb12FileMetaDataESaIS2_EEaSERKS4_
00000000001ff230 w _ZNSt6vectorImSaImEE7reserveEm
00000000001ff310 w _ZN7rocksdb12FileMetaData24TryGetOldestAncesterTimeEv
00000000001ff3c0 w _ZN7rocksdb19FSSequentialFilePtrC2EOSt10unique_ptrINS_16FSSequentialFileESt14default_deleteIS2_EERKSt10shared_ptrINS_8IOTracerEERKNSt7__cxx1112basic_stringIcSt11char_traitsIcESaIcEEE
00000000001ff600 w _ZN7rocksdb20SequentialFileReaderC1EOSt10unique_ptrINS_16FSSequentialFileESt14default_deleteIS2_EERKNSt7__cxx1112basic_stringIcSt11char_traitsIcESaIcEEEmRKSt10shared_ptrINS_8IOTracerEE
00000000001ff700 w _ZN7rocksdb17FSWritableFilePtrC1EOSt10unique_ptrINS_14FSWritableFileESt14default_deleteIS2_EERKSt10shared_ptrINS_8IOTracerEERKNSt7__cxx1112basic_stringIcSt11char_traitsIcESaIcEEE
00000000001ffa00 w _ZNSt6vectorIN7rocksdb22ColumnFamilyDescriptorESaIS1_EEC2ERKS3_
00000000001ffb80 w _ZNSt5dequeIN7rocksdb10VersionSet14ManifestWriterESaIS2_EED1Ev
0000000000200080 w _ZNSt15_Sp_counted_ptrIPN7rocksdb15TablePropertiesELN9__gnu_cxx12_Lock_policyE2EE10_M_disposeEv
00000000002000c0 w _ZNSt6vectorISt10shared_ptrIN7rocksdb13EventListenerEESaIS3_EE12emplace_backIJRKS3_EEEvDpOT_
0000000000200130 w _ZNSt6vectorIN7rocksdb16BlobFileAdditionESaIS1_EE17_M_realloc_insertIJRmS5_S5_NSt7__cxx1112basic_stringIcSt11char_traitsIcESaIcEEESB_EEEvN9__gnu_cxx17__normal_iteratorIPS1_S3_EEDpOT_
0000000000200740 w _ZNSt6vectorIN7rocksdb15BlobFileGarbageESaIS1_EE17_M_realloc_insertIJRmS5_S5_EEEvN9__gnu_cxx17__normal_iteratorIPS1_S3_EEDpOT_
0000000000200900 w _ZNSt6vectorISt4pairIiPN7rocksdb12FileMetaDataEESaIS4_EE12emplace_backIJRiRS3_EEEvDpOT_
0000000000200aa0 w _ZNSt8_Rb_treeIjSt4pairIKjNSt7__cxx1112basic_stringIcSt11char_traitsIcESaIcEEEESt10_Select1stIS8_ESt4lessIjESaIS8_EE8_M_eraseEPSt13_Rb_tree_nodeIS8_E
0000000000200b00 w _ZN7rocksdb22VersionEditHandlerBaseD2Ev
0000000000200bc0 w _ZN7rocksdb22VersionEditHandlerBaseD0Ev
0000000000200c80 w _ZN7rocksdb18VersionEditHandlerD2Ev
0000000000201020 w _ZN7rocksdb18VersionEditHandlerD0Ev
0000000000201050 w _ZNSt8_Rb_treeImSt4pairIKmSt10shared_ptrIN7rocksdb16BlobFileMetaDataEEESt10_Select1stIS6_ESt4lessImESaIS6_EE8_M_eraseEPSt13_Rb_tree_nodeIS6_E
0000000000201110 w _ZNSt6vectorIPN7rocksdb12FileMetaDataESaIS2_EE17_M_realloc_insertIJRKS2_EEEvN9__gnu_cxx17__normal_iteratorIPS2_S4_EEDpOT_
0000000000201260 w _ZNSt6vectorIPN7rocksdb12FileMetaDataESaIS2_EE17_M_realloc_insertIJRS2_EEEvN9__gnu_cxx17__normal_iteratorIPS2_S4_EEDpOT_
00000000002013b0 w _ZNSt6vectorIN7rocksdb11VersionEditESaIS1_EE17_M_default_appendEm
0000000000201b70 w _ZNSt8_Rb_treeImSt4pairIKmN7rocksdb11WalMetadataEESt10_Select1stIS4_ESt4lessImESaIS4_EE8_M_eraseEPSt13_Rb_tree_nodeIS4_E
0000000000201bc0 w _ZNSt11_Deque_baseIPN7rocksdb10VersionSet14ManifestWriterESaIS3_EED2Ev
0000000000201c30 w _ZNSt6vectorISt10unique_ptrIN7rocksdb28BaseReferencedVersionBuilderESt14default_deleteIS2_EESaIS5_EE17_M_realloc_insertIJPS2_EEEvN9__gnu_cxx17__normal_iteratorIPS5_S7_EEDpOT_
0000000000201e10 w _ZNSt5dequeIN7rocksdb10VersionSet14ManifestWriterESaIS2_EE16_M_push_back_auxIJRPNS0_17InstrumentedMutexERKPNS0_16ColumnFamilyDataERKNS0_16MutableCFOptionsERKNS0_10autovectorIPNS0_11VersionEditELm8EEERKSt8functionIFvRKNS0_6StatusEEEEEEvDpOT_
0000000000202120 w _ZNSt6vectorIN7rocksdb16LiveFileMetaDataESaIS1_EE17_M_realloc_insertIJRKS1_EEEvN9__gnu_cxx17__normal_iteratorIPS1_S3_EEDpOT_
0000000000202de0 w _ZNSt6vectorIN7rocksdb16ObsoleteFileInfoESaIS1_EE17_M_realloc_insertIJS1_EEEvN9__gnu_cxx17__normal_iteratorIPS1_S3_EEDpOT_
00000000002030a0 w _ZNSt6vectorIN7rocksdb16ObsoleteFileInfoESaIS1_EE12emplace_backIJS1_EEEvDpOT_
0000000000203140 w _ZNSt6vectorIN7rocksdb20ObsoleteBlobFileInfoESaIS1_EE17_M_realloc_insertIJS1_EEEvN9__gnu_cxx17__normal_iteratorIPS1_S3_EEDpOT_
00000000002033f0 w _ZNSt6vectorIN7rocksdb20ObsoleteBlobFileInfoESaIS1_EE12emplace_backIJS1_EEEvDpOT_
0000000000203480 w _ZNSt6vectorIN7rocksdb15LevelFilesBriefESaIS1_EE17_M_default_appendEm
0000000000203630 w _ZNSt6vectorISt4pairIiPN7rocksdb12FileMetaDataEESaIS4_EE17_M_realloc_insertIJRKS4_EEEvN9__gnu_cxx17__normal_iteratorIPS4_S6_EEDpOT_
00000000002037a0 w _ZNSt8_Rb_treeISt4pairIimES1_St9_IdentityIS1_ESt4lessIS1_ESaIS1_EE7_M_copyINS7_20_Reuse_or_alloc_nodeEEEPSt13_Rb_tree_nodeIS1_EPKSB_PSt18_Rb_tree_node_baseRT_
0000000000203a40 w _ZNSt8_Rb_treeISt4pairIimES1_St9_IdentityIS1_ESt4lessIS1_ESaIS1_EEaSERKS7_
0000000000203b80 w _ZNSt6vectorIPN7rocksdb7VersionESaIS2_EE17_M_realloc_insertIJRKS2_EEEvN9__gnu_cxx17__normal_iteratorIPS2_S4_EEDpOT_
0000000000203cd0 w _ZNSt5dequeIPN7rocksdb10VersionSet14ManifestWriterESaIS3_EE16_M_push_back_auxIJS3_EEEvDpOT_
0000000000203ea0 w _ZNSt6vectorIPN7rocksdb14FdWithKeyRangeESaIS2_EE17_M_realloc_insertIJRKS2_EEEvN9__gnu_cxx17__normal_iteratorIPS2_S4_EEDpOT_
0000000000203ff0 w _ZN7rocksdb12FileMetaDataC2ERKS0_
0000000000204200 w _ZNSt6vectorISt4pairIiN7rocksdb12FileMetaDataEESaIS3_EEaSERKS5_
00000000002047b0 w _ZNSt6vectorIN7rocksdb16BlobFileAdditionESaIS1_EEaSERKS3_
0000000000204c80 w _ZNSt8_Rb_treeIjSt4pairIKjNSt7__cxx1112basic_stringIcSt11char_traitsIcESaIcEEEESt10_Select1stIS8_ESt4lessIjESaIS8_EE7_M_copyINSE_11_Alloc_nodeEEEPSt13_Rb_tree_nodeIS8_EPKSI_PSt18_Rb_tree_node_baseRT_
0000000000204e40 w _ZNSt8_Rb_treeIjSt4pairIKjN7rocksdb18PerfContextByLevelEESt10_Select1stIS4_ESt4lessIjESaIS4_EE24_M_get_insert_unique_posERS1_
0000000000204ee0 w _ZNSt8_Rb_treeIjSt4pairIKjN7rocksdb18PerfContextByLevelEESt10_Select1stIS4_ESt4lessIjESaIS4_EE29_M_get_insert_hint_unique_posESt23_Rb_tree_const_iteratorIS4_ERS1_
0000000000204fd0 w _ZNSt3mapIjN7rocksdb18PerfContextByLevelESt4lessIjESaISt4pairIKjS1_EEEixEOj
0000000000205100 w _ZNSt8__detail9_Map_baseImSt4pairIKmmESaIS3_ENS_10_Select1stESt8equal_toImESt4hashImENS_18_Mod_range_hashingENS_20_Default_ranged_hashENS_20_Prime_rehash_policyENS_17_Hashtable_traitsILb0ELb0ELb1EEELb1EEixEOm
00000000002051d0 w _ZNSt10_HashtableImSt4pairIKmN7rocksdb18VersionStorageInfo12FileLocationEESaIS5_ENSt8__detail10_Select1stESt8equal_toImESt4hashImENS7_18_Mod_range_hashingENS7_20_Default_ranged_hashENS7_20_Prime_rehash_policyENS7_17_Hashtable_traitsILb0ELb0ELb1EEEE9_M_rehashEmRS1_
00000000002052f0 w _ZNSt10_HashtableImSt4pairIKmN7rocksdb18VersionStorageInfo12FileLocationEESaIS5_ENSt8__detail10_Select1stESt8equal_toImESt4hashImENS7_18_Mod_range_hashingENS7_20_Default_ranged_hashENS7_20_Prime_rehash_policyENS7_17_Hashtable_traitsILb0ELb0ELb1EEEE21_M_insert_unique_nodeEmmPNS7_10_Hash_nodeIS5_Lb0EEE
0000000000205410 w _ZNSt8_Rb_treeIjSt4pairIKjNSt7__cxx1112basic_stringIcSt11char_traitsIcESaIcEEEESt10_Select1stIS8_ESt4lessIjESaIS8_EE24_M_get_insert_unique_posERS1_
00000000002054b0 w _ZNSt8_Rb_treeIjSt4pairIKjNSt7__cxx1112basic_stringIcSt11char_traitsIcESaIcEEEESt10_Select1stIS8_ESt4lessIjESaIS8_EE29_M_get_insert_hint_unique_posESt23_Rb_tree_const_iteratorIS8_ERS1_
00000000002055a0 w _ZNSt10_HashtableINSt7__cxx1112basic_stringIcSt11char_traitsIcESaIcEEESt4pairIKS5_St10shared_ptrIKN7rocksdb15TablePropertiesEEESaISD_ENSt8__detail10_Select1stESt8equal_toIS5_ESt4hashIS5_ENSF_18_Mod_range_hashingENSF_20_Default_ranged_hashENSF_20_Prime_rehash_policyENSF_17_Hashtable_traitsILb1ELb0ELb1EEEE10_M_emplaceIJSD_EEES6_INSF_14_Node_iteratorISD_Lb0ELb1EEEbESt17integral_constantIbLb1EEDpOT_
0000000000205750 w _ZNSt8_Rb_treeImSt4pairIKmSt10shared_ptrIN7rocksdb16BlobFileMetaDataEEESt10_Select1stIS6_ESt4lessImESaIS6_EE24_M_get_insert_unique_posERS1_
00000000002057f0 w _ZNSt8_Rb_treeImSt4pairIKmSt10shared_ptrIN7rocksdb16BlobFileMetaDataEEESt10_Select1stIS6_ESt4lessImESaIS6_EE29_M_get_insert_hint_unique_posESt23_Rb_tree_const_iteratorIS6_ERS1_
00000000002058e0 w _ZNSt10_HashtableIjSt4pairIKjN7rocksdb10VersionSet14MutableCFStateEESaIS5_ENSt8__detail10_Select1stESt8equal_toIjESt4hashIjENS7_18_Mod_range_hashingENS7_20_Default_ranged_hashENS7_20_Prime_rehash_policyENS7_17_Hashtable_traitsILb0ELb0ELb1EEEE9_M_rehashEmRKm
0000000000205a00 w _ZNSt10_HashtableIjSt4pairIKjN7rocksdb10VersionSet14MutableCFStateEESaIS5_ENSt8__detail10_Select1stESt8equal_toIjESt4hashIjENS7_18_Mod_range_hashingENS7_20_Default_ranged_hashENS7_20_Prime_rehash_policyENS7_17_Hashtable_traitsILb0ELb0ELb1EEEE21_M_insert_unique_nodeEmmPNS7_10_Hash_nodeIS5_Lb0EEE
0000000000205b20 w _ZNSt20__uninitialized_copyILb0EE13__uninit_copyIPKN7rocksdb13LevelMetaDataEPS3_EET0_T_S8_S7_
0000000000205f00 w _ZNSt6vectorIN7rocksdb13LevelMetaDataESaIS1_EE17_M_realloc_insertIJRiRmS_INS0_15SstFileMetaDataESaIS7_EEEEEvN9__gnu_cxx17__normal_iteratorIPS1_S3_EEDpOT_
0000000000206230 t _ZNSt7__cxx1112basic_stringIcSt11char_traitsIcESaIcEE12_M_constructIPKcEEvT_S8_St20forward_iterator_tag.isra.53
0000000000206300 T _ZNK7rocksdb11WalAddition8EncodeToEPNSt7__cxx1112basic_stringIcSt11char_traitsIcESaIcEEE
0000000000206470 T _ZN7rocksdblsERNS_10JSONWriterERKNS_11WalAdditionE
00000000002067e0 T _ZN7rocksdblsERSoRKNS_11WalAdditionE
0000000000206850 T _ZNK7rocksdb11WalDeletion8EncodeToEPNSt7__cxx1112basic_stringIcSt11char_traitsIcESaIcEEE
00000000002068e0 T _ZN7rocksdb11WalDeletion10DecodeFromEPNS_5SliceE
0000000000206a00 T _ZN7rocksdblsERNS_10JSONWriterERKNS_11WalDeletionE
0000000000206bf0 T _ZN7rocksdblsERSoRKNS_11WalDeletionE
0000000000206c30 T _ZNK7rocksdb11WalDeletion11DebugStringB5cxx11Ev
0000000000207170 T _ZNK7rocksdb11WalAddition11DebugStringB5cxx11Ev
00000000002076b0 T _ZN7rocksdb11WalAddition10DecodeFromEPNS_5SliceE
0000000000208090 T _ZNK7rocksdb6WalSet9CheckWalsEPNS_3EnvERKSt13unordered_mapImNSt7__cxx1112basic_stringIcSt11char_traitsIcESaIcEEESt4hashImESt8equal_toImESaISt4pairIKmS9_EEE
00000000002090f0 T _ZN7rocksdb6WalSet5ResetEv
0000000000209130 T _ZN7rocksdb6WalSet16DeleteWalsBeforeEm
0000000000209230 T _ZN7rocksdb6WalSet6AddWalERKNS_11WalAdditionE
000000000020a040 T _ZN7rocksdb6WalSet7AddWalsERKSt6vectorINS_11WalAdditionESaIS2_EE
000000000020a130 w _ZNSt8_Rb_treeImSt4pairIKmN7rocksdb11WalMetadataEESt10_Select1stIS4_ESt4lessImESaIS4_EE24_M_get_insert_unique_posERS1_
000000000020a1c0 w _ZNSt8_Rb_treeImSt4pairIKmN7rocksdb11WalMetadataEESt10_Select1stIS4_ESt4lessImESaIS4_EE29_M_get_insert_hint_unique_posESt23_Rb_tree_const_iteratorIS4_ERS1_
000000000020a2a0 t _ZZN7rocksdb10WalManager13ReadFirstLineERKNSt7__cxx1112basic_stringIcSt11char_traitsIcESaIcEEEmPmEN11LogReporter10CorruptionEmRKNS_6StatusE
000000000020a3d0 t _ZZN7rocksdb10WalManager13ReadFirstLineERKNSt7__cxx1112basic_stringIcSt11char_traitsIcESaIcEEEmPmEN11LogReporterD2Ev
000000000020a3e0 t _ZZN7rocksdb10WalManager13ReadFirstLineERKNSt7__cxx1112basic_stringIcSt11char_traitsIcESaIcEEEmPmEN11LogReporterD0Ev
000000000020a410 t _ZNSt7__cxx1112basic_stringIcSt11char_traitsIcESaIcEE12_M_constructIPKcEEvT_S8_St20forward_iterator_tag.isra.106
000000000020a4e0 t _ZNSt10_HashtableImSt4pairIKmmESaIS2_ENSt8__detail10_Select1stESt8equal_toImESt4hashImENS4_18_Mod_range_hashingENS4_20_Default_ranged_hashENS4_20_Prime_rehash_policyENS4_17_Hashtable_traitsILb0ELb0ELb1EEEE8_M_eraseESt17integral_constantIbLb1EERS1_.isra.190
000000000020a5e0 t _ZSt25__unguarded_linear_insertIN9__gnu_cxx17__normal_iteratorIPSt10unique_ptrIN7rocksdb7LogFileESt14default_deleteIS4_EESt6vectorIS7_SaIS7_EEEENS0_5__ops14_Val_comp_iterIZNS3_10WalManager19GetSortedWalsOfTypeERKNSt7__cxx1112basic_stringIcSt11char_traitsIcESaIcEEERSB_NS3_11WalFileTypeEEUlRKS7_SR_E_EEEvT_T0_.isra.162
000000000020a6d0 t _ZSt16__insertion_sortIN9__gnu_cxx17__normal_iteratorIPSt10unique_ptrIN7rocksdb7LogFileESt14default_deleteIS4_EESt6vectorIS7_SaIS7_EEEENS0_5__ops15_Iter_comp_iterIZNS3_10WalManager19GetSortedWalsOfTypeERKNSt7__cxx1112basic_stringIcSt11char_traitsIcESaIcEEERSB_NS3_11WalFileTypeEEUlRKS7_SR_E_EEEvT_SU_T0_.isra.181
000000000020a810 t _ZSt13__adjust_heapIN9__gnu_cxx17__normal_iteratorIPSt10unique_ptrIN7rocksdb7LogFileESt14default_deleteIS4_EESt6vectorIS7_SaIS7_EEEElS7_NS0_5__ops15_Iter_comp_iterIZNS3_10WalManager19GetSortedWalsOfTypeERKNSt7__cxx1112basic_stringIcSt11char_traitsIcESaIcEEERSB_NS3_11WalFileTypeEEUlRKS7_SR_E_EEEvT_T0_SV_T1_T2_.isra.156
000000000020aad0 t _ZSt16__introsort_loopIN9__gnu_cxx17__normal_iteratorIPSt10unique_ptrIN7rocksdb7LogFileESt14default_deleteIS4_EESt6vectorIS7_SaIS7_EEEElNS0_5__ops15_Iter_comp_iterIZNS3_10WalManager19GetSortedWalsOfTypeERKNSt7__cxx1112basic_stringIcSt11char_traitsIcESaIcEEERSB_NS3_11WalFileTypeEEUlRKS7_SR_E_EEEvT_SU_T0_T1_
000000000020afe0 T _ZN7rocksdb10WalManager10DeleteFileERKNSt7__cxx1112basic_stringIcSt11char_traitsIcESaIcEEEm
000000000020b270 T _ZN7rocksdb10WalManager14ArchiveWALFileERKNSt7__cxx1112basic_stringIcSt11char_traitsIcESaIcEEEm
000000000020b460 T _ZN7rocksdb10WalManager22RetainProbableWalFilesERSt6vectorISt10unique_ptrINS_7LogFileESt14default_deleteIS3_EESaIS6_EEm
000000000020b620 T _ZN7rocksdb10WalManager14GetLiveWalFileEmPSt10unique_ptrINS_7LogFileESt14default_deleteIS2_EE
000000000020b9a0 T _ZN7rocksdb10WalManager13ReadFirstLineERKNSt7__cxx1112basic_stringIcSt11char_traitsIcESaIcEEEmPm
000000000020c720 T _ZN7rocksdb10WalManager15ReadFirstRecordENS_11WalFileTypeEmPm
000000000020cfa0 T _ZN7rocksdb10WalManager19GetSortedWalsOfTypeERKNSt7__cxx1112basic_stringIcSt11char_traitsIcESaIcEEERSt6vectorISt10unique_ptrINS_7LogFileESt14default_deleteISB_EESaISE_EENS_11WalFileTypeE
000000000020db90 T _ZN7rocksdb10WalManager17GetSortedWalFilesERSt6vectorISt10unique_ptrINS_7LogFileESt14default_deleteIS3_EESaIS6_EE
000000000020e1d0 T _ZN7rocksdb10WalManager15GetUpdatesSinceEmPSt10unique_ptrINS_22TransactionLogIteratorESt14default_deleteIS2_EERKNS2_11ReadOptionsEPNS_10VersionSetE
000000000020e480 T _ZN7rocksdb10WalManager21PurgeObsoleteWALFilesEv
000000000020f9e0 w _ZNK7rocksdb11LogFileImpl9LogNumberEv
000000000020f9f0 w _ZNK7rocksdb11LogFileImpl4TypeEv
000000000020fa00 w _ZNK7rocksdb11LogFileImpl13StartSequenceEv
000000000020fa10 w _ZNK7rocksdb11LogFileImpl13SizeFileBytesEv
000000000020fa20 w _ZN7rocksdb11LogFileImplD1Ev
000000000020fa30 w _ZN7rocksdb11LogFileImplD0Ev
000000000020fa40 w _ZNK7rocksdb11LogFileImpl8PathNameB5cxx11Ev
000000000020fb10 w _ZNSt6vectorISt10unique_ptrIN7rocksdb7LogFileESt14default_deleteIS2_EESaIS5_EED1Ev
000000000020fb80 w _ZNSt6vectorISt10unique_ptrIN7rocksdb7LogFileESt14default_deleteIS2_EESaIS5_EE7reserveEm
000000000020fcb0 w _ZNSt10unique_ptrISt6vectorIS_IN7rocksdb7LogFileESt14default_deleteIS2_EESaIS5_EES3_IS7_EED2Ev
000000000020fd30 w _ZNSt6vectorISt10unique_ptrIN7rocksdb7LogFileESt14default_deleteIS2_EESaIS5_EE17_M_realloc_insertIJS5_EEEvN9__gnu_cxx17__normal_iteratorIPS5_S7_EEDpOT_
000000000020fef0 w _ZNSt6vectorISt10unique_ptrIN7rocksdb7LogFileESt14default_deleteIS2_EESaIS5_EE12emplace_backIJS5_EEEvDpOT_
000000000020ff30 t _ZN7rocksdb12_GLOBAL__N_122BatchContentClassifier5PutCFEjRKNS_5SliceES4_
000000000020ff50 t _ZN7rocksdb12_GLOBAL__N_122BatchContentClassifier8DeleteCFEjRKNS_5SliceE
000000000020ff70 t _ZN7rocksdb12_GLOBAL__N_122BatchContentClassifier14SingleDeleteCFEjRKNS_5SliceE
000000000020ff90 t _ZN7rocksdb12_GLOBAL__N_122BatchContentClassifier13DeleteRangeCFEjRKNS_5SliceES4_
000000000020ffb0 t _ZN7rocksdb12_GLOBAL__N_122BatchContentClassifier7MergeCFEjRKNS_5SliceES4_
000000000020ffd0 t _ZN7rocksdb12_GLOBAL__N_122BatchContentClassifier14PutBlobIndexCFEjRKNS_5SliceES4_
000000000020fff0 t _ZN7rocksdb12_GLOBAL__N_122BatchContentClassifier16MarkBeginPrepareEb
0000000000210020 t _ZN7rocksdb12_GLOBAL__N_122BatchContentClassifier14MarkEndPrepareERKNS_5SliceE
0000000000210040 t _ZN7rocksdb12_GLOBAL__N_122BatchContentClassifier10MarkCommitERKNS_5SliceE
0000000000210060 t _ZN7rocksdb12_GLOBAL__N_122BatchContentClassifier12MarkRollbackERKNS_5SliceE
0000000000210080 t _ZN7rocksdb12_GLOBAL__N_117TimestampAssignerD2Ev
0000000000210090 t _ZN7rocksdb12_GLOBAL__N_117TimestampAssigner14PutBlobIndexCFEjRKNS_5SliceES4_
00000000002100b0 t _ZN7rocksdb12_GLOBAL__N_117TimestampAssigner16MarkBeginPrepareEb
00000000002100d0 t _ZN7rocksdb12_GLOBAL__N_117TimestampAssigner14MarkEndPrepareERKNS_5SliceE
00000000002100f0 T _ZN7rocksdb10WriteBatch7HandlerD1Ev
0000000000210100 T _ZN7rocksdb10WriteBatch7Handler7LogDataERKNS_5SliceE
0000000000210110 T _ZN7rocksdb10WriteBatch7Handler8ContinueEv
0000000000210120 T _ZN7rocksdb10WriteBatch12PopSavePointEv
00000000002101a0 t _ZN7rocksdb12_GLOBAL__N_122BatchContentClassifierD2Ev
00000000002101b0 T _ZN7rocksdb10WriteBatch7HandlerD0Ev
00000000002101c0 t _ZN7rocksdb12_GLOBAL__N_122BatchContentClassifierD0Ev
00000000002101d0 t _ZN7rocksdb12_GLOBAL__N_117TimestampAssignerD0Ev
00000000002101e0 T _ZN7rocksdb10WriteBatch5ClearEv
00000000002102c0 t _ZN7rocksdb12_GLOBAL__N_117TimestampAssigner5PutCFEjRKNS_5SliceES4_
00000000002103e0 t _ZNSt7__cxx1112basic_stringIcSt11char_traitsIcESaIcEE12_M_constructIPKcEEvT_S8_St20forward_iterator_tag.isra.165
00000000002104b0 t _ZNSt8__detail16_Hashtable_allocISaINS_10_Hash_nodeISt4pairIKNSt7__cxx1112basic_stringIcSt11char_traitsIcESaIcEEEPN7rocksdb6DBImpl20RecoveredTransactionEELb1EEEEE19_M_allocate_bucketsEm.isra.237
0000000000210500 T _ZN7rocksdb10WriteBatchD2Ev
00000000002105b0 T _ZN7rocksdb10WriteBatchD0Ev
00000000002105d0 t _ZN7rocksdb12_GLOBAL__N_117TimestampAssigner8DeleteCFEjRKNS_5SliceE
00000000002106f0 T _ZN7rocksdb10WriteBatchC2Emm
00000000002107d0 T _ZN7rocksdb10WriteBatchC1Emmm
00000000002108b0 T _ZN7rocksdb10WriteBatchC2Emmmm
0000000000210a10 T _ZN7rocksdb10WriteBatchC1ERKNSt7__cxx1112basic_stringIcSt11char_traitsIcESaIcEEE
0000000000210ac0 T _ZN7rocksdb10WriteBatchC1EONSt7__cxx1112basic_stringIcSt11char_traitsIcESaIcEEE
0000000000210b50 T _ZN7rocksdb10WriteBatchC2EOS0_
0000000000210bf0 T _ZN7rocksdb10WriteBatchaSEOS0_
0000000000210c20 T _ZNK7rocksdb10WriteBatch5CountEv
0000000000210c30 T _ZN7rocksdb10WriteBatch23MarkWalTerminationPointEv
0000000000210c50 T _ZNK7rocksdb10WriteBatch24GetProtectionBytesPerKeyEv
0000000000210c60 T _ZN7rocksdb26ReadKeyFromWriteBatchEntryEPNS_5SliceES1_b
0000000000210d70 T _ZN7rocksdb24ReadRecordFromWriteBatchEPNS_5SliceEPcPjS1_S1_S1_S1_
00000000002112a0 T _ZN7rocksdb18WriteBatchInternal7IterateEPKNS_10WriteBatchEPNS1_7HandlerEmm
0000000000211e70 T _ZNK7rocksdb10WriteBatch7IterateEPNS0_7HandlerE
0000000000211f10 T _ZNK7rocksdb10WriteBatch19ComputeContentFlagsEv
0000000000211f90 T _ZNK7rocksdb10WriteBatch6HasPutEv
0000000000211fa0 T _ZNK7rocksdb10WriteBatch9HasDeleteEv
0000000000211fc0 T _ZNK7rocksdb10WriteBatch15HasSingleDeleteEv
0000000000211fe0 T _ZNK7rocksdb10WriteBatch14HasDeleteRangeEv
0000000000212000 T _ZNK7rocksdb10WriteBatch8HasMergeEv
0000000000212020 T _ZNK7rocksdb10WriteBatch15HasBeginPrepareEv
0000000000212040 T _ZNK7rocksdb10WriteBatch13HasEndPrepareEv
0000000000212060 T _ZNK7rocksdb10WriteBatch9HasCommitEv
0000000000212070 T _ZNK7rocksdb10WriteBatch11HasRollbackEv
0000000000212090 T _ZN7rocksdb18WriteBatchInternal23IsLatestPersistentStateEPKNS_10WriteBatchE
00000000002120a0 T _ZN7rocksdb18WriteBatchInternal26SetAsLatestPersistentStateEPNS_10WriteBatchE
00000000002120b0 T _ZN7rocksdb18WriteBatchInternal5CountEPKNS_10WriteBatchE
00000000002120c0 T _ZN7rocksdb18WriteBatchInternal8SetCountEPNS_10WriteBatchEj
00000000002120d0 T _ZN7rocksdb18WriteBatchInternal8SequenceEPKNS_10WriteBatchE
00000000002120e0 T _ZN7rocksdb18WriteBatchInternal11SetSequenceEPNS_10WriteBatchEm
00000000002120f0 T _ZN7rocksdb18WriteBatchInternal14GetFirstOffsetEPNS_10WriteBatchE
0000000000212100 T _ZN7rocksdb18WriteBatchInternal21CheckSlicePartsLengthERKNS_10SlicePartsES3_
0000000000212230 T _ZN7rocksdb18WriteBatchInternal10InsertNoopEPNS_10WriteBatchE
00000000002122c0 T _ZN7rocksdb18WriteBatchInternal14MarkEndPrepareEPNS_10WriteBatchERKNS_5SliceEbb
00000000002124a0 T _ZN7rocksdb18WriteBatchInternal10MarkCommitEPNS_10WriteBatchERKNS_5SliceE
00000000002125d0 T _ZN7rocksdb18WriteBatchInternal12MarkRollbackEPNS_10WriteBatchERKNS_5SliceE
0000000000212700 T _ZN7rocksdb10WriteBatch15AssignTimestampERKNS_5SliceE
0000000000212780 T _ZN7rocksdb10WriteBatch16AssignTimestampsERKSt6vectorINS_5SliceESaIS2_EE
0000000000212800 T _ZN7rocksdb18WriteBatchInternal11SetContentsEPNS_10WriteBatchERKNS_5SliceE
0000000000212850 T _ZN7rocksdb18WriteBatchInternal16AppendedByteSizeEmm
0000000000212870 T _ZN7rocksdb10WriteBatchC1ERKS0_
0000000000212c40 T _ZN7rocksdb10WriteBatchaSERKS0_
0000000000212c70 T _ZN7rocksdb18WriteBatchInternal6AppendEPNS_10WriteBatchEPKS1_b
0000000000213040 T _ZN7rocksdb18WriteBatchInternal10InsertIntoEPKNS_10WriteBatchEPNS_21ColumnFamilyMemTablesEPNS_14FlushSchedulerEPNS_20TrimHistorySchedulerEbmPNS_2DBEbPmPbbb
0000000000213310 T _ZN7rocksdb18WriteBatchInternal10InsertIntoEPNS_11WriteThread6WriterEmPNS_21ColumnFamilyMemTablesEPNS_14FlushSchedulerEPNS_20TrimHistorySchedulerEbmPNS_2DBEbbmbb
00000000002135f0 T _ZN7rocksdb18WriteBatchInternal10InsertIntoERNS_11WriteThread10WriteGroupEmPNS_21ColumnFamilyMemTablesEPNS_14FlushSchedulerEPNS_20TrimHistorySchedulerEbmPNS_2DBEbbb
0000000000213990 T _ZN7rocksdb10WriteBatch19RollbackToSavePointEv
0000000000213bb0 T _ZN7rocksdb18WriteBatchInternal3PutEPNS_10WriteBatchEjRKNS_5SliceES5_
0000000000214070 T _ZN7rocksdb10WriteBatch3PutEPNS_18ColumnFamilyHandleERKNS_5SliceES5_
00000000002140e0 T _ZN7rocksdb18WriteBatchInternal3PutEPNS_10WriteBatchEjRKNS_10SlicePartsES5_
00000000002147b0 T _ZN7rocksdb10WriteBatch3PutEPNS_18ColumnFamilyHandleERKNS_10SlicePartsES5_
0000000000214820 T _ZN7rocksdb18WriteBatchInternal6DeleteEPNS_10WriteBatchEjRKNS_5SliceE
0000000000214c50 T _ZN7rocksdb10WriteBatch6DeleteEPNS_18ColumnFamilyHandleERKNS_5SliceE
0000000000214cb0 T _ZN7rocksdb18WriteBatchInternal6DeleteEPNS_10WriteBatchEjRKNS_10SlicePartsE
0000000000215200 T _ZN7rocksdb10WriteBatch6DeleteEPNS_18ColumnFamilyHandleERKNS_10SlicePartsE
0000000000215260 T _ZN7rocksdb18WriteBatchInternal5MergeEPNS_10WriteBatchEjRKNS_5SliceES5_
0000000000215610 T _ZN7rocksdb10WriteBatch5MergeEPNS_18ColumnFamilyHandleERKNS_5SliceES5_
0000000000215680 T _ZN7rocksdb18WriteBatchInternal5MergeEPNS_10WriteBatchEjRKNS_10SlicePartsES5_
0000000000215b90 T _ZN7rocksdb10WriteBatch5MergeEPNS_18ColumnFamilyHandleERKNS_10SlicePartsES5_
0000000000215c00 T _ZN7rocksdb10WriteBatch10PutLogDataERKNS_5SliceE
0000000000215e80 T _ZN7rocksdb18WriteBatchInternal12SingleDeleteEPNS_10WriteBatchEjRKNS_5SliceE
0000000000216310 T _ZN7rocksdb10WriteBatch12SingleDeleteEPNS_18ColumnFamilyHandleERKNS_5SliceE
0000000000216370 T _ZN7rocksdb18WriteBatchInternal12PutBlobIndexEPNS_10WriteBatchEjRKNS_5SliceES5_
0000000000216840 T _ZN7rocksdb18WriteBatchInternal11DeleteRangeEPNS_10WriteBatchEjRKNS_5SliceES5_
0000000000216d10 T _ZN7rocksdb10WriteBatch11DeleteRangeEPNS_18ColumnFamilyHandleERKNS_5SliceES5_
0000000000216d80 T _ZN7rocksdb18WriteBatchInternal12SingleDeleteEPNS_10WriteBatchEjRKNS_10SlicePartsE
0000000000217240 T _ZN7rocksdb10WriteBatch12SingleDeleteEPNS_18ColumnFamilyHandleERKNS_10SlicePartsE
00000000002172a0 T _ZN7rocksdb18WriteBatchInternal11DeleteRangeEPNS_10WriteBatchEjRKNS_10SlicePartsES5_
00000000002178a0 T _ZN7rocksdb10WriteBatch11DeleteRangeEPNS_18ColumnFamilyHandleERKNS_10SlicePartsES5_
0000000000217910 T _ZN7rocksdb10WriteBatch12SetSavePointEv
0000000000217aa0 w _ZN7rocksdb10WriteBatch3PutERKNS_5SliceES3_
0000000000217af0 w _ZN7rocksdb10WriteBatch3PutERKNS_10SlicePartsES3_
0000000000217b40 w _ZN7rocksdb10WriteBatch6DeleteERKNS_5SliceE
0000000000217b90 w _ZN7rocksdb10WriteBatch6DeleteERKNS_10SlicePartsE
0000000000217be0 w _ZN7rocksdb10WriteBatch12SingleDeleteERKNS_5SliceE
0000000000217c30 w _ZN7rocksdb10WriteBatch12SingleDeleteERKNS_10SlicePartsE
0000000000217c80 w _ZN7rocksdb10WriteBatch11DeleteRangeERKNS_5SliceES3_
0000000000217cd0 w _ZN7rocksdb10WriteBatch11DeleteRangeERKNS_10SlicePartsES3_
0000000000217d20 w _ZN7rocksdb10WriteBatch5MergeERKNS_5SliceES3_
0000000000217d70 w _ZN7rocksdb10WriteBatch5MergeERKNS_10SlicePartsES3_
0000000000217dc0 w _ZN7rocksdb10WriteBatch13GetWriteBatchEv
0000000000217dd0 w _ZN7rocksdb10WriteBatch11SetMaxBytesEm
0000000000217de0 w _ZNK7rocksdb16MemTableInserter18WriteBeforePrepareEv
0000000000217df0 w _ZNK7rocksdb16MemTableInserter16WriteAfterCommitEv
0000000000217e00 w _ZN7rocksdb16MemTableInserter8MarkNoopEb
0000000000217e30 w _ZN7rocksdb10WriteBatch7Handler8MarkNoopEb
0000000000217eb0 w _ZN7rocksdb10WriteBatch7Handler13DeleteRangeCFEjRKNS_5SliceES4_
0000000000217f30 w _ZN7rocksdb10WriteBatch7Handler14PutBlobIndexCFEjRKNS_5SliceES4_
0000000000217fb0 w _ZN7rocksdb10WriteBatch7Handler16MarkBeginPrepareEb
0000000000218030 w _ZN7rocksdb10WriteBatch7Handler14MarkEndPrepareERKNS_5SliceE
00000000002180b0 w _ZN7rocksdb10WriteBatch7Handler10MarkCommitERKNS_5SliceE
0000000000218130 w _ZN7rocksdb10WriteBatch7Handler12MarkRollbackERKNS_5SliceE
00000000002181b0 w _ZN7rocksdb10WriteBatch7Handler7MergeCFEjRKNS_5SliceES4_
0000000000218280 w _ZN7rocksdb10WriteBatch7Handler5PutCFEjRKNS_5SliceES4_
0000000000218350 w _ZN7rocksdb10WriteBatch7Handler8DeleteCFEjRKNS_5SliceE
0000000000218410 w _ZN7rocksdb10WriteBatch7Handler14SingleDeleteCFEjRKNS_5SliceE
00000000002184d0 w _ZN7rocksdb22GetLengthPrefixedSliceEPNS_5SliceES1_
0000000000218580 w _ZN7rocksdb16MemTableInserter16MarkBeginPrepareEb
0000000000218690 w _ZN7rocksdb16MemTableInserter18SeekToColumnFamilyEjPNS_6StatusE
0000000000218840 w _ZN7rocksdb16MemTableInserter17CheckMemtableFullEv
0000000000218960 w _ZNK7rocksdb14ProtectionInfoImE11ProtectKVOTERKNS_5SliceES4_NS_9ValueTypeES4_
00000000002189f0 w _ZNK7rocksdb14ProtectionInfoImE11ProtectKVOTERKNS_10SlicePartsES4_NS_9ValueTypeERKNS_5SliceE
0000000000218a80 w _ZNSt10_HashtableIPN7rocksdb8MemTableESt4pairIKS2_PvESaIS6_ENSt8__detail10_Select1stESt8equal_toIS2_ESt4hashIS2_ENS8_18_Mod_range_hashingENS8_20_Default_ranged_hashENS8_20_Prime_rehash_policyENS8_17_Hashtable_traitsILb0ELb0ELb1EEEED1Ev
0000000000218b00 w _ZNSt8_Rb_treeIN7rocksdb5SliceES1_St9_IdentityIS1_ENS0_13SetComparatorESaIS1_EE16_M_insert_uniqueIRKS1_EESt4pairISt17_Rb_tree_iteratorIS1_EbEOT_
0000000000218c50 w _ZNSt8_Rb_treeIN7rocksdb5SliceES1_St9_IdentityIS1_ENS0_13SetComparatorESaIS1_EE8_M_eraseEPSt13_Rb_tree_nodeIS1_E
0000000000218ca0 w _ZNSt8_Rb_treeIjSt4pairIKjSt3setIN7rocksdb5SliceENS3_13SetComparatorESaIS4_EEESt10_Select1stIS8_ESt4lessIjESaIS8_EE8_M_eraseEPSt13_Rb_tree_nodeIS8_E
0000000000218d00 w _ZN7rocksdb10autovectorINS_19ProtectionInfoKVOTCImEELm8EE6assignERKS3_
0000000000218ed0 w _ZNSt6vectorIN7rocksdb19ProtectionInfoKVOTCImEESaIS2_EE12emplace_backIJS2_EEEvDpOT_
0000000000219050 w _ZNSt8_Rb_treeIPN7rocksdb8MemTableESt4pairIKS2_NS0_23MemTablePostProcessInfoEESt10_Select1stIS6_ESt4lessIS2_ESaIS6_EE8_M_eraseEPSt13_Rb_tree_nodeIS6_E
00000000002190a0 w _ZN7rocksdb16MemTableInserterD1Ev
0000000000219160 w _ZN7rocksdb16MemTableInserterD0Ev
0000000000219220 w _ZN7rocksdb18ProtectionInfoKVOTImE7UpdateOENS_9ValueTypeES2_
0000000000219290 w _ZNSt6vectorIN7rocksdb19ProtectionInfoKVOTCImEESaIS2_EE17_M_default_appendEm
0000000000219400 w _ZN7rocksdb14LocalSavePoint6commitEv
0000000000219590 w _ZNSt8_Rb_treeImSt4pairIKmN7rocksdb6DBImpl20RecoveredTransaction9BatchInfoEESt10_Select1stIS6_ESt4lessImESaIS6_EE24_M_get_insert_unique_posERS1_
0000000000219620 w _ZNSt8_Rb_treeImSt4pairIKmN7rocksdb6DBImpl20RecoveredTransaction9BatchInfoEESt10_Select1stIS6_ESt4lessImESaIS6_EE29_M_get_insert_hint_unique_posESt23_Rb_tree_const_iteratorIS6_ERS1_
0000000000219700 t _ZNSt8_Rb_treeImSt4pairIKmN7rocksdb6DBImpl20RecoveredTransaction9BatchInfoEESt10_Select1stIS6_ESt4lessImESaIS6_EE22_M_emplace_hint_uniqueIJRKSt21piecewise_construct_tSt5tupleIJRS1_EESH_IJEEEEESt17_Rb_tree_iteratorIS6_ESt23_Rb_tree_const_iteratorIS6_EDpOT_.isra.278
00000000002197d0 w _ZNKSt10_HashtableINSt7__cxx1112basic_stringIcSt11char_traitsIcESaIcEEESt4pairIKS5_PN7rocksdb6DBImpl20RecoveredTransactionEESaISC_ENSt8__detail10_Select1stESt8equal_toIS5_ESt4hashIS5_ENSE_18_Mod_range_hashingENSE_20_Default_ranged_hashENSE_20_Prime_rehash_policyENSE_17_Hashtable_traitsILb1ELb0ELb1EEEE19_M_find_before_nodeEmRS7_m
0000000000219880 w _ZNSt10_HashtableINSt7__cxx1112basic_stringIcSt11char_traitsIcESaIcEEESt4pairIKS5_PN7rocksdb6DBImpl20RecoveredTransactionEESaISC_ENSt8__detail10_Select1stESt8equal_toIS5_ESt4hashIS5_ENSE_18_Mod_range_hashingENSE_20_Default_ranged_hashENSE_20_Prime_rehash_policyENSE_17_Hashtable_traitsILb1ELb0ELb1EEEE4findERS7_
00000000002198e0 w _ZN7rocksdb16MemTableInserter10MarkCommitERKNS_5SliceE
0000000000219c50 w _ZN7rocksdb16MemTableInserter12MarkRollbackERKNS_5SliceE
0000000000219f10 w _ZNSt10_HashtableINSt7__cxx1112basic_stringIcSt11char_traitsIcESaIcEEESt4pairIKS5_PN7rocksdb6DBImpl20RecoveredTransactionEESaISC_ENSt8__detail10_Select1stESt8equal_toIS5_ESt4hashIS5_ENSE_18_Mod_range_hashingENSE_20_Default_ranged_hashENSE_20_Prime_rehash_policyENSE_17_Hashtable_traitsILb1ELb0ELb1EEEE9_M_rehashEmRKm
000000000021a030 w _ZNSt10_HashtableINSt7__cxx1112basic_stringIcSt11char_traitsIcESaIcEEESt4pairIKS5_PN7rocksdb6DBImpl20RecoveredTransactionEESaISC_ENSt8__detail10_Select1stESt8equal_toIS5_ESt4hashIS5_ENSE_18_Mod_range_hashingENSE_20_Default_ranged_hashENSE_20_Prime_rehash_policyENSE_17_Hashtable_traitsILb1ELb0ELb1EEEE21_M_insert_unique_nodeEmmPNSE_10_Hash_nodeISC_Lb1EEE
000000000021a160 w _ZNSt8__detail9_Map_baseINSt7__cxx1112basic_stringIcSt11char_traitsIcESaIcEEESt4pairIKS6_PN7rocksdb6DBImpl20RecoveredTransactionEESaISD_ENS_10_Select1stESt8equal_toIS6_ESt4hashIS6_ENS_18_Mod_range_hashingENS_20_Default_ranged_hashENS_20_Prime_rehash_policyENS_17_Hashtable_traitsILb1ELb0ELb1EEELb1EEixERS8_
000000000021a250 w _ZN7rocksdb16MemTableInserter14MarkEndPrepareERKNS_5SliceE
000000000021a550 w _ZNSt8_Rb_treeIjSt4pairIKjSt3setIN7rocksdb5SliceENS3_13SetComparatorESaIS4_EEESt10_Select1stIS8_ESt4lessIjESaIS8_EE24_M_get_insert_unique_posERS1_
000000000021a5e0 w _ZNSt8_Rb_treeIjSt4pairIKjSt3setIN7rocksdb5SliceENS3_13SetComparatorESaIS4_EEESt10_Select1stIS8_ESt4lessIjESaIS8_EE29_M_get_insert_hint_unique_posESt23_Rb_tree_const_iteratorIS8_ERS1_
000000000021a6c0 t _ZNSt8_Rb_treeIjSt4pairIKjSt3setIN7rocksdb5SliceENS3_13SetComparatorESaIS4_EEESt10_Select1stIS8_ESt4lessIjESaIS8_EE22_M_emplace_hint_uniqueIJRKSt21piecewise_construct_tSt5tupleIJRS1_EESJ_IJEEEEESt17_Rb_tree_iteratorIS8_ESt23_Rb_tree_const_iteratorIS8_EDpOT_.isra.300
000000000021a800 w _ZN7rocksdb16MemTableInserter17IsDuplicateKeySeqEjRKNS_5SliceE
000000000021ae20 w _ZNSt6vectorIN7rocksdb9SavePointESaIS1_EE17_M_realloc_insertIJRKS1_EEEvN9__gnu_cxx17__normal_iteratorIPS1_S3_EEDpOT_
000000000021af90 w _ZNSt10_HashtableIPN7rocksdb8MemTableESt4pairIKS2_PvESaIS6_ENSt8__detail10_Select1stESt8equal_toIS2_ESt4hashIS2_ENS8_18_Mod_range_hashingENS8_20_Default_ranged_hashENS8_20_Prime_rehash_policyENS8_17_Hashtable_traitsILb0ELb0ELb1EEEE9_M_rehashEmRKm
000000000021b0b0 w _ZNSt10_HashtableIPN7rocksdb8MemTableESt4pairIKS2_PvESaIS6_ENSt8__detail10_Select1stESt8equal_toIS2_ESt4hashIS2_ENS8_18_Mod_range_hashingENS8_20_Default_ranged_hashENS8_20_Prime_rehash_policyENS8_17_Hashtable_traitsILb0ELb0ELb1EEEE21_M_insert_unique_nodeEmmPNS8_10_Hash_nodeIS6_Lb0EEE
000000000021b1c0 w _ZNSt8__detail9_Map_baseIPN7rocksdb8MemTableESt4pairIKS3_PvESaIS7_ENS_10_Select1stESt8equal_toIS3_ESt4hashIS3_ENS_18_Mod_range_hashingENS_20_Default_ranged_hashENS_20_Prime_rehash_policyENS_17_Hashtable_traitsILb0ELb0ELb1EEELb1EEixERS5_
000000000021b280 w _ZNSt8_Rb_treeIPN7rocksdb8MemTableESt4pairIKS2_NS0_23MemTablePostProcessInfoEESt10_Select1stIS6_ESt4lessIS2_ESaIS6_EE24_M_get_insert_unique_posERS4_
000000000021b310 w _ZNSt8_Rb_treeIPN7rocksdb8MemTableESt4pairIKS2_NS0_23MemTablePostProcessInfoEESt10_Select1stIS6_ESt4lessIS2_ESaIS6_EE29_M_get_insert_hint_unique_posESt23_Rb_tree_const_iteratorIS6_ERS4_
000000000021b3f0 w _ZN7rocksdb16MemTableInserter10DeleteImplEjRKNS_5SliceES3_NS_9ValueTypeEPKNS_19ProtectionInfoKVOTSImEE
000000000021b850 w _ZN7rocksdb16MemTableInserter8DeleteCFEjRKNS_5SliceE
000000000021bc90 w _ZN7rocksdb16MemTableInserter14SingleDeleteCFEjRKNS_5SliceE
000000000021c070 w _ZN7rocksdb16MemTableInserter13DeleteRangeCFEjRKNS_5SliceES3_
000000000021c860 w _ZN7rocksdb16MemTableInserter9PutCFImplEjRKNS_5SliceES3_NS_9ValueTypeEPKNS_19ProtectionInfoKVOTSImEE
000000000021d620 w _ZN7rocksdb16MemTableInserter5PutCFEjRKNS_5SliceES3_
000000000021d750 w _ZN7rocksdb16MemTableInserter14PutBlobIndexCFEjRKNS_5SliceES3_
000000000021d880 w _ZN7rocksdb16MemTableInserter7MergeCFEjRKNS_5SliceES3_
000000000021e6d0 T _ZN7rocksdb14StopWriteTokenD1Ev
000000000021e6f0 T _ZN7rocksdb14StopWriteTokenD0Ev
000000000021e710 T _ZN7rocksdb15DelayWriteTokenD2Ev
000000000021e730 T _ZN7rocksdb15DelayWriteTokenD0Ev
000000000021e750 T _ZN7rocksdb23CompactionPressureTokenD1Ev
000000000021e770 T _ZN7rocksdb23CompactionPressureTokenD0Ev
000000000021e790 T _ZN7rocksdb15WriteController12GetStopTokenEv
000000000021e7d0 T _ZN7rocksdb15WriteController13GetDelayTokenEm
000000000021e840 T _ZN7rocksdb15WriteController26GetCompactionPressureTokenEv
000000000021e880 T _ZNK7rocksdb15WriteController9IsStoppedEv
000000000021e890 T _ZN7rocksdb15WriteController8GetDelayEPNS_11SystemClockEm
000000000021eaf0 T _ZN7rocksdb15WriteController18NowMicrosMonotonicEPNS_11SystemClockE
000000000021eb20 T _ZN7rocksdb11WriteThreadC1ERKNS_18ImmutableDBOptionsE
000000000021ecc0 T _ZN7rocksdb11WriteThread18BlockingAwaitStateEPNS0_6WriterEh
000000000021ee00 T _ZN7rocksdb11WriteThread10AwaitStateEPNS0_6WriterEhPNS0_17AdaptationContextE
000000000021f0a0 T _ZN7rocksdb11WriteThread8SetStateEPNS0_6WriterEh
000000000021f130 T _ZN7rocksdb11WriteThread7LinkOneEPNS0_6WriterEPSt6atomicIS2_E
000000000021f2c0 T _ZN7rocksdb11WriteThread9LinkGroupERNS0_10WriteGroupEPSt6atomicIPNS0_6WriterEE
000000000021f320 T _ZN7rocksdb11WriteThread23CreateMissingNewerLinksEPNS0_6WriterE
000000000021f370 T _ZN7rocksdb11WriteThread14FindNextLeaderEPNS0_6WriterES2_
000000000021f390 T _ZN7rocksdb11WriteThread14CompleteLeaderERNS0_10WriteGroupE
000000000021f3f0 T _ZN7rocksdb11WriteThread16CompleteFollowerEPNS0_6WriterERNS0_10WriteGroupE
000000000021f460 T _ZN7rocksdb11WriteThread15BeginWriteStallEv
000000000021f600 T _ZN7rocksdb11WriteThread13EndWriteStallEv
000000000021f670 T _ZN7rocksdb11WriteThread14JoinBatchGroupEPNS0_6WriterE
000000000021f6c0 T _ZN7rocksdb11WriteThread23EnterAsBatchGroupLeaderEPNS0_6WriterEPNS0_10WriteGroupE
000000000021f7f0 T _ZN7rocksdb11WriteThread21EnterAsMemTableWriterEPNS0_6WriterEPNS0_10WriteGroupE
000000000021f930 T _ZN7rocksdb11WriteThread20ExitAsMemTableWriterEPNS0_6WriterERNS0_10WriteGroupE
000000000021fa60 T _ZN7rocksdb11WriteThread29LaunchParallelMemTableWritersEPNS0_10WriteGroupE
000000000021fac0 T _ZN7rocksdb11WriteThread30CompleteParallelMemTableWriterEPNS0_6WriterE
000000000021fc50 T _ZN7rocksdb11WriteThread22ExitAsBatchGroupLeaderERNS0_10WriteGroupERNS_6StatusE
00000000002201c0 T _ZN7rocksdb11WriteThread24ExitAsBatchGroupFollowerEPNS0_6WriterE
00000000002201f0 T _ZN7rocksdb11WriteThread13ExitUnbatchedEPNS0_6WriterE
0000000000220250 T _ZN7rocksdb11WriteThread22WaitForMemTableWritersEv
0000000000220420 T _ZN7rocksdb11WriteThread14EnterUnbatchedEPNS0_6WriterEPNS_17InstrumentedMutexE
00000000002204a0 t _ZNK7rocksdb12_GLOBAL__N_117LegacySystemClock4NameEv
00000000002204b0 t _ZN7rocksdb12_GLOBAL__N_117LegacySystemClock9NowMicrosEv
00000000002204c0 t _ZN7rocksdb12_GLOBAL__N_117LegacySystemClock8NowNanosEv
00000000002204d0 t _ZN7rocksdb12_GLOBAL__N_117LegacySystemClock9CPUMicrosEv
0000000000220500 t _ZN7rocksdb12_GLOBAL__N_117LegacySystemClock8CPUNanosEv
0000000000220510 t _ZN7rocksdb12_GLOBAL__N_117LegacySystemClock20SleepForMicrosecondsEi
0000000000220520 t _ZN7rocksdb12_GLOBAL__N_117LegacySystemClock14GetCurrentTimeEPl
0000000000220570 t _ZN7rocksdb12_GLOBAL__N_117LegacySystemClock12TimeToStringEm
00000000002205c0 t _ZNK7rocksdb12_GLOBAL__N_127LegacySequentialFileWrapper13use_direct_ioEv
00000000002205d0 t _ZNK7rocksdb12_GLOBAL__N_127LegacySequentialFileWrapper26GetRequiredBufferAlignmentEv
00000000002205e0 t _ZNK7rocksdb12_GLOBAL__N_129LegacyRandomAccessFileWrapper11GetUniqueIdEPcm
00000000002205f0 t _ZN7rocksdb12_GLOBAL__N_129LegacyRandomAccessFileWrapper4HintENS_18FSRandomAccessFile13AccessPatternE
0000000000220600 t _ZNK7rocksdb12_GLOBAL__N_129LegacyRandomAccessFileWrapper13use_direct_ioEv
0000000000220610 t _ZNK7rocksdb12_GLOBAL__N_129LegacyRandomAccessFileWrapper26GetRequiredBufferAlignmentEv
0000000000220620 t _ZNK7rocksdb12_GLOBAL__N_125LegacyRandomRWFileWrapper13use_direct_ioEv
0000000000220630 t _ZNK7rocksdb12_GLOBAL__N_125LegacyRandomRWFileWrapper26GetRequiredBufferAlignmentEv
0000000000220640 t _ZNK7rocksdb12_GLOBAL__N_125LegacyWritableFileWrapper16IsSyncThreadSafeEv
0000000000220650 t _ZNK7rocksdb12_GLOBAL__N_125LegacyWritableFileWrapper13use_direct_ioEv
0000000000220660 t _ZNK7rocksdb12_GLOBAL__N_125LegacyWritableFileWrapper26GetRequiredBufferAlignmentEv
0000000000220670 t _ZN7rocksdb12_GLOBAL__N_125LegacyWritableFileWrapper20SetWriteLifeTimeHintENS_3Env17WriteLifeTimeHintE
0000000000220680 t _ZN7rocksdb12_GLOBAL__N_125LegacyWritableFileWrapper20GetWriteLifeTimeHintEv
0000000000220690 t _ZN7rocksdb12_GLOBAL__N_125LegacyWritableFileWrapper11GetFileSizeERKNS_9IOOptionsEPNS_14IODebugContextE
00000000002206a0 t _ZN7rocksdb12_GLOBAL__N_125LegacyWritableFileWrapper25SetPreallocationBlockSizeEm
00000000002206b0 t _ZN7rocksdb12_GLOBAL__N_125LegacyWritableFileWrapper22GetPreallocationStatusEPmS2_
00000000002206c0 t _ZNK7rocksdb12_GLOBAL__N_125LegacyWritableFileWrapper11GetUniqueIdEPcm
00000000002206d0 t _ZN7rocksdb12_GLOBAL__N_125LegacyWritableFileWrapper12PrepareWriteEmmRKNS_9IOOptionsEPNS_14IODebugContextE
00000000002206e0 t _ZNK7rocksdb12_GLOBAL__N_122LegacyDirectoryWrapper11GetUniqueIdEPcm
00000000002206f0 t _ZNK7rocksdb12_GLOBAL__N_123LegacyFileSystemWrapper4NameEv
0000000000220700 t _ZNK7rocksdb12_GLOBAL__N_123LegacyFileSystemWrapper19SanitizeFileOptionsEPNS_11FileOptionsE
0000000000220710 t _ZNK7rocksdb12_GLOBAL__N_123LegacyFileSystemWrapper18OptimizeForLogReadERKNS_11FileOptionsE
00000000002207a0 t _ZNK7rocksdb12_GLOBAL__N_123LegacyFileSystemWrapper23OptimizeForManifestReadERKNS_11FileOptionsE
0000000000220830 t _ZNK7rocksdb12_GLOBAL__N_123LegacyFileSystemWrapper19OptimizeForLogWriteERKNS_11FileOptionsERKNS_9DBOptionsE
00000000002208c0 t _ZNK7rocksdb12_GLOBAL__N_123LegacyFileSystemWrapper24OptimizeForManifestWriteERKNS_11FileOptionsE
0000000000220950 t _ZNK7rocksdb12_GLOBAL__N_123LegacyFileSystemWrapper31OptimizeForCompactionTableWriteERKNS_11FileOptionsERKNS_18ImmutableDBOptionsE
00000000002209e0 t _ZNK7rocksdb12_GLOBAL__N_123LegacyFileSystemWrapper30OptimizeForCompactionTableReadERKNS_11FileOptionsERKNS_18ImmutableDBOptionsE
0000000000220a70 t _ZNK7rocksdb12_GLOBAL__N_123LegacyFileSystemWrapper23OptimizeForBlobFileReadERKNS_11FileOptionsERKNS_18ImmutableDBOptionsE
0000000000220b00 T _ZN7rocksdb6LoggerD1Ev
0000000000220b10 T _ZN7rocksdb6Logger5CloseEv
0000000000220b80 T _ZN7rocksdb6Logger9CloseImplEv
0000000000220ba0 T _ZN7rocksdb8FileLockD2Ev
0000000000220bb0 T _ZNK7rocksdb3Env19OptimizeForLogWriteERKNS_10EnvOptionsERKNS_9DBOptionsE
0000000000220bf0 T _ZNK7rocksdb3Env24OptimizeForManifestWriteERKNS_10EnvOptionsE
0000000000220c20 T _ZNK7rocksdb3Env18OptimizeForLogReadERKNS_10EnvOptionsE
0000000000220c50 T _ZNK7rocksdb3Env31OptimizeForCompactionTableWriteERKNS_10EnvOptionsERKNS_18ImmutableDBOptionsE
0000000000220c90 T _ZNK7rocksdb3Env23OptimizeForBlobFileReadERKNS_10EnvOptionsERKNS_18ImmutableDBOptionsE
0000000000220cd0 t _ZN7rocksdb12_GLOBAL__N_117LegacySystemClockD2Ev
0000000000220ce0 t _ZN7rocksdb12_GLOBAL__N_122LegacyDirectoryWrapperD2Ev
0000000000220d10 t _ZN7rocksdb12_GLOBAL__N_125LegacyWritableFileWrapperD2Ev
0000000000220d40 t _ZN7rocksdb12_GLOBAL__N_125LegacyRandomRWFileWrapperD2Ev
0000000000220d70 t _ZN7rocksdb12_GLOBAL__N_129LegacyRandomAccessFileWrapperD2Ev
0000000000220da0 t _ZN7rocksdb12_GLOBAL__N_127LegacySequentialFileWrapperD2Ev
0000000000220dd0 t _ZNSt19_Sp_counted_deleterIPN7rocksdb12_GLOBAL__N_117LegacySystemClockENSt12__shared_ptrIS2_LN9__gnu_cxx12_Lock_policyE2EE8_DeleterISaIS2_EEES9_LS6_2EED2Ev
0000000000220de0 t _ZNSt19_Sp_counted_deleterIPN7rocksdb12_GLOBAL__N_123LegacyFileSystemWrapperENSt12__shared_ptrIS2_LN9__gnu_cxx12_Lock_policyE2EE8_DeleterISaIS2_EEES9_LS6_2EED2Ev
0000000000220df0 t _ZNSt19_Sp_counted_deleterIPN7rocksdb12_GLOBAL__N_123LegacyFileSystemWrapperENSt12__shared_ptrIS2_LN9__gnu_cxx12_Lock_policyE2EE8_DeleterISaIS2_EEES9_LS6_2EE14_M_get_deleterERKSt9type_info
0000000000220e00 T _ZN7rocksdb6LoggerD0Ev
0000000000220e10 T _ZN7rocksdb8FileLockD0Ev
0000000000220e20 t _ZN7rocksdb12_GLOBAL__N_117LegacySystemClockD0Ev
0000000000220e30 t _ZNSt19_Sp_counted_deleterIPN7rocksdb12_GLOBAL__N_117LegacySystemClockENSt12__shared_ptrIS2_LN9__gnu_cxx12_Lock_policyE2EE8_DeleterISaIS2_EEES9_LS6_2EE10_M_disposeEv
0000000000220e40 t _ZNSt19_Sp_counted_deleterIPN7rocksdb12_GLOBAL__N_123LegacyFileSystemWrapperENSt12__shared_ptrIS2_LN9__gnu_cxx12_Lock_policyE2EE8_DeleterISaIS2_EEES9_LS6_2EE10_M_destroyEv
0000000000220e50 t _ZNSt19_Sp_counted_deleterIPN7rocksdb12_GLOBAL__N_123LegacyFileSystemWrapperENSt12__shared_ptrIS2_LN9__gnu_cxx12_Lock_policyE2EE8_DeleterISaIS2_EEES9_LS6_2EED0Ev
0000000000220e60 t _ZNSt19_Sp_counted_deleterIPN7rocksdb12_GLOBAL__N_117LegacySystemClockENSt12__shared_ptrIS2_LN9__gnu_cxx12_Lock_policyE2EE8_DeleterISaIS2_EEES9_LS6_2EE10_M_destroyEv
0000000000220e70 t _ZNSt19_Sp_counted_deleterIPN7rocksdb12_GLOBAL__N_117LegacySystemClockENSt12__shared_ptrIS2_LN9__gnu_cxx12_Lock_policyE2EE8_DeleterISaIS2_EEES9_LS6_2EED0Ev
0000000000220e80 t _ZN7rocksdb12_GLOBAL__N_127LegacySequentialFileWrapperD0Ev
0000000000220ec0 t _ZN7rocksdb12_GLOBAL__N_129LegacyRandomAccessFileWrapperD0Ev
0000000000220f00 t _ZN7rocksdb12_GLOBAL__N_125LegacyRandomRWFileWrapperD0Ev
0000000000220f40 t _ZN7rocksdb12_GLOBAL__N_125LegacyWritableFileWrapperD0Ev
0000000000220f80 t _ZN7rocksdb12_GLOBAL__N_122LegacyDirectoryWrapperD0Ev
0000000000220fc0 t _ZN7rocksdb12_GLOBAL__N_123LegacyFileSystemWrapperD2Ev
0000000000220fd0 t _ZN7rocksdb12_GLOBAL__N_123LegacyFileSystemWrapperD0Ev
0000000000221000 t _ZNSt19_Sp_counted_deleterIPN7rocksdb12_GLOBAL__N_123LegacyFileSystemWrapperENSt12__shared_ptrIS2_LN9__gnu_cxx12_Lock_policyE2EE8_DeleterISaIS2_EEES9_LS6_2EE10_M_disposeEv
0000000000221030 T _ZN7rocksdb3Env17GetHostNameStringEPNSt7__cxx1112basic_stringIcSt11char_traitsIcESaIcEEE
0000000000221120 T _ZNK7rocksdb3Env11GetThreadIDEv
0000000000221180 t _ZN7rocksdbL5InfovEPNS_6LoggerEPKcP13__va_list_tag
00000000002211e0 t _ZN7rocksdb6Logger4LogvENS_12InfoLogLevelEPKcP13__va_list_tag.part.1
00000000002212c0 T _ZN7rocksdb6Logger4LogvENS_12InfoLogLevelEPKcP13__va_list_tag
00000000002212e0 t _ZN7rocksdbL4LogvENS_12InfoLogLevelEPNS_6LoggerEPKcP13__va_list_tag.part.2
00000000002212f0 t _ZN7rocksdbL4LogvENS_12InfoLogLevelEPNS_6LoggerEPKcP13__va_list_tag
0000000000221370 t _ZN7rocksdbL6DebugvEPNS_6LoggerEPKcP13__va_list_tag
00000000002213d0 t _ZN7rocksdbL5WarnvEPNS_6LoggerEPKcP13__va_list_tag
0000000000221430 t _ZN7rocksdbL6ErrorvEPNS_6LoggerEPKcP13__va_list_tag
0000000000221490 t _ZN7rocksdbL6FatalvEPNS_6LoggerEPKcP13__va_list_tag
00000000002214f0 t _ZNSt16_Sp_counted_baseILN9__gnu_cxx12_Lock_policyE2EE10_M_releaseEv.part.120
0000000000221550 t _ZNSt7__cxx1112basic_stringIcSt11char_traitsIcESaIcEE12_M_constructIPcEEvT_S7_St20forward_iterator_tag.isra.213
0000000000221620 t _ZNSt7__cxx1112basic_stringIcSt11char_traitsIcESaIcEEC2EPKcRKS3_.isra.228
0000000000221670 t _ZN7rocksdbL4LogvEPNS_6LoggerEPKcP13__va_list_tag
00000000002216d0 T _ZN7rocksdb3Env17ReuseWritableFileERKNSt7__cxx1112basic_stringIcSt11char_traitsIcESaIcEEES8_PSt10unique_ptrINS_12WritableFileESt14default_deleteISA_EERKNS_10EnvOptionsE
00000000002217b0 t _ZN7rocksdb12_GLOBAL__N_123LegacyFileSystemWrapper11IsDirectoryERKNSt7__cxx1112basic_stringIcSt11char_traitsIcESaIcEEERKNS_9IOOptionsEPbPNS_14IODebugContextE
0000000000221840 t _ZN7rocksdb12_GLOBAL__N_123LegacyFileSystemWrapper12GetFreeSpaceERKNSt7__cxx1112basic_stringIcSt11char_traitsIcESaIcEEERKNS_9IOOptionsEPmPNS_14IODebugContextE
00000000002218d0 t _ZN7rocksdb12_GLOBAL__N_123LegacyFileSystemWrapper15GetAbsolutePathERKNSt7__cxx1112basic_stringIcSt11char_traitsIcESaIcEEERKNS_9IOOptionsEPS7_PNS_14IODebugContextE
0000000000221960 t _ZN7rocksdb12_GLOBAL__N_123LegacyFileSystemWrapper9NewLoggerERKNSt7__cxx1112basic_stringIcSt11char_traitsIcESaIcEEERKNS_9IOOptionsEPSt10shared_ptrINS_6LoggerEEPNS_14IODebugContextE
00000000002219f0 t _ZN7rocksdb12_GLOBAL__N_123LegacyFileSystemWrapper16GetTestDirectoryERKNS_9IOOptionsEPNSt7__cxx1112basic_stringIcSt11char_traitsIcESaIcEEEPNS_14IODebugContextE
0000000000221a80 t _ZN7rocksdb12_GLOBAL__N_123LegacyFileSystemWrapper10UnlockFileEPNS_8FileLockERKNS_9IOOptionsEPNS_14IODebugContextE
0000000000221b10 t _ZN7rocksdb12_GLOBAL__N_123LegacyFileSystemWrapper8LockFileERKNSt7__cxx1112basic_stringIcSt11char_traitsIcESaIcEEERKNS_9IOOptionsEPPNS_8FileLockEPNS_14IODebugContextE
0000000000221ba0 t _ZN7rocksdb12_GLOBAL__N_123LegacyFileSystemWrapper12AreFilesSameERKNSt7__cxx1112basic_stringIcSt11char_traitsIcESaIcEEES9_RKNS_9IOOptionsEPbPNS_14IODebugContextE
0000000000221c30 t _ZN7rocksdb12_GLOBAL__N_123LegacyFileSystemWrapper12NumFileLinksERKNSt7__cxx1112basic_stringIcSt11char_traitsIcESaIcEEERKNS_9IOOptionsEPmPNS_14IODebugContextE
0000000000221cc0 t _ZN7rocksdb12_GLOBAL__N_123LegacyFileSystemWrapper8LinkFileERKNSt7__cxx1112basic_stringIcSt11char_traitsIcESaIcEEES9_RKNS_9IOOptionsEPNS_14IODebugContextE
0000000000221d50 t _ZN7rocksdb12_GLOBAL__N_123LegacyFileSystemWrapper10RenameFileERKNSt7__cxx1112basic_stringIcSt11char_traitsIcESaIcEEES9_RKNS_9IOOptionsEPNS_14IODebugContextE
0000000000221de0 t _ZN7rocksdb12_GLOBAL__N_123LegacyFileSystemWrapper23GetFileModificationTimeERKNSt7__cxx1112basic_stringIcSt11char_traitsIcESaIcEEERKNS_9IOOptionsEPmPNS_14IODebugContextE
0000000000221e70 t _ZN7rocksdb12_GLOBAL__N_123LegacyFileSystemWrapper11GetFileSizeERKNSt7__cxx1112basic_stringIcSt11char_traitsIcESaIcEEERKNS_9IOOptionsEPmPNS_14IODebugContextE
0000000000221f00 t _ZN7rocksdb12_GLOBAL__N_123LegacyFileSystemWrapper9DeleteDirERKNSt7__cxx1112basic_stringIcSt11char_traitsIcESaIcEEERKNS_9IOOptionsEPNS_14IODebugContextE
0000000000221f90 t _ZN7rocksdb12_GLOBAL__N_123LegacyFileSystemWrapper18CreateDirIfMissingERKNSt7__cxx1112basic_stringIcSt11char_traitsIcESaIcEEERKNS_9IOOptionsEPNS_14IODebugContextE
0000000000222020 t _ZN7rocksdb12_GLOBAL__N_123LegacyFileSystemWrapper9CreateDirERKNSt7__cxx1112basic_stringIcSt11char_traitsIcESaIcEEERKNS_9IOOptionsEPNS_14IODebugContextE
00000000002220b0 t _ZN7rocksdb12_GLOBAL__N_123LegacyFileSystemWrapper8TruncateERKNSt7__cxx1112basic_stringIcSt11char_traitsIcESaIcEEEmRKNS_9IOOptionsEPNS_14IODebugContextE
0000000000222140 t _ZN7rocksdb12_GLOBAL__N_123LegacyFileSystemWrapper10DeleteFileERKNSt7__cxx1112basic_stringIcSt11char_traitsIcESaIcEEERKNS_9IOOptionsEPNS_14IODebugContextE
00000000002221d0 t _ZN7rocksdb12_GLOBAL__N_123LegacyFileSystemWrapper25GetChildrenFileAttributesERKNSt7__cxx1112basic_stringIcSt11char_traitsIcESaIcEEERKNS_9IOOptionsEPSt6vectorINS_3Env14FileAttributesESaISF_EEPNS_14IODebugContextE
0000000000222260 t _ZN7rocksdb12_GLOBAL__N_123LegacyFileSystemWrapper11GetChildrenERKNSt7__cxx1112basic_stringIcSt11char_traitsIcESaIcEEERKNS_9IOOptionsEPSt6vectorIS7_SaIS7_EEPNS_14IODebugContextE
00000000002222f0 t _ZN7rocksdb12_GLOBAL__N_123LegacyFileSystemWrapper10FileExistsERKNSt7__cxx1112basic_stringIcSt11char_traitsIcESaIcEEERKNS_9IOOptionsEPNS_14IODebugContextE
0000000000222380 t _ZN7rocksdb12_GLOBAL__N_123LegacyFileSystemWrapper25NewMemoryMappedFileBufferERKNSt7__cxx1112basic_stringIcSt11char_traitsIcESaIcEEEPSt10unique_ptrINS_22MemoryMappedFileBufferESt14default_deleteISB_EE
0000000000222410 t _ZN7rocksdb12_GLOBAL__N_127LegacySequentialFileWrapper14PositionedReadEmmRKNS_9IOOptionsEPNS_5SliceEPcPNS_14IODebugContextE
00000000002224a0 t _ZN7rocksdb12_GLOBAL__N_127LegacySequentialFileWrapper15InvalidateCacheEmm
0000000000222530 t _ZN7rocksdb12_GLOBAL__N_127LegacySequentialFileWrapper4SkipEm
0000000000222630 t _ZN7rocksdb12_GLOBAL__N_127LegacySequentialFileWrapper4ReadEmRKNS_9IOOptionsEPNS_5SliceEPcPNS_14IODebugContextE
0000000000222740 t _ZN7rocksdb12_GLOBAL__N_123LegacyFileSystemWrapper17NewSequentialFileERKNSt7__cxx1112basic_stringIcSt11char_traitsIcESaIcEEERKNS_11FileOptionsEPSt10unique_ptrINS_16FSSequentialFileESt14default_deleteISE_EEPNS_14IODebugContextE
0000000000222850 t _ZN7rocksdb12_GLOBAL__N_129LegacyRandomAccessFileWrapper15InvalidateCacheEmm
00000000002228e0 t _ZN7rocksdb12_GLOBAL__N_129LegacyRandomAccessFileWrapper8PrefetchEmmRKNS_9IOOptionsEPNS_14IODebugContextE
0000000000222970 t _ZNK7rocksdb12_GLOBAL__N_129LegacyRandomAccessFileWrapper4ReadEmmRKNS_9IOOptionsEPNS_5SliceEPcPNS_14IODebugContextE
0000000000222a70 t _ZN7rocksdb12_GLOBAL__N_123LegacyFileSystemWrapper19NewRandomAccessFileERKNSt7__cxx1112basic_stringIcSt11char_traitsIcESaIcEEERKNS_11FileOptionsEPSt10unique_ptrINS_18FSRandomAccessFileESt14default_deleteISE_EEPNS_14IODebugContextE
0000000000222b80 t _ZN7rocksdb12_GLOBAL__N_125LegacyRandomRWFileWrapper5CloseERKNS_9IOOptionsEPNS_14IODebugContextE
0000000000222c80 t _ZN7rocksdb12_GLOBAL__N_125LegacyRandomRWFileWrapper5FsyncERKNS_9IOOptionsEPNS_14IODebugContextE
0000000000222d10 t _ZN7rocksdb12_GLOBAL__N_125LegacyRandomRWFileWrapper4SyncERKNS_9IOOptionsEPNS_14IODebugContextE
0000000000222e10 t _ZN7rocksdb12_GLOBAL__N_125LegacyRandomRWFileWrapper5FlushERKNS_9IOOptionsEPNS_14IODebugContextE
0000000000222f10 t _ZNK7rocksdb12_GLOBAL__N_125LegacyRandomRWFileWrapper4ReadEmmRKNS_9IOOptionsEPNS_5SliceEPcPNS_14IODebugContextE
0000000000223010 t _ZN7rocksdb12_GLOBAL__N_125LegacyRandomRWFileWrapper5WriteEmRKNS_5SliceERKNS_9IOOptionsEPNS_14IODebugContextE
0000000000223110 t _ZN7rocksdb12_GLOBAL__N_123LegacyFileSystemWrapper15NewRandomRWFileERKNSt7__cxx1112basic_stringIcSt11char_traitsIcESaIcEEERKNS_11FileOptionsEPSt10unique_ptrINS_14FSRandomRWFileESt14default_deleteISE_EEPNS_14IODebugContextE
0000000000223220 t _ZN7rocksdb12_GLOBAL__N_125LegacyWritableFileWrapper8AllocateEmmRKNS_9IOOptionsEPNS_14IODebugContextE
00000000002232b0 t _ZN7rocksdb12_GLOBAL__N_125LegacyWritableFileWrapper9RangeSyncEmmRKNS_9IOOptionsEPNS_14IODebugContextE
0000000000223340 t _ZN7rocksdb12_GLOBAL__N_125LegacyWritableFileWrapper15InvalidateCacheEmm
00000000002233d0 t _ZN7rocksdb12_GLOBAL__N_125LegacyWritableFileWrapper5FsyncERKNS_9IOOptionsEPNS_14IODebugContextE
0000000000223460 t _ZN7rocksdb12_GLOBAL__N_125LegacyWritableFileWrapper4SyncERKNS_9IOOptionsEPNS_14IODebugContextE
0000000000223560 t _ZN7rocksdb12_GLOBAL__N_125LegacyWritableFileWrapper5FlushERKNS_9IOOptionsEPNS_14IODebugContextE
0000000000223660 t _ZN7rocksdb12_GLOBAL__N_125LegacyWritableFileWrapper5CloseERKNS_9IOOptionsEPNS_14IODebugContextE
0000000000223760 t _ZN7rocksdb12_GLOBAL__N_125LegacyWritableFileWrapper8TruncateEmRKNS_9IOOptionsEPNS_14IODebugContextE
00000000002237f0 t _ZN7rocksdb12_GLOBAL__N_125LegacyWritableFileWrapper16PositionedAppendERKNS_5SliceEmRKNS_9IOOptionsERKNS_20DataVerificationInfoEPNS_14IODebugContextE
0000000000223880 t _ZN7rocksdb12_GLOBAL__N_125LegacyWritableFileWrapper16PositionedAppendERKNS_5SliceEmRKNS_9IOOptionsEPNS_14IODebugContextE
0000000000223910 t _ZN7rocksdb12_GLOBAL__N_125LegacyWritableFileWrapper6AppendERKNS_5SliceERKNS_9IOOptionsERKNS_20DataVerificationInfoEPNS_14IODebugContextE
0000000000223a10 t _ZN7rocksdb12_GLOBAL__N_125LegacyWritableFileWrapper6AppendERKNS_5SliceERKNS_9IOOptionsEPNS_14IODebugContextE
0000000000223b10 t _ZN7rocksdb12_GLOBAL__N_123LegacyFileSystemWrapper17ReuseWritableFileERKNSt7__cxx1112basic_stringIcSt11char_traitsIcESaIcEEES9_RKNS_11FileOptionsEPSt10unique_ptrINS_14FSWritableFileESt14default_deleteISE_EEPNS_14IODebugContextE
0000000000223c40 t _ZN7rocksdb12_GLOBAL__N_123LegacyFileSystemWrapper18ReopenWritableFileERKNSt7__cxx1112basic_stringIcSt11char_traitsIcESaIcEEERKNS_11FileOptionsEPSt10unique_ptrINS_14FSWritableFileESt14default_deleteISE_EEPNS_14IODebugContextE
0000000000223d70 t _ZN7rocksdb12_GLOBAL__N_123LegacyFileSystemWrapper15NewWritableFileERKNSt7__cxx1112basic_stringIcSt11char_traitsIcESaIcEEERKNS_11FileOptionsEPSt10unique_ptrINS_14FSWritableFileESt14default_deleteISE_EEPNS_14IODebugContextE
0000000000223ea0 t _ZN7rocksdb12_GLOBAL__N_122LegacyDirectoryWrapper5FsyncERKNS_9IOOptionsEPNS_14IODebugContextE
0000000000223fa0 t _ZN7rocksdb12_GLOBAL__N_123LegacyFileSystemWrapper12NewDirectoryERKNSt7__cxx1112basic_stringIcSt11char_traitsIcESaIcEEERKNS_9IOOptionsEPSt10unique_ptrINS_11FSDirectoryESt14default_deleteISE_EEPNS_14IODebugContextE
00000000002240a0 T _ZN7rocksdb3EnvC2ERKSt10shared_ptrINS_10FileSystemEERKS1_INS_11SystemClockEE
0000000000224150 T _ZN7rocksdb3Env16PriorityToStringB5cxx11ENS0_8PriorityE
0000000000224220 T _ZN7rocksdb14SequentialFileD1Ev
0000000000224230 T _ZN7rocksdb14SequentialFileD0Ev
0000000000224240 T _ZN7rocksdb16RandomAccessFileD2Ev
0000000000224250 T _ZN7rocksdb16RandomAccessFileD0Ev
0000000000224260 T _ZN7rocksdb12WritableFileD2Ev
0000000000224270 T _ZN7rocksdb12WritableFileD0Ev
0000000000224280 T _ZN7rocksdb22MemoryMappedFileBufferD2Ev
0000000000224290 T _ZN7rocksdb22MemoryMappedFileBufferD0Ev
00000000002242a0 T _ZN7rocksdb8LogFlushEPNS_6LoggerE
00000000002242c0 T _ZN7rocksdb3LogEPNS_6LoggerEPKcz
0000000000224380 T _ZN7rocksdb3LogENS_12InfoLogLevelEPNS_6LoggerEPKcz
0000000000224440 T _ZN7rocksdb6HeaderEPNS_6LoggerEPKcz
0000000000224500 T _ZN7rocksdb5DebugEPNS_6LoggerEPKcz
00000000002245c0 T _ZN7rocksdb4InfoEPNS_6LoggerEPKcz
0000000000224680 T _ZN7rocksdb4WarnEPNS_6LoggerEPKcz
0000000000224740 T _ZN7rocksdb5ErrorEPNS_6LoggerEPKcz
0000000000224800 T _ZN7rocksdb5FatalEPNS_6LoggerEPKcz
00000000002248c0 T _ZN7rocksdb8LogFlushERKSt10shared_ptrINS_6LoggerEE
00000000002248e0 T _ZN7rocksdb3LogENS_12InfoLogLevelERKSt10shared_ptrINS_6LoggerEEPKcz
00000000002249a0 T _ZN7rocksdb6HeaderERKSt10shared_ptrINS_6LoggerEEPKcz
0000000000224a60 T _ZN7rocksdb5DebugERKSt10shared_ptrINS_6LoggerEEPKcz
0000000000224b20 T _ZN7rocksdb4InfoERKSt10shared_ptrINS_6LoggerEEPKcz
0000000000224be0 T _ZN7rocksdb4WarnERKSt10shared_ptrINS_6LoggerEEPKcz
0000000000224ca0 T _ZN7rocksdb5ErrorERKSt10shared_ptrINS_6LoggerEEPKcz
0000000000224d60 T _ZN7rocksdb5FatalERKSt10shared_ptrINS_6LoggerEEPKcz
0000000000224e20 T _ZN7rocksdb3LogERKSt10shared_ptrINS_6LoggerEEPKcz
0000000000224ee0 T _ZN7rocksdb17WriteStringToFileEPNS_3EnvERKNS_5SliceERKNSt7__cxx1112basic_stringIcSt11char_traitsIcESaIcEEEb
0000000000224f50 T _ZN7rocksdb16ReadFileToStringEPNS_3EnvERKNSt7__cxx1112basic_stringIcSt11char_traitsIcESaIcEEEPS7_
0000000000224fc0 T _ZN7rocksdb10EnvOptionsC2ERKNS_9DBOptionsE
0000000000225060 T _ZNK7rocksdb3Env13GetFileSystemEv
0000000000225070 T _ZNK7rocksdb3Env14GetSystemClockEv
0000000000225080 T _ZN7rocksdb3EnvD2Ev
00000000002250d0 T _ZN7rocksdb3EnvD0Ev
00000000002250f0 T _ZN7rocksdb10EnvWrapperD1Ev
0000000000225100 T _ZN7rocksdb10EnvWrapperD0Ev
0000000000225130 T _ZN7rocksdb3EnvC2Ev
00000000002252e0 T _ZN7rocksdb3Env16CreateFromStringERKNS_13ConfigOptionsERKNSt7__cxx1112basic_stringIcSt11char_traitsIcESaIcEEEPPS0_
0000000000225770 T _ZN7rocksdb3Env16CreateFromStringERKNS_13ConfigOptionsERKNSt7__cxx1112basic_stringIcSt11char_traitsIcESaIcEEEPPS0_PSt10shared_ptrIS0_E
0000000000225c50 T _ZN7rocksdb3Env13CreateFromUriERKNS_13ConfigOptionsERKNSt7__cxx1112basic_stringIcSt11char_traitsIcESaIcEEESB_PPS0_PSt10shared_ptrIS0_E
0000000000225f40 T _ZN7rocksdb3Env7LoadEnvERKNSt7__cxx1112basic_stringIcSt11char_traitsIcESaIcEEEPPS0_
0000000000225fe0 T _ZN7rocksdb3Env7LoadEnvERKNSt7__cxx1112basic_stringIcSt11char_traitsIcESaIcEEEPPS0_PSt10shared_ptrIS0_E
0000000000226090 T _ZN7rocksdb3EnvC2ERKSt10shared_ptrINS_10FileSystemEE
00000000002261b0 T _ZN7rocksdb10EnvOptionsC1Ev
00000000002262f0 T _ZN7rocksdb3Env25GetChildrenFileAttributesERKNSt7__cxx1112basic_stringIcSt11char_traitsIcESaIcEEEPSt6vectorINS0_14FileAttributesESaISA_EE
0000000000226950 T _ZN7rocksdb12NewEnvLoggerERKNSt7__cxx1112basic_stringIcSt11char_traitsIcESaIcEEEPNS_3EnvEPSt10shared_ptrINS_6LoggerEE
0000000000227150 T _ZN7rocksdb3Env9NewLoggerERKNSt7__cxx1112basic_stringIcSt11char_traitsIcESaIcEEEPSt10shared_ptrINS_6LoggerEE
00000000002271a0 t _ZN7rocksdb12_GLOBAL__N_129LegacyRandomAccessFileWrapper9MultiReadEPNS_13FSReadRequestEmRKNS_9IOOptionsEPNS_14IODebugContextE
0000000000227590 w _ZN7rocksdb3Env15RegisterDbPathsERKSt6vectorINSt7__cxx1112basic_stringIcSt11char_traitsIcESaIcEEESaIS7_EE
00000000002275b0 w _ZN7rocksdb3Env17UnregisterDbPathsERKSt6vectorINSt7__cxx1112basic_stringIcSt11char_traitsIcESaIcEEESaIS7_EE
00000000002275d0 w _ZN7rocksdb3Env10UnScheduleEPvNS0_8PriorityE
00000000002275e0 w _ZN7rocksdb3Env11WaitForJoinEv
00000000002275f0 w _ZNK7rocksdb3Env21GetThreadPoolQueueLenENS0_8PriorityE
0000000000227600 w _ZN7rocksdb3Env8NowNanosEv
0000000000227620 w _ZN7rocksdb3Env11NowCPUNanosEv
0000000000227630 w _ZN7rocksdb3Env25LowerThreadPoolIOPriorityENS0_8PriorityE
0000000000227640 w _ZN7rocksdb3Env26LowerThreadPoolCPUPriorityENS0_8PriorityE
0000000000227650 w _ZNK7rocksdb3Env22GetThreadStatusUpdaterEv
0000000000227660 w _ZNK7rocksdb3Env18SanitizeEnvOptionsEPNS_10EnvOptionsE
0000000000227670 w _ZN7rocksdb12WritableFile8TruncateEm
0000000000227690 w _ZN7rocksdb6Logger4LogvEPKcP13__va_list_tag
00000000002276a0 w _ZN7rocksdb10EnvWrapper17NewSequentialFileERKNSt7__cxx1112basic_stringIcSt11char_traitsIcESaIcEEEPSt10unique_ptrINS_14SequentialFileESt14default_deleteISA_EERKNS_10EnvOptionsE
00000000002276f0 w _ZN7rocksdb10EnvWrapper19NewRandomAccessFileERKNSt7__cxx1112basic_stringIcSt11char_traitsIcESaIcEEEPSt10unique_ptrINS_16RandomAccessFileESt14default_deleteISA_EERKNS_10EnvOptionsE
0000000000227740 w _ZN7rocksdb10EnvWrapper15NewWritableFileERKNSt7__cxx1112basic_stringIcSt11char_traitsIcESaIcEEEPSt10unique_ptrINS_12WritableFileESt14default_deleteISA_EERKNS_10EnvOptionsE
0000000000227790 w _ZN7rocksdb14FSWritableFile13SetIOPriorityENS_3Env10IOPriorityE
00000000002277a0 w _ZN7rocksdb14FSWritableFile13GetIOPriorityEv
00000000002277b0 w _ZNK7rocksdb12CompositeEnv18OptimizeForLogReadERKNS_10EnvOptionsE
0000000000227880 w _ZNK7rocksdb12CompositeEnv23OptimizeForManifestReadERKNS_10EnvOptionsE
0000000000227950 w _ZNK7rocksdb12CompositeEnv19OptimizeForLogWriteERKNS_10EnvOptionsERKNS_9DBOptionsE
0000000000227a20 w _ZNK7rocksdb12CompositeEnv24OptimizeForManifestWriteERKNS_10EnvOptionsE
0000000000227af0 w _ZNK7rocksdb12CompositeEnv31OptimizeForCompactionTableWriteERKNS_10EnvOptionsERKNS_18ImmutableDBOptionsE
0000000000227bc0 w _ZNK7rocksdb12CompositeEnv30OptimizeForCompactionTableReadERKNS_10EnvOptionsERKNS_18ImmutableDBOptionsE
0000000000227c90 w _ZNK7rocksdb12CompositeEnv23OptimizeForBlobFileReadERKNS_10EnvOptionsERKNS_18ImmutableDBOptionsE
0000000000227d60 w _ZN7rocksdb12CompositeEnv9NowMicrosEv
0000000000227d70 w _ZN7rocksdb12CompositeEnv8NowNanosEv
0000000000227d80 w _ZN7rocksdb12CompositeEnv11NowCPUNanosEv
0000000000227d90 w _ZN7rocksdb12CompositeEnv20SleepForMicrosecondsEi
0000000000227da0 w _ZN7rocksdb12CompositeEnv14GetCurrentTimeEPl
0000000000227df0 w _ZN7rocksdb12CompositeEnv12TimeToStringB5cxx11Em
0000000000227e40 w _ZN7rocksdb19CompositeEnvWrapper11LoadLibraryERKNSt7__cxx1112basic_stringIcSt11char_traitsIcESaIcEEES8_PSt10shared_ptrINS_14DynamicLibraryEE
0000000000227e90 w _ZN7rocksdb19CompositeEnvWrapper8ScheduleEPFvPvES1_NS_3Env8PriorityES1_S3_
0000000000227ea0 w _ZN7rocksdb19CompositeEnvWrapper10UnScheduleEPvNS_3Env8PriorityE
0000000000227eb0 w _ZN7rocksdb19CompositeEnvWrapper11StartThreadEPFvPvES1_
0000000000227ec0 w _ZN7rocksdb19CompositeEnvWrapper11WaitForJoinEv
0000000000227ed0 w _ZNK7rocksdb19CompositeEnvWrapper21GetThreadPoolQueueLenENS_3Env8PriorityE
0000000000227ee0 w _ZN7rocksdb19CompositeEnvWrapper11GetHostNameEPcm
0000000000227f30 w _ZN7rocksdb19CompositeEnvWrapper20SetBackgroundThreadsEiNS_3Env8PriorityE
0000000000227f40 w _ZN7rocksdb19CompositeEnvWrapper20GetBackgroundThreadsENS_3Env8PriorityE
0000000000227f50 w _ZN7rocksdb19CompositeEnvWrapper22SetAllowNonOwnerAccessEb
0000000000227fa0 w _ZN7rocksdb19CompositeEnvWrapper28IncBackgroundThreadsIfNeededEiNS_3Env8PriorityE
0000000000227fb0 w _ZN7rocksdb19CompositeEnvWrapper25LowerThreadPoolIOPriorityENS_3Env8PriorityE
0000000000227fc0 w _ZN7rocksdb19CompositeEnvWrapper26LowerThreadPoolCPUPriorityENS_3Env8PriorityE
0000000000227fd0 w _ZN7rocksdb19CompositeEnvWrapper26LowerThreadPoolCPUPriorityENS_3Env8PriorityENS_11CpuPriorityE
0000000000228020 w _ZN7rocksdb19CompositeEnvWrapper13GetThreadListEPSt6vectorINS_12ThreadStatusESaIS2_EE
0000000000228070 w _ZNK7rocksdb19CompositeEnvWrapper22GetThreadStatusUpdaterEv
0000000000228080 w _ZNK7rocksdb19CompositeEnvWrapper11GetThreadIDEv
0000000000228090 w _ZN7rocksdb19CompositeEnvWrapper16GenerateUniqueIdB5cxx11Ev
00000000002280e0 w _ZNSt15_Sp_counted_ptrIPN7rocksdb19CompositeEnvWrapperELN9__gnu_cxx12_Lock_policyE2EED2Ev
00000000002280f0 w _ZNSt15_Sp_counted_ptrIPN7rocksdb3EnvELN9__gnu_cxx12_Lock_policyE2EED1Ev
0000000000228100 w _ZNSt19_Sp_counted_deleterIPN7rocksdb9EnvLoggerENSt12__shared_ptrIS1_LN9__gnu_cxx12_Lock_policyE2EE8_DeleterISaIS1_EEES8_LS5_2EED2Ev
0000000000228110 w _ZNSt19_Sp_counted_deleterIPN7rocksdb9EnvLoggerENSt12__shared_ptrIS1_LN9__gnu_cxx12_Lock_policyE2EE8_DeleterISaIS1_EEES8_LS5_2EE14_M_get_deleterERKSt9type_info
0000000000228120 w _ZNSt15_Sp_counted_ptrIPN7rocksdb19CompositeEnvWrapperELN9__gnu_cxx12_Lock_policyE2EE10_M_disposeEv
0000000000228140 w _ZNSt15_Sp_counted_ptrIPN7rocksdb19CompositeEnvWrapperELN9__gnu_cxx12_Lock_policyE2EE14_M_get_deleterERKSt9type_info
0000000000228150 w _ZNSt15_Sp_counted_ptrIPN7rocksdb3EnvELN9__gnu_cxx12_Lock_policyE2EE10_M_disposeEv
0000000000228170 w _ZNSt15_Sp_counted_ptrIPN7rocksdb3EnvELN9__gnu_cxx12_Lock_policyE2EE14_M_get_deleterERKSt9type_info
0000000000228180 w _ZNSt15_Sp_counted_ptrIPN7rocksdb19CompositeEnvWrapperELN9__gnu_cxx12_Lock_policyE2EED0Ev
0000000000228190 w _ZNSt15_Sp_counted_ptrIPN7rocksdb19CompositeEnvWrapperELN9__gnu_cxx12_Lock_policyE2EE10_M_destroyEv
00000000002281a0 w _ZNSt15_Sp_counted_ptrIPN7rocksdb3EnvELN9__gnu_cxx12_Lock_policyE2EED0Ev
00000000002281b0 w _ZNSt15_Sp_counted_ptrIPN7rocksdb3EnvELN9__gnu_cxx12_Lock_policyE2EE10_M_destroyEv
00000000002281c0 w _ZNSt19_Sp_counted_deleterIPN7rocksdb9EnvLoggerENSt12__shared_ptrIS1_LN9__gnu_cxx12_Lock_policyE2EE8_DeleterISaIS1_EEES8_LS5_2EED0Ev
00000000002281d0 w _ZNSt19_Sp_counted_deleterIPN7rocksdb9EnvLoggerENSt12__shared_ptrIS1_LN9__gnu_cxx12_Lock_policyE2EE8_DeleterISaIS1_EEES8_LS5_2EE10_M_destroyEv
00000000002281e0 w _ZN7rocksdb3Env11IsDirectoryERKNSt7__cxx1112basic_stringIcSt11char_traitsIcESaIcEEEPb
0000000000228260 w _ZN7rocksdb3Env12GetFreeSpaceERKNSt7__cxx1112basic_stringIcSt11char_traitsIcESaIcEEEPm
00000000002282e0 w _ZN7rocksdb3Env12AreFilesSameERKNSt7__cxx1112basic_stringIcSt11char_traitsIcESaIcEEES8_Pb
0000000000228360 w _ZN7rocksdb3Env12NumFileLinksERKNSt7__cxx1112basic_stringIcSt11char_traitsIcESaIcEEEPm
00000000002283e0 w _ZN7rocksdb3Env8LinkFileERKNSt7__cxx1112basic_stringIcSt11char_traitsIcESaIcEEES8_
0000000000228460 w _ZN7rocksdb3Env8TruncateERKNSt7__cxx1112basic_stringIcSt11char_traitsIcESaIcEEEm
00000000002284e0 w _ZN7rocksdb3Env25NewMemoryMappedFileBufferERKNSt7__cxx1112basic_stringIcSt11char_traitsIcESaIcEEEPSt10unique_ptrINS_22MemoryMappedFileBufferESt14default_deleteISA_EE
0000000000228560 w _ZN7rocksdb3Env15NewRandomRWFileERKNSt7__cxx1112basic_stringIcSt11char_traitsIcESaIcEEEPSt10unique_ptrINS_12RandomRWFileESt14default_deleteISA_EERKNS_10EnvOptionsE
00000000002285e0 w _ZN7rocksdb3Env18ReopenWritableFileERKNSt7__cxx1112basic_stringIcSt11char_traitsIcESaIcEEEPSt10unique_ptrINS_12WritableFileESt14default_deleteISA_EERKNS_10EnvOptionsE
0000000000228660 w _ZN7rocksdb3Env13GetThreadListEPSt6vectorINS_12ThreadStatusESaIS2_EE
00000000002286e0 w _ZN7rocksdb3Env26LowerThreadPoolCPUPriorityENS0_8PriorityENS_11CpuPriorityE
0000000000228760 w _ZN7rocksdb3Env22SetAllowNonOwnerAccessEb
00000000002287e0 w _ZN7rocksdb3Env11LoadLibraryERKNSt7__cxx1112basic_stringIcSt11char_traitsIcESaIcEEES8_PSt10shared_ptrINS_14DynamicLibraryEE
0000000000228860 w _ZNK7rocksdb9EnvLogger14GetLogFileSizeEv
00000000002288a0 w _ZN7rocksdb12CompositeEnv15RegisterDbPathsERKSt6vectorINSt7__cxx1112basic_stringIcSt11char_traitsIcESaIcEEESaIS7_EE
0000000000228910 w _ZN7rocksdb12CompositeEnv17UnregisterDbPathsERKSt6vectorINSt7__cxx1112basic_stringIcSt11char_traitsIcESaIcEEESaIS7_EE
0000000000228980 w _ZN7rocksdb12WritableFile5FsyncEv
0000000000228a20 w _ZN7rocksdb12WritableFile6AppendERKNS_5SliceERKNS_20DataVerificationInfoE
0000000000228ac0 w _ZN7rocksdb19WritableFileWrapper5CloseEv
0000000000228bb0 w _ZN7rocksdb19WritableFileWrapper5FlushEv
0000000000228ca0 w _ZN7rocksdb19RandomRWFileWrapper5FlushEv
0000000000228d90 w _ZN7rocksdb16DirectoryWrapper5FsyncEv
0000000000228e80 w _ZN7rocksdb19RandomRWFileWrapper4SyncEv
0000000000228f70 w _ZN7rocksdb19RandomRWFileWrapper5CloseEv
0000000000229060 w _ZN7rocksdb21SequentialFileWrapper4SkipEm
0000000000229150 w _ZN7rocksdb19RandomRWFileWrapper5WriteEmRKNS_5SliceE
0000000000229240 w _ZN7rocksdb9EnvLogger5FlushEv
0000000000229300 w _ZN7rocksdb19WritableFileWrapper4SyncEv
00000000002293f0 w _ZN7rocksdb21SequentialFileWrapper4ReadEmPNS_5SliceEPc
00000000002294e0 w _ZNK7rocksdb19RandomRWFileWrapper4ReadEmmPNS_5SliceEPc
00000000002295d0 w _ZN7rocksdb19WritableFileWrapper6AppendERKNS_5SliceE
00000000002296c0 w _ZNK7rocksdb23RandomAccessFileWrapper4ReadEmmPNS_5SliceEPc
00000000002297b0 w _ZN7rocksdb12CompositeEnv25NewMemoryMappedFileBufferERKNSt7__cxx1112basic_stringIcSt11char_traitsIcESaIcEEEPSt10unique_ptrINS_22MemoryMappedFileBufferESt14default_deleteISA_EE
0000000000229820 w _ZN7rocksdb19status_to_io_statusEONS_6StatusE
0000000000229920 w _ZN7rocksdb9EnvLogger11FlushLockedEv
00000000002299b0 w _ZN7rocksdb9EnvLogger4LogvEPKcP13__va_list_tag
0000000000229d60 w _ZN7rocksdb9EnvLogger11CloseHelperEv
0000000000229fc0 w _ZN7rocksdb9EnvLogger9CloseImplEv
000000000022a000 w _ZNSt6vectorIN7rocksdb11ReadRequestESaIS1_EE7reserveEm
000000000022a200 w _ZN7rocksdb14ObjectRegistry9NewObjectINS_3EnvEEEPT_RKNSt7__cxx1112basic_stringIcSt11char_traitsIcESaIcEEEPSt10unique_ptrIS3_St14default_deleteIS3_EEPSA_
000000000022a390 w _ZN7rocksdb19CompositeEnvWrapperD1Ev
000000000022a3a0 w _ZN7rocksdb19CompositeEnvWrapperD0Ev
000000000022a3d0 w _ZN7rocksdb18WritableFileWriterD2Ev
000000000022a530 w _ZN7rocksdb9EnvLoggerD0Ev
000000000022a760 w _ZN7rocksdb9EnvLoggerD2Ev
000000000022a910 w _ZNSt19_Sp_counted_deleterIPN7rocksdb9EnvLoggerENSt12__shared_ptrIS1_LN9__gnu_cxx12_Lock_policyE2EE8_DeleterISaIS1_EEES8_LS5_2EE10_M_disposeEv
000000000022ab20 w _ZN7rocksdb14IODebugContextD2Ev
000000000022ab90 w _ZN7rocksdb12CompositeEnv11IsDirectoryERKNSt7__cxx1112basic_stringIcSt11char_traitsIcESaIcEEEPb
000000000022acf0 w _ZN7rocksdb12CompositeEnv12GetFreeSpaceERKNSt7__cxx1112basic_stringIcSt11char_traitsIcESaIcEEEPm
000000000022ae50 w _ZN7rocksdb12CompositeEnv15GetAbsolutePathERKNSt7__cxx1112basic_stringIcSt11char_traitsIcESaIcEEEPS6_
000000000022afb0 w _ZN7rocksdb12CompositeEnv9NewLoggerERKNSt7__cxx1112basic_stringIcSt11char_traitsIcESaIcEEEPSt10shared_ptrINS_6LoggerEE
000000000022b110 w _ZN7rocksdb12CompositeEnv16GetTestDirectoryEPNSt7__cxx1112basic_stringIcSt11char_traitsIcESaIcEEE
000000000022b270 w _ZN7rocksdb12CompositeEnv10UnlockFileEPNS_8FileLockE
000000000022b3d0 w _ZN7rocksdb12CompositeEnv8LockFileERKNSt7__cxx1112basic_stringIcSt11char_traitsIcESaIcEEEPPNS_8FileLockE
000000000022b530 w _ZN7rocksdb12CompositeEnv12AreFilesSameERKNSt7__cxx1112basic_stringIcSt11char_traitsIcESaIcEEES8_Pb
000000000022b690 w _ZN7rocksdb12CompositeEnv12NumFileLinksERKNSt7__cxx1112basic_stringIcSt11char_traitsIcESaIcEEEPm
000000000022b7f0 w _ZN7rocksdb12CompositeEnv8LinkFileERKNSt7__cxx1112basic_stringIcSt11char_traitsIcESaIcEEES8_
000000000022b950 w _ZN7rocksdb12CompositeEnv10RenameFileERKNSt7__cxx1112basic_stringIcSt11char_traitsIcESaIcEEES8_
000000000022bab0 w _ZN7rocksdb12CompositeEnv23GetFileModificationTimeERKNSt7__cxx1112basic_stringIcSt11char_traitsIcESaIcEEEPm
000000000022bc10 w _ZN7rocksdb12CompositeEnv11GetFileSizeERKNSt7__cxx1112basic_stringIcSt11char_traitsIcESaIcEEEPm
000000000022bd70 w _ZN7rocksdb12CompositeEnv9DeleteDirERKNSt7__cxx1112basic_stringIcSt11char_traitsIcESaIcEEE
000000000022bed0 w _ZN7rocksdb12CompositeEnv18CreateDirIfMissingERKNSt7__cxx1112basic_stringIcSt11char_traitsIcESaIcEEE
000000000022c030 w _ZN7rocksdb12CompositeEnv9CreateDirERKNSt7__cxx1112basic_stringIcSt11char_traitsIcESaIcEEE
000000000022c190 w _ZN7rocksdb12CompositeEnv8TruncateERKNSt7__cxx1112basic_stringIcSt11char_traitsIcESaIcEEEm
000000000022c2f0 w _ZN7rocksdb12CompositeEnv10DeleteFileERKNSt7__cxx1112basic_stringIcSt11char_traitsIcESaIcEEE
000000000022c450 w _ZN7rocksdb12CompositeEnv25GetChildrenFileAttributesERKNSt7__cxx1112basic_stringIcSt11char_traitsIcESaIcEEEPSt6vectorINS_3Env14FileAttributesESaISB_EE
000000000022c5b0 w _ZN7rocksdb12CompositeEnv11GetChildrenERKNSt7__cxx1112basic_stringIcSt11char_traitsIcESaIcEEEPSt6vectorIS6_SaIS6_EE
000000000022c710 w _ZN7rocksdb12CompositeEnv10FileExistsERKNSt7__cxx1112basic_stringIcSt11char_traitsIcESaIcEEE
000000000022c870 w _ZNSt6vectorIN7rocksdb3Env14FileAttributesESaIS2_EE17_M_default_appendEm
000000000022caf0 w _ZNSt6vectorIN7rocksdb11ReadRequestESaIS1_EE17_M_realloc_insertIJRS1_EEEvN9__gnu_cxx17__normal_iteratorIPS1_S3_EEDpOT_
000000000022cec0 T _ZN7rocksdb7HdfsEnv17NewSequentialFileERKNSt7__cxx1112basic_stringIcSt11char_traitsIcESaIcEEEPSt10unique_ptrINS_14SequentialFileESt14default_deleteISA_EERKNS_10EnvOptionsE
000000000022cf40 T _ZN7rocksdb10NewHdfsEnvEPPNS_3EnvERKNSt7__cxx1112basic_stringIcSt11char_traitsIcESaIcEEE
000000000022cfc0 w _ZN7rocksdb7HdfsEnv19NewRandomAccessFileERKNSt7__cxx1112basic_stringIcSt11char_traitsIcESaIcEEEPSt10unique_ptrINS_16RandomAccessFileESt14default_deleteISA_EERKNS_10EnvOptionsE
000000000022cfe0 w _ZN7rocksdb7HdfsEnv15NewWritableFileERKNSt7__cxx1112basic_stringIcSt11char_traitsIcESaIcEEEPSt10unique_ptrINS_12WritableFileESt14default_deleteISA_EERKNS_10EnvOptionsE
000000000022d000 w _ZN7rocksdb7HdfsEnv12NewDirectoryERKNSt7__cxx1112basic_stringIcSt11char_traitsIcESaIcEEEPSt10unique_ptrINS_9DirectoryESt14default_deleteISA_EE
000000000022d020 w _ZN7rocksdb7HdfsEnv10FileExistsERKNSt7__cxx1112basic_stringIcSt11char_traitsIcESaIcEEE
000000000022d040 w _ZN7rocksdb7HdfsEnv11GetChildrenERKNSt7__cxx1112basic_stringIcSt11char_traitsIcESaIcEEEPSt6vectorIS6_SaIS6_EE
000000000022d060 w _ZN7rocksdb7HdfsEnv10DeleteFileERKNSt7__cxx1112basic_stringIcSt11char_traitsIcESaIcEEE
000000000022d080 w _ZN7rocksdb7HdfsEnv9CreateDirERKNSt7__cxx1112basic_stringIcSt11char_traitsIcESaIcEEE
000000000022d0a0 w _ZN7rocksdb7HdfsEnv18CreateDirIfMissingERKNSt7__cxx1112basic_stringIcSt11char_traitsIcESaIcEEE
000000000022d0c0 w _ZN7rocksdb7HdfsEnv9DeleteDirERKNSt7__cxx1112basic_stringIcSt11char_traitsIcESaIcEEE
000000000022d0e0 w _ZN7rocksdb7HdfsEnv11GetFileSizeERKNSt7__cxx1112basic_stringIcSt11char_traitsIcESaIcEEEPm
000000000022d100 w _ZN7rocksdb7HdfsEnv23GetFileModificationTimeERKNSt7__cxx1112basic_stringIcSt11char_traitsIcESaIcEEEPm
000000000022d120 w _ZN7rocksdb7HdfsEnv10RenameFileERKNSt7__cxx1112basic_stringIcSt11char_traitsIcESaIcEEES8_
000000000022d140 w _ZN7rocksdb7HdfsEnv8LinkFileERKNSt7__cxx1112basic_stringIcSt11char_traitsIcESaIcEEES8_
000000000022d160 w _ZN7rocksdb7HdfsEnv8LockFileERKNSt7__cxx1112basic_stringIcSt11char_traitsIcESaIcEEEPPNS_8FileLockE
000000000022d180 w _ZN7rocksdb7HdfsEnv10UnlockFileEPNS_8FileLockE
000000000022d1a0 w _ZN7rocksdb7HdfsEnv9NewLoggerERKNSt7__cxx1112basic_stringIcSt11char_traitsIcESaIcEEEPSt10shared_ptrINS_6LoggerEE
000000000022d1c0 w _ZN7rocksdb7HdfsEnv11IsDirectoryERKNSt7__cxx1112basic_stringIcSt11char_traitsIcESaIcEEEPb
000000000022d1e0 w _ZN7rocksdb7HdfsEnv8ScheduleEPFvPvES1_NS_3Env8PriorityES1_S3_
000000000022d1f0 w _ZN7rocksdb7HdfsEnv10UnScheduleEPvNS_3Env8PriorityE
000000000022d200 w _ZN7rocksdb7HdfsEnv11StartThreadEPFvPvES1_
000000000022d210 w _ZN7rocksdb7HdfsEnv11WaitForJoinEv
000000000022d220 w _ZNK7rocksdb7HdfsEnv21GetThreadPoolQueueLenENS_3Env8PriorityE
000000000022d230 w _ZN7rocksdb7HdfsEnv16GetTestDirectoryEPNSt7__cxx1112basic_stringIcSt11char_traitsIcESaIcEEE
000000000022d250 w _ZN7rocksdb7HdfsEnv9NowMicrosEv
000000000022d260 w _ZN7rocksdb7HdfsEnv20SleepForMicrosecondsEi
000000000022d270 w _ZN7rocksdb7HdfsEnv11GetHostNameEPcm
000000000022d290 w _ZN7rocksdb7HdfsEnv14GetCurrentTimeEPl
000000000022d2b0 w _ZN7rocksdb7HdfsEnv15GetAbsolutePathERKNSt7__cxx1112basic_stringIcSt11char_traitsIcESaIcEEEPS6_
000000000022d2d0 w _ZN7rocksdb7HdfsEnv20SetBackgroundThreadsEiNS_3Env8PriorityE
000000000022d2e0 w _ZN7rocksdb7HdfsEnv20GetBackgroundThreadsENS_3Env8PriorityE
000000000022d2f0 w _ZN7rocksdb7HdfsEnv28IncBackgroundThreadsIfNeededEiNS_3Env8PriorityE
000000000022d300 w _ZNK7rocksdb7HdfsEnv11GetThreadIDEv
000000000022d310 w _ZN7rocksdb7HdfsEnvD1Ev
000000000022d320 w _ZN7rocksdb7HdfsEnvD0Ev
000000000022d350 w _ZN7rocksdb7HdfsEnv12TimeToStringB5cxx11Em
000000000022d370 t _ZNK7rocksdb12_GLOBAL__N_119PosixDynamicLibrary4NameEv
000000000022d380 t _ZNK7rocksdb12_GLOBAL__N_110PosixClock4NameEv
000000000022d390 t _ZNK7rocksdb12_GLOBAL__N_18PosixEnv22GetThreadStatusUpdaterEv
000000000022d3a0 t _ZN7rocksdb12_GLOBAL__N_18PosixEnv20SetBackgroundThreadsEiNS_3Env8PriorityE
000000000022d3c0 t _ZN7rocksdb12_GLOBAL__N_18PosixEnv20GetBackgroundThreadsENS_3Env8PriorityE
000000000022d3e0 t _ZN7rocksdb12_GLOBAL__N_18PosixEnv22SetAllowNonOwnerAccessEb
000000000022d400 t _ZNK7rocksdb12_GLOBAL__N_18PosixEnv21GetThreadPoolQueueLenENS_3Env8PriorityE
000000000022d420 t _ZN7rocksdb12_GLOBAL__N_110PosixClockD2Ev
000000000022d430 t _ZNSt15_Sp_counted_ptrIPN7rocksdb12_GLOBAL__N_119PosixDynamicLibraryELN9__gnu_cxx12_Lock_policyE2EED2Ev
000000000022d440 t _ZNSt19_Sp_counted_deleterIPN7rocksdb12_GLOBAL__N_110PosixClockENSt12__shared_ptrIS2_LN9__gnu_cxx12_Lock_policyE2EE8_DeleterISaIS2_EEES9_LS6_2EED2Ev
000000000022d450 t _ZNSt15_Sp_counted_ptrIPN7rocksdb12_GLOBAL__N_119PosixDynamicLibraryELN9__gnu_cxx12_Lock_policyE2EE14_M_get_deleterERKSt9type_info
000000000022d460 t _ZN7rocksdb12_GLOBAL__N_1L18StartThreadWrapperEPv
000000000022d490 t _ZN7rocksdb12_GLOBAL__N_110PosixClockD0Ev
000000000022d4a0 t _ZNSt19_Sp_counted_deleterIPN7rocksdb12_GLOBAL__N_110PosixClockENSt12__shared_ptrIS2_LN9__gnu_cxx12_Lock_policyE2EE8_DeleterISaIS2_EEES9_LS6_2EE10_M_disposeEv
000000000022d4b0 t _ZNSt15_Sp_counted_ptrIPN7rocksdb12_GLOBAL__N_119PosixDynamicLibraryELN9__gnu_cxx12_Lock_policyE2EED0Ev
000000000022d4c0 t _ZNSt15_Sp_counted_ptrIPN7rocksdb12_GLOBAL__N_119PosixDynamicLibraryELN9__gnu_cxx12_Lock_policyE2EE10_M_destroyEv
000000000022d4d0 t _ZNSt19_Sp_counted_deleterIPN7rocksdb12_GLOBAL__N_110PosixClockENSt12__shared_ptrIS2_LN9__gnu_cxx12_Lock_policyE2EE8_DeleterISaIS2_EEES9_LS6_2EE10_M_destroyEv
000000000022d4e0 t _ZNSt19_Sp_counted_deleterIPN7rocksdb12_GLOBAL__N_110PosixClockENSt12__shared_ptrIS2_LN9__gnu_cxx12_Lock_policyE2EE8_DeleterISaIS2_EEES9_LS6_2EED0Ev
000000000022d4f0 t __tcf_0
000000000022d530 t __tcf_1
000000000022d570 t __tcf_2
000000000022d5b0 t __tcf_4
000000000022d5f0 t __tcf_3
000000000022d630 t _ZN7rocksdb12_GLOBAL__N_18PosixEnv11WaitForJoinEv
000000000022d690 t _ZNK7rocksdb12_GLOBAL__N_18PosixEnv11GetThreadIDEv
000000000022d6a0 t _ZN7rocksdb12_GLOBAL__N_18PosixEnv13GetThreadListEPSt6vectorINS_12ThreadStatusESaIS3_EE
000000000022d6f0 t _ZN7rocksdb12_GLOBAL__N_18PosixEnv26LowerThreadPoolCPUPriorityENS_3Env8PriorityE
000000000022d710 t _ZN7rocksdb12_GLOBAL__N_18PosixEnv26LowerThreadPoolCPUPriorityENS_3Env8PriorityENS_11CpuPriorityE
000000000022d750 t _ZN7rocksdb12_GLOBAL__N_18PosixEnv25LowerThreadPoolIOPriorityENS_3Env8PriorityE
000000000022d770 t _ZN7rocksdb12_GLOBAL__N_18PosixEnv28IncBackgroundThreadsIfNeededEiNS_3Env8PriorityE
000000000022d790 t _ZN7rocksdb12_GLOBAL__N_18PosixEnv10UnScheduleEPvNS_3Env8PriorityE
000000000022d7b0 t _ZN7rocksdb12_GLOBAL__N_18PosixEnv8ScheduleEPFvPvES2_NS_3Env8PriorityES2_S4_
000000000022d7d0 t _ZN7rocksdb12_GLOBAL__N_119PosixDynamicLibraryD2Ev
000000000022d820 t _ZN7rocksdb12_GLOBAL__N_110PosixClock12TimeToStringEm
000000000022d910 t _ZN7rocksdb12_GLOBAL__N_110PosixClock20SleepForMicrosecondsEi
000000000022d920 t _ZN7rocksdb12_GLOBAL__N_110PosixClock8CPUNanosEv
000000000022d970 t _ZN7rocksdb12_GLOBAL__N_110PosixClock9CPUMicrosEv
000000000022d9c0 t _ZN7rocksdb12_GLOBAL__N_110PosixClock8NowNanosEv
000000000022da10 t _ZN7rocksdb12_GLOBAL__N_110PosixClock9NowMicrosEv
000000000022da60 t _ZNSt7__cxx1112basic_stringIcSt11char_traitsIcESaIcEE12_M_constructIPcEEvT_S7_St20forward_iterator_tag.isra.112
000000000022db30 t _ZN7rocksdb12_GLOBAL__N_119PosixDynamicLibraryD0Ev
000000000022db70 t _ZNSt15_Sp_counted_ptrIPN7rocksdb12_GLOBAL__N_119PosixDynamicLibraryELN9__gnu_cxx12_Lock_policyE2EE10_M_disposeEv
000000000022dbc0 t _ZN7rocksdb12_GLOBAL__N_110PosixClock14GetCurrentTimeEPl
000000000022dd30 t _ZN7rocksdb12_GLOBAL__N_18PosixEnv11GetHostNameEPcm
000000000022df40 t _ZN7rocksdb12_GLOBAL__N_119PosixDynamicLibrary10LoadSymbolERKNSt7__cxx1112basic_stringIcSt11char_traitsIcESaIcEEEPPv
000000000022e070 t _ZN7rocksdb12_GLOBAL__N_18PosixEnv11LoadLibraryERKNSt7__cxx1112basic_stringIcSt11char_traitsIcESaIcEEES9_PSt10shared_ptrINS_14DynamicLibraryEE
000000000022f110 T _ZN7rocksdb11SystemClock7DefaultEv
000000000022f210 T _ZN7rocksdb3Env16GenerateUniqueIdB5cxx11Ev
000000000022f650 t _ZN7rocksdb12_GLOBAL__N_18PosixEnv16GenerateUniqueIdEv
000000000022f690 T _ZN7rocksdb3Env7DefaultEv
000000000022faf0 t _ZN7rocksdb12_GLOBAL__N_18PosixEnvD1Ev
000000000022fbd0 T _ZN7rocksdb15NewCompositeEnvERKSt10shared_ptrINS_10FileSystemEE
000000000022fcc0 t _ZN7rocksdb12_GLOBAL__N_18PosixEnvD0Ev
000000000022fda0 t _ZN7rocksdb12_GLOBAL__N_18PosixEnv11StartThreadEPFvPvES2_
000000000022fe80 w _ZN7rocksdb19ThreadStatusUpdaterD2Ev
0000000000230050 w _ZN7rocksdb19ThreadStatusUpdaterD0Ev
0000000000230220 w _ZNSt10shared_ptrIN7rocksdb11SystemClockEED1Ev
00000000002302b0 T _ZNK7rocksdb10FileSystem18OptimizeForLogReadERKNS_11FileOptionsE
0000000000230300 T _ZNK7rocksdb10FileSystem19OptimizeForLogWriteERKNS_11FileOptionsERKNS_9DBOptionsE
0000000000230360 T _ZNK7rocksdb10FileSystem24OptimizeForManifestWriteERKNS_11FileOptionsE
00000000002303a0 T _ZNK7rocksdb10FileSystem31OptimizeForCompactionTableWriteERKNS_11FileOptionsERKNS_18ImmutableDBOptionsE
00000000002303f0 T _ZNK7rocksdb10FileSystem23OptimizeForBlobFileReadERKNS_11FileOptionsERKNS_18ImmutableDBOptionsE
0000000000230440 t _ZNSt7__cxx1112basic_stringIcSt11char_traitsIcESaIcEE12_M_constructIPcEEvT_S7_St20forward_iterator_tag.isra.57
0000000000230510 T _ZN7rocksdb10FileSystem17ReuseWritableFileERKNSt7__cxx1112basic_stringIcSt11char_traitsIcESaIcEEES8_RKNS_11FileOptionsEPSt10unique_ptrINS_14FSWritableFileESt14default_deleteISD_EEPNS_14IODebugContextE
0000000000230770 T _ZN7rocksdb10FileSystemC1Ev
0000000000230780 T _ZN7rocksdb10FileSystemD2Ev
0000000000230790 T _ZN7rocksdb10FileSystemD0Ev
00000000002307a0 T _ZN7rocksdb17WriteStringToFileEPNS_10FileSystemERKNS_5SliceERKNSt7__cxx1112basic_stringIcSt11char_traitsIcESaIcEEEb
0000000000230e20 T _ZN7rocksdb16ReadFileToStringEPNS_10FileSystemERKNSt7__cxx1112basic_stringIcSt11char_traitsIcESaIcEEEPS7_
0000000000231330 T _ZN7rocksdb10FileSystem16CreateFromStringERKNS_13ConfigOptionsERKNSt7__cxx1112basic_stringIcSt11char_traitsIcESaIcEEEPSt10shared_ptrIS0_E
0000000000231c50 T _ZN7rocksdb10FileSystem4LoadERKNSt7__cxx1112basic_stringIcSt11char_traitsIcESaIcEEEPSt10shared_ptrIS0_E
0000000000231d70 w _ZNK7rocksdb10FileSystem19SanitizeFileOptionsEPNS_11FileOptionsE
0000000000231d80 w _ZNSt15_Sp_counted_ptrIPN7rocksdb10FileSystemELN9__gnu_cxx12_Lock_policyE2EED1Ev
0000000000231d90 w _ZNSt15_Sp_counted_ptrIPN7rocksdb10FileSystemELN9__gnu_cxx12_Lock_policyE2EE14_M_get_deleterERKSt9type_info
0000000000231da0 w _ZNSt15_Sp_counted_ptrIPN7rocksdb10FileSystemELN9__gnu_cxx12_Lock_policyE2EED0Ev
0000000000231db0 w _ZNSt15_Sp_counted_ptrIPN7rocksdb10FileSystemELN9__gnu_cxx12_Lock_policyE2EE10_M_destroyEv
0000000000231dc0 w _ZN7rocksdb21FSWritableFileWrapper6AppendERKNS_5SliceERKNS_9IOOptionsEPNS_14IODebugContextE
0000000000231eb0 w _ZN7rocksdb23FSSequentialFileWrapper4ReadEmRKNS_9IOOptionsEPNS_5SliceEPcPNS_14IODebugContextE
0000000000231fc0 w _ZNSt15_Sp_counted_ptrIPN7rocksdb10FileSystemELN9__gnu_cxx12_Lock_policyE2EE10_M_disposeEv
0000000000232090 w _ZN7rocksdb10FileSystem8TruncateERKNSt7__cxx1112basic_stringIcSt11char_traitsIcESaIcEEEmRKNS_9IOOptionsEPNS_14IODebugContextE
0000000000232130 w _ZN7rocksdb10FileSystem15NewRandomRWFileERKNSt7__cxx1112basic_stringIcSt11char_traitsIcESaIcEEERKNS_11FileOptionsEPSt10unique_ptrINS_14FSRandomRWFileESt14default_deleteISD_EEPNS_14IODebugContextE
00000000002321d0 w _ZN7rocksdb10FileSystem25NewMemoryMappedFileBufferERKNSt7__cxx1112basic_stringIcSt11char_traitsIcESaIcEEEPSt10unique_ptrINS_22MemoryMappedFileBufferESt14default_deleteISA_EE
0000000000232280 w _ZN7rocksdb10FileSystem8LinkFileERKNSt7__cxx1112basic_stringIcSt11char_traitsIcESaIcEEES8_RKNS_9IOOptionsEPNS_14IODebugContextE
0000000000232320 w _ZN7rocksdb10FileSystem12NumFileLinksERKNSt7__cxx1112basic_stringIcSt11char_traitsIcESaIcEEERKNS_9IOOptionsEPmPNS_14IODebugContextE
00000000002323c0 w _ZN7rocksdb10FileSystem12AreFilesSameERKNSt7__cxx1112basic_stringIcSt11char_traitsIcESaIcEEES8_RKNS_9IOOptionsEPbPNS_14IODebugContextE
0000000000232460 w _ZN7rocksdb10FileSystem12GetFreeSpaceERKNSt7__cxx1112basic_stringIcSt11char_traitsIcESaIcEEERKNS_9IOOptionsEPmPNS_14IODebugContextE
00000000002324e0 w _ZN7rocksdb10FileSystem18ReopenWritableFileERKNSt7__cxx1112basic_stringIcSt11char_traitsIcESaIcEEERKNS_11FileOptionsEPSt10unique_ptrINS_14FSWritableFileESt14default_deleteISD_EEPNS_14IODebugContextE
0000000000232560 w _ZN7rocksdb10FileSystem25GetChildrenFileAttributesERKNSt7__cxx1112basic_stringIcSt11char_traitsIcESaIcEEERKNS_9IOOptionsEPSt6vectorINS_3Env14FileAttributesESaISE_EEPNS_14IODebugContextE
0000000000232fc0 t _ZNK7rocksdb12_GLOBAL__N_115PosixFileSystem4NameEv
0000000000232fd0 t _ZNK7rocksdb12_GLOBAL__N_115PosixFileSystem19OptimizeForLogWriteERKNS_11FileOptionsERKNS_9DBOptionsE
0000000000233040 t _ZNK7rocksdb12_GLOBAL__N_115PosixFileSystem24OptimizeForManifestWriteERKNS_11FileOptionsE
0000000000233090 t _ZNSt14_Function_base13_Base_managerIN7rocksdbUlRKNSt7__cxx1112basic_stringIcSt11char_traitsIcESaIcEEEPSt10unique_ptrINS1_10FileSystemESt14default_deleteISB_EEPS7_E_EE10_M_managerERSt9_Any_dataRKSJ_St18_Manager_operation
00000000002330a0 t _ZNSt19_Sp_counted_deleterIPN7rocksdb12_GLOBAL__N_115PosixFileSystemEZNS0_10FileSystem7DefaultEvEUlS3_E_SaIvELN9__gnu_cxx12_Lock_policyE2EED2Ev
00000000002330b0 t _ZNSt19_Sp_counted_deleterIPN7rocksdb12_GLOBAL__N_115PosixFileSystemEZNS0_10FileSystem7DefaultEvEUlS3_E_SaIvELN9__gnu_cxx12_Lock_policyE2EE10_M_disposeEv
00000000002330c0 t _ZNSt19_Sp_counted_deleterIPN7rocksdb12_GLOBAL__N_115PosixFileSystemEZNS0_10FileSystem7DefaultEvEUlS3_E_SaIvELN9__gnu_cxx12_Lock_policyE2EE14_M_get_deleterERKSt9type_info
00000000002330d0 t _ZNSt19_Sp_counted_deleterIPN7rocksdb12_GLOBAL__N_115PosixFileSystemEZNS0_10FileSystem7DefaultEvEUlS3_E_SaIvELN9__gnu_cxx12_Lock_policyE2EED0Ev
00000000002330e0 t __tcf_0
0000000000233120 t __tcf_1
0000000000233160 t __tcf_2
00000000002331a0 t __tcf_4
00000000002331e0 t __tcf_3
0000000000233220 t _ZNSt19_Sp_counted_deleterIPN7rocksdb12_GLOBAL__N_115PosixFileSystemEZNS0_10FileSystem7DefaultEvEUlS3_E_SaIvELN9__gnu_cxx12_Lock_policyE2EE10_M_destroyEv
0000000000233230 t _ZN7rocksdb12_GLOBAL__N_115PosixFileSystemD2Ev
0000000000233240 t _ZN7rocksdb12_GLOBAL__N_115PosixFileSystemD0Ev
0000000000233270 t _ZN7rocksdb12_GLOBAL__N_115PosixFileSystem9DirExistsERKNSt7__cxx1112basic_stringIcSt11char_traitsIcESaIcEEE
00000000002332d0 t _ZN7rocksdb12_GLOBAL__N_1L6gettidEv
00000000002332f0 t _ZN7rocksdb12_GLOBAL__N_113PosixFileLockD2Ev
0000000000233330 t _ZN7rocksdb12_GLOBAL__N_115PosixFileSystem17UnregisterDbPathsERKSt6vectorINSt7__cxx1112basic_stringIcSt11char_traitsIcESaIcEEESaIS8_EE
0000000000233370 t _ZN7rocksdb12_GLOBAL__N_115PosixFileSystem15RegisterDbPathsERKSt6vectorINSt7__cxx1112basic_stringIcSt11char_traitsIcESaIcEEESaIS8_EE
00000000002333c0 t _ZN7rocksdb13PerfStepTimer4StopEv.part.72
0000000000233420 t _ZNSt8_Rb_treeINSt7__cxx1112basic_stringIcSt11char_traitsIcESaIcEEESt4pairIKS5_N7rocksdb12_GLOBAL__N_115LockHoldingInfoEESt10_Select1stISB_ESt4lessIS5_ESaISB_EE8_M_eraseEPSt13_Rb_tree_nodeISB_E
0000000000233480 t _ZNSt3mapINSt7__cxx1112basic_stringIcSt11char_traitsIcESaIcEEEN7rocksdb12_GLOBAL__N_115LockHoldingInfoESt4lessIS5_ESaISt4pairIKS5_S8_EEED2Ev
0000000000233490 t _ZNSt7__cxx1112basic_stringIcSt11char_traitsIcESaIcEE12_M_constructIPcEEvT_S7_St20forward_iterator_tag.isra.155
0000000000233560 t _ZNSt7__cxx1112basic_stringIcSt11char_traitsIcESaIcEEC2EPKcRKS3_.isra.166
0000000000233590 t _ZN7rocksdb12_GLOBAL__N_115PosixFileSystem12GetFreeSpaceERKNSt7__cxx1112basic_stringIcSt11char_traitsIcESaIcEEERKNS_9IOOptionsEPmPNS_14IODebugContextE
00000000002336c0 t _ZN7rocksdb12_GLOBAL__N_115PosixFileSystem12AreFilesSameERKNSt7__cxx1112basic_stringIcSt11char_traitsIcESaIcEEES9_RKNS_9IOOptionsEPbPNS_14IODebugContextE
00000000002338b0 t _ZN7rocksdb12_GLOBAL__N_115PosixFileSystem12NumFileLinksERKNSt7__cxx1112basic_stringIcSt11char_traitsIcESaIcEEERKNS_9IOOptionsEPmPNS_14IODebugContextE
00000000002339c0 t _ZN7rocksdb12_GLOBAL__N_115PosixFileSystem23GetFileModificationTimeERKNSt7__cxx1112basic_stringIcSt11char_traitsIcESaIcEEERKNS_9IOOptionsEPmPNS_14IODebugContextE
0000000000233ad0 t _ZN7rocksdb12_GLOBAL__N_115PosixFileSystem11GetFileSizeERKNSt7__cxx1112basic_stringIcSt11char_traitsIcESaIcEEERKNS_9IOOptionsEPmPNS_14IODebugContextE
0000000000233bf0 t _ZN7rocksdb12_GLOBAL__N_115PosixFileSystem9DeleteDirERKNSt7__cxx1112basic_stringIcSt11char_traitsIcESaIcEEERKNS_9IOOptionsEPNS_14IODebugContextE
0000000000233ce0 t _ZN7rocksdb12_GLOBAL__N_115PosixFileSystem9CreateDirERKNSt7__cxx1112basic_stringIcSt11char_traitsIcESaIcEEERKNS_9IOOptionsEPNS_14IODebugContextE
0000000000233dd0 t _ZNSt17_Function_handlerIFPN7rocksdb10FileSystemERKNSt7__cxx1112basic_stringIcSt11char_traitsIcESaIcEEEPSt10unique_ptrIS1_St14default_deleteIS1_EEPS8_ENS0_UlSA_SF_SG_E_EE9_M_invokeERKSt9_Any_dataSA_OSF_OSG_
0000000000233e50 t _ZN7rocksdb12_GLOBAL__N_113PosixFileLockD0Ev
0000000000233e90 t _ZNSt10shared_ptrIN7rocksdb12_GLOBAL__N_115PosixFileSystemEED2Ev
0000000000233f20 t _ZN7rocksdb12_GLOBAL__N_115PosixFileSystem15NewRandomRWFileERKNSt7__cxx1112basic_stringIcSt11char_traitsIcESaIcEEERKNS_11FileOptionsEPSt10unique_ptrINS_14FSRandomRWFileESt14default_deleteISE_EEPNS_14IODebugContextE
0000000000234280 t _ZN7rocksdb12_GLOBAL__N_115PosixFileSystem12NewDirectoryERKNSt7__cxx1112basic_stringIcSt11char_traitsIcESaIcEEERKNS_9IOOptionsEPSt10unique_ptrINS_11FSDirectoryESt14default_deleteISE_EEPNS_14IODebugContextE
00000000002344a0 t _ZNSt8_Rb_treeINSt7__cxx1112basic_stringIcSt11char_traitsIcESaIcEEESt4pairIKS5_N7rocksdb12_GLOBAL__N_115LockHoldingInfoEESt10_Select1stISB_ESt4lessIS5_ESaISB_EE5eraseERS7_.constprop.665
00000000002347c0 t _ZN7rocksdb12_GLOBAL__N_115PosixFileSystem17NewSequentialFileERKNSt7__cxx1112basic_stringIcSt11char_traitsIcESaIcEEERKNS_11FileOptionsEPSt10unique_ptrINS_16FSSequentialFileESt14default_deleteISE_EEPNS_14IODebugContextE
0000000000234cb0 t _ZN7rocksdb12_GLOBAL__N_115PosixFileSystem15GetAbsolutePathERKNSt7__cxx1112basic_stringIcSt11char_traitsIcESaIcEEERKNS_9IOOptionsEPS7_PNS_14IODebugContextE
0000000000234e40 t _ZN7rocksdb12_GLOBAL__N_115PosixFileSystem16OpenWritableFileERKNSt7__cxx1112basic_stringIcSt11char_traitsIcESaIcEEERKNS_11FileOptionsEbPSt10unique_ptrINS_14FSWritableFileESt14default_deleteISE_EEPNS_14IODebugContextE
0000000000235390 t _ZN7rocksdb12_GLOBAL__N_115PosixFileSystem18ReopenWritableFileERKNSt7__cxx1112basic_stringIcSt11char_traitsIcESaIcEEERKNS_11FileOptionsEPSt10unique_ptrINS_14FSWritableFileESt14default_deleteISE_EEPNS_14IODebugContextE
00000000002353e0 t _ZN7rocksdb12_GLOBAL__N_115PosixFileSystem15NewWritableFileERKNSt7__cxx1112basic_stringIcSt11char_traitsIcESaIcEEERKNS_11FileOptionsEPSt10unique_ptrINS_14FSWritableFileESt14default_deleteISE_EEPNS_14IODebugContextE
0000000000235430 t _ZN7rocksdb12_GLOBAL__N_115PosixFileSystem11IsDirectoryERKNSt7__cxx1112basic_stringIcSt11char_traitsIcESaIcEEERKNS_9IOOptionsEPbPNS_14IODebugContextE
00000000002357c0 t _ZN7rocksdb12_GLOBAL__N_115PosixFileSystem10UnlockFileEPNS_8FileLockERKNS_9IOOptionsEPNS_14IODebugContextE
0000000000235a00 t _ZN7rocksdb12_GLOBAL__N_115PosixFileSystem10DeleteFileERKNSt7__cxx1112basic_stringIcSt11char_traitsIcESaIcEEERKNS_9IOOptionsEPNS_14IODebugContextE
0000000000235b20 t _ZN7rocksdb12_GLOBAL__N_115PosixFileSystem25NewMemoryMappedFileBufferERKNSt7__cxx1112basic_stringIcSt11char_traitsIcESaIcEEEPSt10unique_ptrINS_22MemoryMappedFileBufferESt14default_deleteISB_EE
0000000000235f70 t _ZN7rocksdb12_GLOBAL__N_115PosixFileSystem19NewRandomAccessFileERKNSt7__cxx1112basic_stringIcSt11char_traitsIcESaIcEEERKNS_11FileOptionsEPSt10unique_ptrINS_18FSRandomAccessFileESt14default_deleteISE_EEPNS_14IODebugContextE
0000000000236470 T _ZN7rocksdb10FileSystem7DefaultEv
0000000000236630 t _ZN7rocksdb12_GLOBAL__N_115PosixFileSystem10FileExistsERKNSt7__cxx1112basic_stringIcSt11char_traitsIcESaIcEEERKNS_9IOOptionsEPNS_14IODebugContextE
0000000000236a80 t _ZN7rocksdb12_GLOBAL__N_115PosixFileSystem8LockFileERKNSt7__cxx1112basic_stringIcSt11char_traitsIcESaIcEEERKNS_9IOOptionsEPPNS_8FileLockEPNS_14IODebugContextE
0000000000237600 t _ZN7rocksdb12_GLOBAL__N_115PosixFileSystem8LinkFileERKNSt7__cxx1112basic_stringIcSt11char_traitsIcESaIcEEES9_RKNS_9IOOptionsEPNS_14IODebugContextE
0000000000237740 t _ZN7rocksdb12_GLOBAL__N_115PosixFileSystem10RenameFileERKNSt7__cxx1112basic_stringIcSt11char_traitsIcESaIcEEES9_RKNS_9IOOptionsEPNS_14IODebugContextE
0000000000237830 t _ZN7rocksdb12_GLOBAL__N_115PosixFileSystem18CreateDirIfMissingERKNSt7__cxx1112basic_stringIcSt11char_traitsIcESaIcEEERKNS_9IOOptionsEPNS_14IODebugContextE
0000000000237ad0 t _ZN7rocksdb12_GLOBAL__N_115PosixFileSystem16GetTestDirectoryERKNS_9IOOptionsEPNSt7__cxx1112basic_stringIcSt11char_traitsIcESaIcEEEPNS_14IODebugContextE
0000000000237c10 t _ZN7rocksdb12_GLOBAL__N_115PosixFileSystem17ReuseWritableFileERKNSt7__cxx1112basic_stringIcSt11char_traitsIcESaIcEEES9_RKNS_11FileOptionsEPSt10unique_ptrINS_14FSWritableFileESt14default_deleteISE_EEPNS_14IODebugContextE
0000000000238200 t _ZN7rocksdb12_GLOBAL__N_115PosixFileSystem9NewLoggerERKNSt7__cxx1112basic_stringIcSt11char_traitsIcESaIcEEERKNS_9IOOptionsEPSt10shared_ptrINS_6LoggerEEPNS_14IODebugContextE
0000000000238770 t _ZN7rocksdb12_GLOBAL__N_115PosixFileSystem11GetChildrenERKNSt7__cxx1112basic_stringIcSt11char_traitsIcESaIcEEERKNS_9IOOptionsEPSt6vectorIS7_SaIS7_EEPNS_14IODebugContextE
0000000000238a90 t _ZSt22__final_insertion_sortIN9__gnu_cxx17__normal_iteratorIPcSt6vectorIcSaIcEEEENS0_5__ops15_Iter_less_iterEEvT_S9_T0_.isra.526
0000000000238b40 t _ZSt16__introsort_loopIN9__gnu_cxx17__normal_iteratorIPcSt6vectorIcSaIcEEEElNS0_5__ops15_Iter_less_iterEEvT_S9_T0_T1_.isra.535
0000000000238cf0 w _ZNSt8functionIFPN7rocksdb10FileSystemERKNSt7__cxx1112basic_stringIcSt11char_traitsIcESaIcEEEPSt10unique_ptrIS1_St14default_deleteIS1_EEPS8_EED1Ev
0000000000238d10 w _ZNSt17_Function_handlerIFmiEPS0_E9_M_invokeERKSt9_Any_dataOi
0000000000238d20 w _ZNSt14_Function_base13_Base_managerIPFmiEE10_M_managerERSt9_Any_dataRKS4_St18_Manager_operation
0000000000238d40 w _ZNSt17_Function_handlerIFN7rocksdb6StatusERKNSt7__cxx1112basic_stringIcSt11char_traitsIcESaIcEEEPmEPSB_E9_M_invokeERKSt9_Any_dataS9_OSA_
0000000000238d90 w _ZNSt14_Function_base13_Base_managerIPFN7rocksdb6StatusERKNSt7__cxx1112basic_stringIcSt11char_traitsIcESaIcEEEPmEE10_M_managerERSt9_Any_dataRKSF_St18_Manager_operation
0000000000238db0 w _ZNSt15_Sp_counted_ptrIPN7rocksdb11PosixLoggerELN9__gnu_cxx12_Lock_policyE2EED1Ev
0000000000238dc0 w _ZNSt15_Sp_counted_ptrIPN7rocksdb11PosixLoggerELN9__gnu_cxx12_Lock_policyE2EE14_M_get_deleterERKSt9type_info
0000000000238dd0 w _ZNSt15_Sp_counted_ptrIPN7rocksdb11PosixLoggerELN9__gnu_cxx12_Lock_policyE2EED0Ev
0000000000238de0 w _ZNSt15_Sp_counted_ptrIPN7rocksdb11PosixLoggerELN9__gnu_cxx12_Lock_policyE2EE10_M_destroyEv
0000000000238df0 w _ZN7rocksdb11PosixLogger5FlushEv
0000000000238e30 w _ZNK7rocksdb11PosixLogger14GetLogFileSizeEv
0000000000238e40 w _ZN7rocksdb13ObjectLibrary12FactoryEntryINS_10FileSystemEED0Ev
0000000000238f20 w _ZN7rocksdb11PosixLogger4LogvEPKcP13__va_list_tag
0000000000239360 w _ZN7rocksdb13ObjectLibrary12FactoryEntryINS_10FileSystemEED1Ev
0000000000239440 w _ZN7rocksdb11PosixLogger9CloseImplEv
00000000002395a0 w _ZN7rocksdb11PosixLoggerD0Ev
00000000002396e0 w _ZN7rocksdb11PosixLoggerD2Ev
0000000000239810 w _ZN7rocksdb8IOStatusC1ENS_6Status4CodeENS1_7SubCodeERKNS_5SliceES6_
00000000002398e0 w _ZN7rocksdb11PosixLogger16PosixCloseHelperEv
0000000000239a20 w _ZNSt15_Sp_counted_ptrIPN7rocksdb11PosixLoggerELN9__gnu_cxx12_Lock_policyE2EE10_M_disposeEv
0000000000239ac0 w _ZNSt8functionIFPN7rocksdb10FileSystemERKNSt7__cxx1112basic_stringIcSt11char_traitsIcESaIcEEEPSt10unique_ptrIS1_St14default_deleteIS1_EEPS8_EEC2ERKSI_
0000000000239b30 w _ZNSt8_Rb_treeINSt7__cxx1112basic_stringIcSt11char_traitsIcESaIcEEESt4pairIKS5_N7rocksdb21LogicalBlockSizeCache10CacheValueEESt10_Select1stISB_ESt4lessIS5_ESaISB_EE8_M_eraseEPSt13_Rb_tree_nodeISB_E
0000000000239b90 w _ZN7rocksdb21LogicalBlockSizeCacheD1Ev
0000000000239bf0 w _ZN7rocksdb21LogicalBlockSizeCacheC1ESt8functionIFmiEES1_IFNS_6StatusERKNSt7__cxx1112basic_stringIcSt11char_traitsIcESaIcEEEPmEE
0000000000239d30 w _ZN7rocksdb13ObjectLibrary8RegisterINS_10FileSystemEEERKSt8functionIFPT_RKNSt7__cxx1112basic_stringIcSt11char_traitsIcESaIcEEEPSt10unique_ptrIS4_St14default_deleteIS4_EEPSB_EESD_SN_
000000000023a080 w _ZNK7rocksdb13ObjectLibrary12FactoryEntryINS_10FileSystemEE7matchesERKNSt7__cxx1112basic_stringIcSt11char_traitsIcESaIcEEE
000000000023a130 t _ZNSt7__cxx1112basic_stringIcSt11char_traitsIcESaIcEE12_M_constructIPcEEvT_S7_St20forward_iterator_tag.isra.51
000000000023a200 T _ZN7rocksdb24FileSystemTracingWrapper17NewSequentialFileERKNSt7__cxx1112basic_stringIcSt11char_traitsIcESaIcEEERKNS_11FileOptionsEPSt10unique_ptrINS_16FSSequentialFileESt14default_deleteISD_EEPNS_14IODebugContextE
000000000023a5e0 T _ZN7rocksdb24FileSystemTracingWrapper19NewRandomAccessFileERKNSt7__cxx1112basic_stringIcSt11char_traitsIcESaIcEEERKNS_11FileOptionsEPSt10unique_ptrINS_18FSRandomAccessFileESt14default_deleteISD_EEPNS_14IODebugContextE
000000000023a9c0 T _ZN7rocksdb24FileSystemTracingWrapper15NewWritableFileERKNSt7__cxx1112basic_stringIcSt11char_traitsIcESaIcEEERKNS_11FileOptionsEPSt10unique_ptrINS_14FSWritableFileESt14default_deleteISD_EEPNS_14IODebugContextE
000000000023ada0 T _ZN7rocksdb24FileSystemTracingWrapper18ReopenWritableFileERKNSt7__cxx1112basic_stringIcSt11char_traitsIcESaIcEEERKNS_11FileOptionsEPSt10unique_ptrINS_14FSWritableFileESt14default_deleteISD_EEPNS_14IODebugContextE
000000000023b180 T _ZN7rocksdb24FileSystemTracingWrapper17ReuseWritableFileERKNSt7__cxx1112basic_stringIcSt11char_traitsIcESaIcEEES8_RKNS_11FileOptionsEPSt10unique_ptrINS_14FSWritableFileESt14default_deleteISD_EEPNS_14IODebugContextE
000000000023b570 T _ZN7rocksdb24FileSystemTracingWrapper15NewRandomRWFileERKNSt7__cxx1112basic_stringIcSt11char_traitsIcESaIcEEERKNS_11FileOptionsEPSt10unique_ptrINS_14FSRandomRWFileESt14default_deleteISD_EEPNS_14IODebugContextE
000000000023b950 T _ZN7rocksdb24FileSystemTracingWrapper12NewDirectoryERKNSt7__cxx1112basic_stringIcSt11char_traitsIcESaIcEEERKNS_9IOOptionsEPSt10unique_ptrINS_11FSDirectoryESt14default_deleteISD_EEPNS_14IODebugContextE
000000000023bd30 T _ZN7rocksdb24FileSystemTracingWrapper11GetChildrenERKNSt7__cxx1112basic_stringIcSt11char_traitsIcESaIcEEERKNS_9IOOptionsEPSt6vectorIS6_SaIS6_EEPNS_14IODebugContextE
000000000023c110 T _ZN7rocksdb24FileSystemTracingWrapper10DeleteFileERKNSt7__cxx1112basic_stringIcSt11char_traitsIcESaIcEEERKNS_9IOOptionsEPNS_14IODebugContextE
000000000023c4e0 T _ZN7rocksdb24FileSystemTracingWrapper9CreateDirERKNSt7__cxx1112basic_stringIcSt11char_traitsIcESaIcEEERKNS_9IOOptionsEPNS_14IODebugContextE
000000000023c8b0 T _ZN7rocksdb24FileSystemTracingWrapper18CreateDirIfMissingERKNSt7__cxx1112basic_stringIcSt11char_traitsIcESaIcEEERKNS_9IOOptionsEPNS_14IODebugContextE
000000000023cc80 T _ZN7rocksdb24FileSystemTracingWrapper9DeleteDirERKNSt7__cxx1112basic_stringIcSt11char_traitsIcESaIcEEERKNS_9IOOptionsEPNS_14IODebugContextE
000000000023d050 T _ZN7rocksdb24FileSystemTracingWrapper11GetFileSizeERKNSt7__cxx1112basic_stringIcSt11char_traitsIcESaIcEEERKNS_9IOOptionsEPmPNS_14IODebugContextE
000000000023d440 T _ZN7rocksdb24FileSystemTracingWrapper8TruncateERKNSt7__cxx1112basic_stringIcSt11char_traitsIcESaIcEEEmRKNS_9IOOptionsEPNS_14IODebugContextE
000000000023d820 T _ZN7rocksdb30FSSequentialFileTracingWrapper4ReadEmRKNS_9IOOptionsEPNS_5SliceEPcPNS_14IODebugContextE
000000000023db70 T _ZN7rocksdb30FSSequentialFileTracingWrapper15InvalidateCacheEmm
000000000023de90 T _ZN7rocksdb30FSSequentialFileTracingWrapper14PositionedReadEmmRKNS_9IOOptionsEPNS_5SliceEPcPNS_14IODebugContextE
000000000023e1e0 T _ZNK7rocksdb32FSRandomAccessFileTracingWrapper4ReadEmmRKNS_9IOOptionsEPNS_5SliceEPcPNS_14IODebugContextE
000000000023e530 T _ZN7rocksdb32FSRandomAccessFileTracingWrapper9MultiReadEPNS_13FSReadRequestEmRKNS_9IOOptionsEPNS_14IODebugContextE
000000000023e8c0 T _ZN7rocksdb32FSRandomAccessFileTracingWrapper8PrefetchEmmRKNS_9IOOptionsEPNS_14IODebugContextE
000000000023ec00 T _ZN7rocksdb32FSRandomAccessFileTracingWrapper15InvalidateCacheEmm
000000000023ef20 T _ZN7rocksdb28FSWritableFileTracingWrapper6AppendERKNS_5SliceERKNS_9IOOptionsEPNS_14IODebugContextE
000000000023f240 T _ZN7rocksdb28FSWritableFileTracingWrapper16PositionedAppendERKNS_5SliceEmRKNS_9IOOptionsEPNS_14IODebugContextE
000000000023f580 T _ZN7rocksdb28FSWritableFileTracingWrapper8TruncateEmRKNS_9IOOptionsEPNS_14IODebugContextE
000000000023f8a0 T _ZN7rocksdb28FSWritableFileTracingWrapper5CloseERKNS_9IOOptionsEPNS_14IODebugContextE
000000000023fbb0 T _ZN7rocksdb28FSWritableFileTracingWrapper11GetFileSizeERKNS_9IOOptionsEPNS_14IODebugContextE
000000000023feb0 T _ZN7rocksdb28FSWritableFileTracingWrapper15InvalidateCacheEmm
00000000002401d0 T _ZN7rocksdb28FSRandomRWFileTracingWrapper5WriteEmRKNS_5SliceERKNS_9IOOptionsEPNS_14IODebugContextE
0000000000240510 T _ZNK7rocksdb28FSRandomRWFileTracingWrapper4ReadEmmRKNS_9IOOptionsEPNS_5SliceEPcPNS_14IODebugContextE
0000000000240860 T _ZN7rocksdb28FSRandomRWFileTracingWrapper5FlushERKNS_9IOOptionsEPNS_14IODebugContextE
0000000000240b70 T _ZN7rocksdb28FSRandomRWFileTracingWrapper5CloseERKNS_9IOOptionsEPNS_14IODebugContextE
0000000000240e80 T _ZN7rocksdb28FSRandomRWFileTracingWrapper4SyncERKNS_9IOOptionsEPNS_14IODebugContextE
0000000000241190 T _ZN7rocksdb28FSRandomRWFileTracingWrapper5FsyncERKNS_9IOOptionsEPNS_14IODebugContextE
00000000002414a0 w _ZNK7rocksdb23FSSequentialFileWrapper13use_direct_ioEv
00000000002414b0 w _ZNK7rocksdb23FSSequentialFileWrapper26GetRequiredBufferAlignmentEv
00000000002414c0 w _ZN7rocksdb21FSWritableFileWrapper5FsyncERKNS_9IOOptionsEPNS_14IODebugContextE
0000000000241510 w _ZNK7rocksdb21FSWritableFileWrapper16IsSyncThreadSafeEv
0000000000241520 w _ZNK7rocksdb21FSWritableFileWrapper13use_direct_ioEv
0000000000241530 w _ZNK7rocksdb21FSWritableFileWrapper26GetRequiredBufferAlignmentEv
0000000000241540 w _ZN7rocksdb21FSWritableFileWrapper20SetWriteLifeTimeHintENS_3Env17WriteLifeTimeHintE
0000000000241550 w _ZN7rocksdb21FSWritableFileWrapper20GetWriteLifeTimeHintEv
0000000000241560 w _ZN7rocksdb21FSWritableFileWrapper25SetPreallocationBlockSizeEm
0000000000241570 w _ZN7rocksdb21FSWritableFileWrapper22GetPreallocationStatusEPmS1_
0000000000241580 w _ZNK7rocksdb21FSWritableFileWrapper11GetUniqueIdEPcm
0000000000241590 w _ZN7rocksdb21FSWritableFileWrapper9RangeSyncEmmRKNS_9IOOptionsEPNS_14IODebugContextE
00000000002415e0 w _ZN7rocksdb21FSWritableFileWrapper12PrepareWriteEmmRKNS_9IOOptionsEPNS_14IODebugContextE
00000000002415f0 w _ZN7rocksdb21FSWritableFileWrapper8AllocateEmmRKNS_9IOOptionsEPNS_14IODebugContextE
0000000000241640 w _ZNK7rocksdb21FSRandomRWFileWrapper13use_direct_ioEv
0000000000241650 w _ZNK7rocksdb21FSRandomRWFileWrapper26GetRequiredBufferAlignmentEv
0000000000241660 w _ZN7rocksdb28FSWritableFileTracingWrapper6AppendERKNS_5SliceERKNS_9IOOptionsERKNS_20DataVerificationInfoEPNS_14IODebugContextE
00000000002416b0 w _ZN7rocksdb28FSWritableFileTracingWrapper16PositionedAppendERKNS_5SliceEmRKNS_9IOOptionsERKNS_20DataVerificationInfoEPNS_14IODebugContextE
0000000000241700 w _ZN7rocksdb30FSSequentialFileTracingWrapperD0Ev
00000000002417b0 w _ZN7rocksdb28FSRandomRWFileTracingWrapperD0Ev
0000000000241860 w _ZN7rocksdb32FSRandomAccessFileTracingWrapperD0Ev
0000000000241910 w _ZN7rocksdb28FSRandomRWFileTracingWrapperD2Ev
00000000002419c0 w _ZN7rocksdb32FSRandomAccessFileTracingWrapperD2Ev
0000000000241a70 w _ZN7rocksdb30FSSequentialFileTracingWrapperD1Ev
0000000000241b20 w _ZN7rocksdb23FSSequentialFileWrapper4SkipEm
0000000000241c10 w _ZN7rocksdb21FSWritableFileWrapper5FlushERKNS_9IOOptionsEPNS_14IODebugContextE
0000000000241d00 w _ZN7rocksdb13IOTraceRecordD2Ev
0000000000241d70 T _ZN7rocksdb13PosixMmapFile11GetFileSizeERKNS_9IOOptionsEPNS_14IODebugContextE
0000000000241d80 T _ZN7rocksdb17PosixRandomRWFile5FlushERKNS_9IOOptionsEPNS_14IODebugContextE
0000000000241db0 T _ZNK7rocksdb17PosixWritableFile16IsSyncThreadSafeEv
0000000000241dc0 T _ZN7rocksdb17PosixWritableFile11GetFileSizeERKNS_9IOOptionsEPNS_14IODebugContextE
0000000000241dd0 T _ZN7rocksdb14PosixDirectoryD1Ev
0000000000241df0 T _ZN7rocksdb14PosixDirectoryD0Ev
0000000000241e20 T _ZN7rocksdb19PosixSequentialFileD1Ev
0000000000241e80 T _ZN7rocksdb19PosixSequentialFileD0Ev
0000000000241ea0 T _ZN7rocksdb21PosixRandomAccessFileD2Ev
0000000000241ef0 T _ZN7rocksdb21PosixRandomAccessFileD0Ev
0000000000241f10 T _ZN7rocksdb21PosixMmapReadableFileD1Ev
0000000000241fa0 T _ZN7rocksdb21PosixMmapReadableFileD0Ev
0000000000241fc0 t _ZN7rocksdb12_GLOBAL__N_120PosixPositionedWriteEiPKcml
0000000000242050 T _ZN7rocksdb17PosixWritableFile20SetWriteLifeTimeHintENS_3Env17WriteLifeTimeHintE
0000000000242090 T _ZN7rocksdb27PosixMemoryMappedFileBufferD1Ev
00000000002420d0 T _ZN7rocksdb27PosixMemoryMappedFileBufferD0Ev
00000000002420f0 t _ZN7rocksdb11PosixHelper19GetUniqueIdFromFileEiPcm.part.23
0000000000242220 T _ZNK7rocksdb21PosixRandomAccessFile11GetUniqueIdEPcm
0000000000242240 T _ZNK7rocksdb17PosixWritableFile11GetUniqueIdEPcm
0000000000242260 T _ZN7rocksdb21PosixRandomAccessFile4HintENS_18FSRandomAccessFile13AccessPatternE
0000000000242300 t _ZNSt7__cxx1112basic_stringIcSt11char_traitsIcESaIcEE12_M_constructIPKcEEvT_S8_St20forward_iterator_tag.isra.72
00000000002423d0 T _ZN7rocksdb21PosixRandomAccessFile9MultiReadEPNS_13FSReadRequestEmRKNS_9IOOptionsEPNS_14IODebugContextE
0000000000242520 T _ZN7rocksdb10IOErrorMsgERKNSt7__cxx1112basic_stringIcSt11char_traitsIcESaIcEEES7_
0000000000242680 T _ZN7rocksdb7IOErrorERKNSt7__cxx1112basic_stringIcSt11char_traitsIcESaIcEEES7_i
0000000000242b40 T _ZN7rocksdb19PosixSequentialFile4ReadEmRKNS_9IOOptionsEPNS_5SliceEPcPNS_14IODebugContextE
0000000000242d20 T _ZN7rocksdb13PosixMmapFile15InvalidateCacheEmm
0000000000242e20 T _ZN7rocksdb17PosixWritableFile6AppendERKNS_5SliceERKNS_9IOOptionsEPNS_14IODebugContextE
0000000000242f90 T _ZN7rocksdb17PosixWritableFile5CloseERKNS_9IOOptionsEPNS_14IODebugContextE
00000000002433b0 T _ZN7rocksdb17PosixWritableFileD1Ev
0000000000243440 T _ZN7rocksdb17PosixWritableFileD0Ev
0000000000243460 T _ZN7rocksdb17PosixWritableFile4SyncERKNS_9IOOptionsEPNS_14IODebugContextE
0000000000243550 T _ZN7rocksdb17PosixWritableFile5FsyncERKNS_9IOOptionsEPNS_14IODebugContextE
0000000000243640 T _ZN7rocksdb17PosixWritableFile15InvalidateCacheEmm
0000000000243780 T _ZN7rocksdb17PosixRandomRWFile4SyncERKNS_9IOOptionsEPNS_14IODebugContextE
0000000000243870 T _ZN7rocksdb17PosixRandomRWFile5FsyncERKNS_9IOOptionsEPNS_14IODebugContextE
0000000000243960 T _ZN7rocksdb17PosixRandomRWFile5CloseERKNS_9IOOptionsEPNS_14IODebugContextE
0000000000243a60 T _ZN7rocksdb17PosixRandomRWFileD1Ev
0000000000243af0 T _ZN7rocksdb17PosixRandomRWFileD0Ev
0000000000243b10 T _ZN7rocksdb14PosixDirectory5FsyncERKNS_9IOOptionsEPNS_14IODebugContextE
0000000000243c60 T _ZN7rocksdb7FadviseEilmi
0000000000243c70 T _ZN7rocksdb19PosixSequentialFileC2ERKNSt7__cxx1112basic_stringIcSt11char_traitsIcESaIcEEEP8_IO_FILEimRKNS_10EnvOptionsE
0000000000243ce0 T _ZN7rocksdb11PosixHelper19GetUniqueIdFromFileEiPcm
0000000000243d00 T _ZN7rocksdb19RemoveTrailingSlashERKNSt7__cxx1112basic_stringIcSt11char_traitsIcESaIcEEE
0000000000243d70 T _ZN7rocksdb11PosixHelper23GetLogicalBlockSizeOfFdEi
00000000002443d0 T _ZN7rocksdb21PosixRandomAccessFileC2ERKNSt7__cxx1112basic_stringIcSt11char_traitsIcESaIcEEEimRKNS_10EnvOptionsE
0000000000244430 T _ZN7rocksdb21PosixMmapReadableFileC2EiRKNSt7__cxx1112basic_stringIcSt11char_traitsIcESaIcEEEPvmRKNS_10EnvOptionsE
0000000000244490 T _ZN7rocksdb13PosixMmapFile18UnmapCurrentRegionEv
00000000002445e0 T _ZN7rocksdb13PosixMmapFile5CloseERKNS_9IOOptionsEPNS_14IODebugContextE
0000000000244990 T _ZN7rocksdb13PosixMmapFileD1Ev
0000000000244a20 T _ZN7rocksdb13PosixMmapFileD0Ev
0000000000244a40 T _ZN7rocksdb13PosixMmapFile5MsyncEv
0000000000244b70 T _ZN7rocksdb13PosixMmapFile4SyncERKNS_9IOOptionsEPNS_14IODebugContextE
0000000000244c50 T _ZN7rocksdb13PosixMmapFile5FsyncERKNS_9IOOptionsEPNS_14IODebugContextE
0000000000244d30 T _ZN7rocksdb13PosixMmapFileC1ERKNSt7__cxx1112basic_stringIcSt11char_traitsIcESaIcEEEimRKNS_10EnvOptionsE
0000000000244e00 T _ZN7rocksdb17PosixWritableFileC2ERKNSt7__cxx1112basic_stringIcSt11char_traitsIcESaIcEEEimRKNS_10EnvOptionsE
0000000000244f50 T _ZN7rocksdb17PosixRandomRWFileC2ERKNSt7__cxx1112basic_stringIcSt11char_traitsIcESaIcEEEiRKNS_10EnvOptionsE
0000000000244f90 T _ZN7rocksdb19PosixSequentialFile14PositionedReadEmmRKNS_9IOOptionsEPNS_5SliceEPcPNS_14IODebugContextE
0000000000245510 T _ZN7rocksdb19PosixSequentialFile4SkipEm
