0000000000004ca0 P _ZSt20__throw_length_errorPKc
0000000000004cb0 P _ZSt24__throw_out_of_range_fmtPKcz
0000000000004cc0 P abort
0000000000004cd0 P __cxa_guard_acquire
0000000000004ce0 P __fprintf_chk
0000000000004cf0 P _ZNSt7__cxx1112basic_stringIcSt11char_traitsIcESaIcEEaSEOS4_
0000000000004d00 P _Znam
0000000000004d10 P _ZdlPv
0000000000004d20 P _ZNSo9_M_insertIPKvEERSoT_
0000000000004d30 P _ZNSt7__cxx1112basic_stringIcSt11char_traitsIcESaIcEE9_M_createERmm
0000000000004d40 P _ZdlPvm
0000000000004d50 P strcasecmp
0000000000004d60 P __cxa_rethrow
0000000000004d70 P __cxa_throw_bad_array_new_length
0000000000004d80 P _ZNSt8ios_base4InitC1Ev
0000000000004d90 P strncmp
0000000000004da0 P fopen
0000000000004db0 P _ZSt18_Rb_tree_decrementPSt18_Rb_tree_node_base
0000000000004dc0 P pthread_rwlock_destroy
0000000000004dd0 P __cxa_atexit
0000000000004de0 P _ZNSt7__cxx1112basic_stringIcSt11char_traitsIcESaIcEE10_M_replaceEmmPKcm
0000000000004df0 P __vsnprintf_chk
0000000000004e00 P free
0000000000004e10 P fnmatch
0000000000004e20 P strlen
0000000000004e30 P ferror
0000000000004e40 P _ZNKSt7__cxx1112basic_stringIcSt11char_traitsIcESaIcEE7compareERKS4_
0000000000004e50 P __vfprintf_chk
0000000000004e60 P __ctype_b_loc
0000000000004e70 P _ZNSt7__cxx1112basic_stringIcSt11char_traitsIcESaIcEE9_M_assignERKS4_
0000000000004e80 P __cxa_guard_release
0000000000004e90 P strrchr
0000000000004ea0 P _ZNSt7__cxx1112basic_stringIcSt11char_traitsIcESaIcEE6assignEPKc
0000000000004eb0 P _ZSt18_Rb_tree_incrementPKSt18_Rb_tree_node_base
0000000000004ec0 P strstr
0000000000004ed0 P _ZNKSt7__cxx1112basic_stringIcSt11char_traitsIcESaIcEE4findEcm
0000000000004ee0 P _ZSt9terminatev
0000000000004ef0 P fputs
0000000000004f00 P _ZNKSt7__cxx1112basic_stringIcSt11char_traitsIcESaIcEE5rfindEcm
0000000000004f10 P _ZNSt7__cxx1112basic_stringIcSt11char_traitsIcESaIcEE7reserveEm
0000000000004f20 P pthread_rwlock_init
0000000000004f30 P _ZSt16__ostream_insertIcSt11char_traitsIcEERSt13basic_ostreamIT_T0_ES6_PKS3_l
0000000000004f40 P memmove
0000000000004f50 P strchr
0000000000004f60 P fread
0000000000004f70 P getenv
0000000000004f80 P __errno_location
0000000000004f90 P strdup
0000000000004fa0 P _ZSt29_Rb_tree_insert_and_rebalancebPSt18_Rb_tree_node_baseS0_RS_
0000000000004fb0 P __stack_chk_fail
0000000000004fc0 P strcmp
0000000000004fd0 P _ZSt19__throw_logic_errorPKc
0000000000004fe0 P _ZNKSt7__cxx1112basic_stringIcSt11char_traitsIcESaIcEE7compareEPKc
0000000000004ff0 P _ZdaPv
0000000000005000 P memcmp
0000000000005010 P _ZNKSt7__cxx1112basic_stringIcSt11char_traitsIcESaIcEE4findEPKcmm
0000000000005020 P _ZNSt9basic_iosIcSt11char_traitsIcEE5clearESt12_Ios_Iostate
0000000000005030 P _ZNSt7__cxx1112basic_stringIcSt11char_traitsIcESaIcEE9_M_appendEPKcm
0000000000005040 P fclose
0000000000005050 P pthread_rwlock_wrlock
0000000000005060 P _ZNSt7__cxx1112basic_stringIcSt11char_traitsIcESaIcEE12_M_constructEmc
0000000000005070 P isspace
0000000000005080 P strtoull
0000000000005090 P _ZSt18_Rb_tree_incrementPSt18_Rb_tree_node_base
00000000000050a0 P __cxa_end_catch
00000000000050b0 P __snprintf_chk
00000000000050c0 P __cxa_guard_abort
00000000000050d0 P strtoll
00000000000050e0 P __cxa_begin_catch
00000000000050f0 P fwrite
0000000000005100 P pthread_rwlock_unlock
0000000000005110 P _ZNSt7__cxx1112basic_stringIcSt11char_traitsIcESaIcEE14_M_replace_auxEmmmc
0000000000005120 P perror
0000000000005130 P _Znwm
0000000000005140 P _Unwind_Resume
0000000000005150 P memcpy
0000000000005160 P strtod
0000000000005170 P fflush
00000000000085b0 T _ZN6google7SetArgvEiPPKc
0000000000008ce0 T _ZN6google8GetArgvsB5cxx11Ev
0000000000008cf0 T _ZN6google7GetArgvEv
0000000000008d00 T _ZN6google8GetArgv0Ev
0000000000008d10 T _ZN6google10GetArgvSumEv
0000000000008d20 T _ZN6google21ProgramInvocationNameEv
0000000000008d30 T _ZN6google26ProgramInvocationShortNameEv
0000000000008d80 T _ZN6google15SetUsageMessageERKNSt7__cxx1112basic_stringIcSt11char_traitsIcESaIcEEE
0000000000008d90 T _ZN6google12ProgramUsageEv
0000000000008db0 T _ZN6google16SetVersionStringERKNSt7__cxx1112basic_stringIcSt11char_traitsIcESaIcEEE
0000000000008dc0 T _ZN6google13VersionStringEv
0000000000008dd0 T _ZN6google20GetCommandLineOptionEPKcPNSt7__cxx1112basic_stringIcSt11char_traitsIcESaIcEEE
0000000000008f70 T _ZN6google22GetCommandLineFlagInfoEPKcPNS_19CommandLineFlagInfoE
0000000000009040 T _ZN6google27GetCommandLineFlagInfoOrDieEPKc
0000000000009150 T _ZN6google9FlagSaverC2Ev
00000000000091a0 T _ZN6google9FlagSaverD2Ev
00000000000095e0 T _ZN6google11BoolFromEnvEPKcb
00000000000098e0 T _ZN6google12Int32FromEnvEPKci
0000000000009a90 T _ZN6google13Uint32FromEnvEPKcj
0000000000009c50 T _ZN6google12Int64FromEnvEPKcl
0000000000009df0 T _ZN6google13Uint64FromEnvEPKcm
0000000000009fb0 T _ZN6google13DoubleFromEnvEPKcd
000000000000a140 T _ZN6google13StringFromEnvEPKcS1_
000000000000a160 T _ZN6google21RegisterFlagValidatorEPKbPFbPKcbE
000000000000a170 T _ZN6google21RegisterFlagValidatorEPKiPFbPKciE
000000000000a180 T _ZN6google21RegisterFlagValidatorEPKjPFbPKcjE
000000000000a190 T _ZN6google21RegisterFlagValidatorEPKlPFbPKclE
000000000000a1a0 T _ZN6google21RegisterFlagValidatorEPKmPFbPKcmE
000000000000a1b0 T _ZN6google21RegisterFlagValidatorEPKdPFbPKcdE
000000000000a1c0 T _ZN6google21RegisterFlagValidatorEPKNSt7__cxx1112basic_stringIcSt11char_traitsIcESaIcEEEPFbPKcRS6_E
000000000000a1d0 T _ZN6google25AllowCommandLineReparsingEv
000000000000a1e0 T _ZN6google24ShutDownCommandLineFlagsEv
000000000000bc50 T _ZN6google28SetCommandLineOptionWithModeB5cxx11EPKcS1_NS_15FlagSettingModeE
000000000000bf90 T _ZN6google20SetCommandLineOptionB5cxx11EPKcS1_
000000000000c730 T _ZN6google19ReadFlagsFromStringERKNSt7__cxx1112basic_stringIcSt11char_traitsIcESaIcEEEPKcb
000000000000cdd0 T _ZN6google17ReadFromFlagsFileERKNSt7__cxx1112basic_stringIcSt11char_traitsIcESaIcEEEPKcb
000000000000e6b0 T _ZN6google21ParseCommandLineFlagsEPiPPPcb
000000000000e6c0 T _ZN6google28ParseCommandLineNonHelpFlagsEPiPPPcb
000000000000e6d0 T _ZN6google30ReparseCommandLineNonHelpFlagsEv
000000000000e7d0 T _ZN6google11GetAllFlagsEPSt6vectorINS_19CommandLineFlagInfoESaIS1_EE
000000000000fe70 T _ZN6google26CommandlineFlagsIntoStringB5cxx11Ev
000000000000fff0 T _ZN6google19AppendFlagsIntoFileERKNSt7__cxx1112basic_stringIcSt11char_traitsIcESaIcEEEPKc
00000000000102c0 w _ZN3fLS20StringFlagDestructorD2Ev
0000000000010300 w _ZNSt6vectorINSt7__cxx1112basic_stringIcSt11char_traitsIcESaIcEEESaIS5_EED2Ev
0000000000010370 w _ZN22gflags_mutex_namespace5MutexD1Ev
00000000000103a0 w _ZN22gflags_mutex_namespace5Mutex6UnlockEv
00000000000103d0 w _ZN6google20InternalStringPrintfEPNSt7__cxx1112basic_stringIcSt11char_traitsIcESaIcEEEPKcP13__va_list_tag
0000000000010540 w _ZN6google13StringAppendFEPNSt7__cxx1112basic_stringIcSt11char_traitsIcESaIcEEEPKcz
0000000000010600 w _ZN6google12StringPrintfB5cxx11EPKcz
00000000000106f0 w _ZN6google14FlagRegistererC2IbEEPKcS3_S3_PT_S5_
0000000000010760 w _ZN6google14FlagRegistererC2IiEEPKcS3_S3_PT_S5_
00000000000107d0 w _ZN6google14FlagRegistererC2IjEEPKcS3_S3_PT_S5_
0000000000010840 w _ZN6google14FlagRegistererC2IlEEPKcS3_S3_PT_S5_
00000000000108b0 w _ZN6google14FlagRegistererC2ImEEPKcS3_S3_PT_S5_
0000000000010920 w _ZN6google14FlagRegistererC1IdEEPKcS3_S3_PT_S5_
0000000000010990 w _ZN6google14FlagRegistererC1INSt7__cxx1112basic_stringIcSt11char_traitsIcESaIcEEEEEPKcS9_S9_PT_SB_
0000000000010a00 w _ZN6google19CommandLineFlagInfoD2Ev
0000000000010a90 w _ZN6google13FlagSaverImplD2Ev
0000000000010b60 w _ZN6google13FlagSaverImpl16SaveFromRegistryEv
0000000000011050 w _ZNSt6vectorIN6google19CommandLineFlagInfoESaIS1_EED1Ev
0000000000011180 w _ZNSt8_Rb_treeINSt7__cxx1112basic_stringIcSt11char_traitsIcESaIcEEESt4pairIKS5_S5_ESt10_Select1stIS8_ESt4lessIS5_ESaIS8_EE8_M_eraseEPSt13_Rb_tree_nodeIS8_E
0000000000011540 w _ZNSt6vectorIN6google19CommandLineFlagInfoESaIS1_EE17_M_realloc_insertIJRKS1_EEEvN9__gnu_cxx17__normal_iteratorIPS1_S3_EEDpOT_
0000000000011e60 w _ZNSt8_Rb_treeINSt7__cxx1112basic_stringIcSt11char_traitsIcESaIcEEESt4pairIKS5_S5_ESt10_Select1stIS8_ESt4lessIS5_ESaIS8_EE24_M_get_insert_unique_posERS7_
0000000000011fe0 w _ZNSt8_Rb_treeINSt7__cxx1112basic_stringIcSt11char_traitsIcESaIcEEESt4pairIKS5_S5_ESt10_Select1stIS8_ESt4lessIS5_ESaIS8_EE29_M_get_insert_hint_unique_posESt23_Rb_tree_const_iteratorIS8_ERS7_
0000000000012210 w _ZNSt3mapINSt7__cxx1112basic_stringIcSt11char_traitsIcESaIcEEES5_St4lessIS5_ESaISt4pairIKS5_S5_EEEixERS9_
0000000000012350 w _ZNSt3mapINSt7__cxx1112basic_stringIcSt11char_traitsIcESaIcEEES5_St4lessIS5_ESaISt4pairIKS5_S5_EEEixEOS5_
0000000000012490 w _ZN6google19CommandLineFlagInfoaSEOS0_
00000000000128b0 w _ZSt16__insertion_sortIN9__gnu_cxx17__normal_iteratorIPN6google19CommandLineFlagInfoESt6vectorIS3_SaIS3_EEEENS0_5__ops15_Iter_comp_iterINS2_19FilenameFlagnameCmpEEEEvT_SD_T0_
00000000000147a0 w _ZSt13__adjust_heapIN9__gnu_cxx17__normal_iteratorIPN6google19CommandLineFlagInfoESt6vectorIS3_SaIS3_EEEElS3_NS0_5__ops15_Iter_comp_iterINS2_19FilenameFlagnameCmpEEEEvT_T0_SE_T1_T2_
00000000000157f0 w _ZSt11__make_heapIN9__gnu_cxx17__normal_iteratorIPN6google19CommandLineFlagInfoESt6vectorIS3_SaIS3_EEEENS0_5__ops15_Iter_comp_iterINS2_19FilenameFlagnameCmpEEEEvT_SD_RT0_
0000000000016030 w _ZSt10__pop_heapIN9__gnu_cxx17__normal_iteratorIPN6google19CommandLineFlagInfoESt6vectorIS3_SaIS3_EEEENS0_5__ops15_Iter_comp_iterINS2_19FilenameFlagnameCmpEEEEvT_SD_SD_RT0_
0000000000016c00 w _ZSt16__introsort_loopIN9__gnu_cxx17__normal_iteratorIPN6google19CommandLineFlagInfoESt6vectorIS3_SaIS3_EEEElNS0_5__ops15_Iter_comp_iterINS2_19FilenameFlagnameCmpEEEEvT_SD_T0_T1_
0000000000018900 T _ZN6google15DescribeOneFlagB5cxx11ERKNS_19CommandLineFlagInfoE
00000000000198a0 T _ZN6google26ShowUsageWithFlagsRestrictEPKcS1_
0000000000019a60 T _ZN6google18ShowUsageWithFlagsEPKc
0000000000019a70 T _ZN6google26HandleCommandLineHelpFlagsEv
000000000001b060 w _ZN6google13SStringPrintfEPNSt7__cxx1112basic_stringIcSt11char_traitsIcESaIcEEEPKcz
000000000001b120 w _ZNSt6vectorINSt7__cxx1112basic_stringIcSt11char_traitsIcESaIcEEESaIS5_EE12emplace_backIJS5_EEEvDpOT_
000000000001f2a0 T _ZN6google28HandleCommandLineCompletionsEv
000000000001f2e0 w _ZNSt8_Rb_treeIPKN6google19CommandLineFlagInfoES3_St9_IdentityIS3_ESt4lessIS3_ESaIS3_EE8_M_eraseEPSt13_Rb_tree_nodeIS3_E
000000000001f480 w _ZNSt8_Rb_treeIPKN6google19CommandLineFlagInfoES3_St9_IdentityIS3_ESt4lessIS3_ESaIS3_EE16_M_insert_uniqueIRKS3_EESt4pairISt17_Rb_tree_iteratorIS3_EbEOT_
000000000001f597 w __sym_end
