00000000000020d0 P _ZSt20__throw_length_errorPKc
00000000000020e0 P memset
00000000000020f0 P _Znam
0000000000002100 P _ZdlPv
0000000000002110 P _ZdlPvm
0000000000002120 P _ZNSt7__cxx1112basic_stringIcSt11char_traitsIcESaIcEE6resizeEmc
0000000000002130 P memmove
0000000000002140 P __stack_chk_fail
0000000000002150 P _ZdaPv
0000000000002160 P _ZNSt7__cxx1112basic_stringIcSt11char_traitsIcESaIcEE9_M_appendEPKcm
0000000000002170 P _Znwm
0000000000002180 P _Unwind_Resume
0000000000002190 P memcpy
0000000000002290 T snappy_uncompress
0000000000002320 T snappy_max_compressed_length
0000000000002330 T snappy_compress
0000000000002380 T snappy_uncompressed_length
00000000000023a0 T snappy_validate_compressed_buffer
00000000000023c0 T _ZN6snappy4Sink15GetAppendBufferEmPc
00000000000023d0 T _ZN6snappy4Sink23GetAppendBufferVariableEmmPcmPm
00000000000023e0 T _ZN6snappy4Sink22AppendAndTakeOwnershipEPcmPFvPvPKcmES2_
0000000000002420 T _ZNK6snappy15ByteArraySource9AvailableEv
0000000000002430 T _ZN6snappy15ByteArraySource4PeekEPm
0000000000002440 T _ZN6snappy15ByteArraySource4SkipEm
0000000000002450 T _ZN6snappy22UncheckedByteArraySink15GetAppendBufferEmPc
0000000000002460 T _ZN6snappy22UncheckedByteArraySink23GetAppendBufferVariableEmmPcmPm
0000000000002470 T _ZN6snappy22UncheckedByteArraySink6AppendEPKcm
00000000000024a0 T _ZN6snappy22UncheckedByteArraySink22AppendAndTakeOwnershipEPcmPFvPvPKcmES2_
00000000000024f0 T _ZN6snappy6SourceD2Ev
0000000000002500 T _ZN6snappy15ByteArraySourceD2Ev
0000000000002520 T _ZN6snappy15ByteArraySourceD0Ev
0000000000002540 T _ZN6snappy6SourceD0Ev
0000000000002560 T _ZN6snappy4SinkD2Ev
0000000000002570 T _ZN6snappy22UncheckedByteArraySinkD1Ev
0000000000002590 T _ZN6snappy22UncheckedByteArraySinkD0Ev
00000000000025b0 T _ZN6snappy4SinkD0Ev
00000000000025d0 T _ZN6snappy6Varint8Append32EPNSt7__cxx1112basic_stringIcSt11char_traitsIcESaIcEEEj
0000000000002700 T _ZN6snappy19MaxCompressedLengthEm
0000000000002720 T _ZN6snappy21GetUncompressedLengthEPKcmPm
00000000000027d0 T _ZN6snappy8internal13WorkingMemory12GetHashTableEmPi
0000000000002870 T _ZN6snappy8internal16CompressFragmentEPKcmPcPti
0000000000002d50 T _ZN6snappy18SnappyDecompressor9RefillTagEv
0000000000003250 T _ZN6snappy21GetUncompressedLengthEPNS_6SourceEPj
0000000000003330 T _ZN6snappy8CompressEPNS_6SourceEPNS_4SinkE
00000000000036f0 T _ZN6snappy20RawUncompressToIOVecEPNS_6SourceEPK5iovecm
0000000000003ed0 T _ZN6snappy20RawUncompressToIOVecEPKcmPK5iovecm
0000000000003f50 T _ZN6snappy13RawUncompressEPNS_6SourceEPc
0000000000004420 T _ZN6snappy13RawUncompressEPKcmPc
00000000000044a0 T _ZN6snappy10UncompressEPKcmPNSt7__cxx1112basic_stringIcSt11char_traitsIcESaIcEEE
0000000000004540 T _ZN6snappy23IsValidCompressedBufferEPKcm
00000000000045d0 T _ZN6snappy17IsValidCompressedEPNS_6SourceE
0000000000004620 T _ZN6snappy11RawCompressEPKcmPcPm
00000000000046e0 T _ZN6snappy8CompressEPKcmPNSt7__cxx1112basic_stringIcSt11char_traitsIcESaIcEEE
0000000000004c30 T _ZN6snappy10UncompressEPNS_6SourceEPNS_4SinkE
0000000000005220 T _ZN6snappy26UncompressAsMuchAsPossibleEPNS_6SourceEPNS_4SinkE
0000000000005410 w _ZN6snappy19SnappySinkAllocator7DeleterEPvPKcm
0000000000005430 w _ZN6snappy21SnappyScatteredWriterINS_19SnappySinkAllocatorEED1Ev
0000000000005460 w _ZNSt6vectorIN6snappy19SnappySinkAllocator9DatablockESaIS2_EE17_M_realloc_insertIJRKS2_EEEvN9__gnu_cxx17__normal_iteratorIPS2_S4_EEDpOT_
00000000000055d0 w _ZNSt6vectorIPcSaIS0_EE17_M_realloc_insertIJRKS0_EEEvN9__gnu_cxx17__normal_iteratorIPS0_S2_EEDpOT_
0000000000005700 w _ZN6snappy21SnappyScatteredWriterINS_19SnappySinkAllocatorEE10SlowAppendEPKcm
0000000000005881 w __sym_end
